
U:\E2\Projekte\SW\Code\pcb\bin\STM\F4\STM32F407ZET\STF4BB\Gfx\MemTest\release\cmake\source\main\STM32F407ZET\STF4BB\Gfx\MemTest\CMakeFiles\main_lib.dir\main.cpp.obj:     file format elf32-littlearm


Disassembly of section .text._ZN20cScreen_Bpp16_5R6G5B17u32PxlIdx2ByteIdxEm:

00000000 <cScreen_Bpp16_5R6G5B::u32PxlIdx2ByteIdx(unsigned long)>:
      : cScreen(liGfxAOIx1, liGfxAOIy1, liGfxAOIx2, liGfxAOIy2, lcBm) {};
    cScreen_Bpp16_5R6G5B(GfxInt liGfxAOIx1, GfxInt liGfxAOIy1, GfxInt liGfxAOIx2, GfxInt liGfxAOIy2, cScreen* lcScreen)
      : cScreen(liGfxAOIx1, liGfxAOIy1, liGfxAOIx2, liGfxAOIy2, lcScreen) {};
    ~cScreen_Bpp16_5R6G5B() {};

    SCREEN_INLINE u32 u32PxlIdx2ByteIdx(u32 lui32PxlIdx)  {return (lui32PxlIdx  * 2);};
   0:	0048      	lsls	r0, r1, #1
   2:	4770      	bx	lr

Disassembly of section .text._ZN20cScreen_Bpp16_5R6G5B17u32ByteIdx2PxlIdxEm:

00000000 <cScreen_Bpp16_5R6G5B::u32ByteIdx2PxlIdx(unsigned long)>:
    SCREEN_INLINE u32 u32ByteIdx2PxlIdx(u32 lui32ByteIdx) {return (lui32ByteIdx / 2);};
   0:	0848      	lsrs	r0, r1, #1
   2:	4770      	bx	lr

Disassembly of section .text._ZN20cScreen_Bpp16_5R6G5B11u32GpAbsRawEss:

00000000 <cScreen_Bpp16_5R6G5B::u32GpAbsRaw(short, short)>:
        {
          return BM_BPP32_8R8G8B_RGB(0xFF, 0xFF, 0xFF);
        }
      }
      return 0;
    }
   0:	2000      	movs	r0, #0
   2:	4770      	bx	lr

Disassembly of section .text._ZN40cRes8b_Bpp1_1G_SpriteEngine_Bpp16_5R6G5B11i8BitAndRleEss:

00000000 <cRes8b_Bpp1_1G_SpriteEngine_Bpp16_5R6G5B::i8BitAndRle(short, short)>:
      }
    }
    return FRET_OK;
  }

  FRet i8BitAndRle(GfxInt lixDestX, GfxInt lixDestY)
   0:	e92d 4ff0 	stmdb	sp!, {r4, r5, r6, r7, r8, r9, sl, fp, lr}
  {
    mpcScreenDest->vRel2Abs(lixDestX, lixDestY);
   4:	69c5      	ldr	r5, [r0, #28]

    bool bClip(GfxInt liGfxDestX1, GfxInt liGfxDestY1)
    {
      miGfxDestX1 = liGfxDestX1;
      miGfxDestY1 = liGfxDestY1;
      miGfxDestX2 = miGfxDestX1 + mpcSprite->miGfxWidth - 1;
   6:	68c6      	ldr	r6, [r0, #12]
      lu8Br1 = lu8Br;
    }
  }


  SCREEN_INLINE void vRel2AbsX(GfxInt &liGfxX) { liGfxX += miGfxRefPosx1; }
   8:	88af      	ldrh	r7, [r5, #4]
  SCREEN_INLINE void vRel2AbsY(GfxInt &liGfxY) { liGfxY += miGfxRefPosy1; }
   a:	88eb      	ldrh	r3, [r5, #6]
   c:	f9b6 8004 	ldrsh.w	r8, [r6, #4]
  10:	88f4      	ldrh	r4, [r6, #6]
  SCREEN_INLINE bool isInYAbs(GfxInt liGfxY) { return (isInY1Abs(liGfxY) && isInY2Abs(liGfxY)); }
  SCREEN_INLINE bool isInAbs(GfxInt liGfxX, GfxInt liGfxY) { return (isInXAbs(liGfxX) && isInYAbs(liGfxY)); }
  SCREEN_INLINE bool isInAbs(GfxInt liGfxX1, GfxInt liGfxY1,
                             GfxInt liGfxX2, GfxInt liGfxY2) { return ((mbVisible) &&
                                                                       (liGfxX1 <= miGfxClipPosx2) && (liGfxY1 <= miGfxClipPosy2) &&
                                                                       (liGfxX2 >= miGfxClipPosx1) && (liGfxY2 >= miGfxClipPosy1));}
  12:	f895 9010 	ldrb.w	r9, [r5, #16]
  SCREEN_INLINE void vRel2AbsX(GfxInt &liGfxX) { liGfxX += miGfxRefPosx1; }
  16:	4439      	add	r1, r7
  SCREEN_INLINE void vRel2AbsY(GfxInt &liGfxY) { liGfxY += miGfxRefPosy1; }
  18:	441a      	add	r2, r3
  1a:	f108 3eff 	add.w	lr, r8, #4294967295
  1e:	3c01      	subs	r4, #1
  20:	b2a3      	uxth	r3, r4
  SCREEN_INLINE void vRel2AbsX(GfxInt &liGfxX) { liGfxX += miGfxRefPosx1; }
  22:	b289      	uxth	r1, r1
  SCREEN_INLINE void vRel2AbsY(GfxInt &liGfxY) { liGfxY += miGfxRefPosy1; }
  24:	b292      	uxth	r2, r2
  FRet i8BitAndRle(GfxInt lixDestX, GfxInt lixDestY)
  26:	b087      	sub	sp, #28
  28:	fa1f fe8e 	uxth.w	lr, lr
      miGfxDestY2 = miGfxDestY1 + mpcSprite->miGfxHeight - 1;
  2c:	eb03 0c02 	add.w	ip, r3, r2
      miGfxDestX2 = miGfxDestX1 + mpcSprite->miGfxWidth - 1;
  30:	eb01 070e 	add.w	r7, r1, lr
      miGfxDestY2 = miGfxDestY1 + mpcSprite->miGfxHeight - 1;
  34:	9301      	str	r3, [sp, #4]
      miGfxDestX2 = miGfxDestX1 + mpcSprite->miGfxWidth - 1;
  36:	b23f      	sxth	r7, r7
      miGfxDestY2 = miGfxDestY1 + mpcSprite->miGfxHeight - 1;
  38:	fa0f fc8c 	sxth.w	ip, ip
  SCREEN_INLINE void vRel2AbsX(GfxInt &liGfxX) { liGfxX += miGfxRefPosx1; }
  3c:	fa0f fa81 	sxth.w	sl, r1
  SCREEN_INLINE void vRel2AbsY(GfxInt &liGfxY) { liGfxY += miGfxRefPosy1; }
  40:	b213      	sxth	r3, r2
      miGfxDestX2 = miGfxDestX1 + mpcSprite->miGfxWidth - 1;
  42:	8487      	strh	r7, [r0, #36]	; 0x24
      miGfxDestY2 = miGfxDestY1 + mpcSprite->miGfxHeight - 1;
  44:	f8a0 c026 	strh.w	ip, [r0, #38]	; 0x26
      miGfxDestX1 = liGfxDestX1;
  48:	f8a0 a020 	strh.w	sl, [r0, #32]
      miGfxDestY1 = liGfxDestY1;
  4c:	8443      	strh	r3, [r0, #34]	; 0x22
                                                                       (liGfxX2 >= miGfxClipPosx1) && (liGfxY2 >= miGfxClipPosy1));}
  4e:	f1b9 0f00 	cmp.w	r9, #0
  52:	f000 80c3 	beq.w	1dc <cRes8b_Bpp1_1G_SpriteEngine_Bpp16_5R6G5B::i8BitAndRle(short, short)+0x1dc>
                                                                       (liGfxX1 <= miGfxClipPosx2) && (liGfxY1 <= miGfxClipPosy2) &&
  56:	f9b5 900c 	ldrsh.w	r9, [r5, #12]
                             GfxInt liGfxX2, GfxInt liGfxY2) { return ((mbVisible) &&
  5a:	45ca      	cmp	sl, r9
  5c:	f300 80be 	bgt.w	1dc <cRes8b_Bpp1_1G_SpriteEngine_Bpp16_5R6G5B::i8BitAndRle(short, short)+0x1dc>
                                                                       (liGfxX1 <= miGfxClipPosx2) && (liGfxY1 <= miGfxClipPosy2) &&
  60:	f9b5 b00e 	ldrsh.w	fp, [r5, #14]
  64:	455b      	cmp	r3, fp
  66:	f300 80b9 	bgt.w	1dc <cRes8b_Bpp1_1G_SpriteEngine_Bpp16_5R6G5B::i8BitAndRle(short, short)+0x1dc>
                                                                       (liGfxX2 >= miGfxClipPosx1) && (liGfxY2 >= miGfxClipPosy1));}
  6a:	f9b5 4008 	ldrsh.w	r4, [r5, #8]
                                                                       (liGfxX1 <= miGfxClipPosx2) && (liGfxY1 <= miGfxClipPosy2) &&
  6e:	9403      	str	r4, [sp, #12]
  70:	42a7      	cmp	r7, r4
  72:	f2c0 80b3 	blt.w	1dc <cRes8b_Bpp1_1G_SpriteEngine_Bpp16_5R6G5B::i8BitAndRle(short, short)+0x1dc>
                                                                       (liGfxX2 >= miGfxClipPosx1) && (liGfxY2 >= miGfxClipPosy1));}
  76:	f9b5 400a 	ldrsh.w	r4, [r5, #10]
  7a:	9405      	str	r4, [sp, #20]
  7c:	45a4      	cmp	ip, r4
  7e:	f2c0 80ad 	blt.w	1dc <cRes8b_Bpp1_1G_SpriteEngine_Bpp16_5R6G5B::i8BitAndRle(short, short)+0x1dc>

      if (mpcScreenDest->isInAbs(miGfxDestX1, miGfxDestY1, miGfxDestX2, miGfxDestY2))
      {
        miGfxSpriteX1 = 0;
        miGfxSpriteY1 = 0;
        miGfxSpriteX2 = mpcSprite->miGfxWidth - 1;
  82:	fa0f fe8e 	sxth.w	lr, lr
  86:	f8cd e010 	str.w	lr, [sp, #16]
        miGfxSpriteY2 = mpcSprite->miGfxHeight - 1;
  8a:	f9bd 4004 	ldrsh.w	r4, [sp, #4]
  8e:	9401      	str	r4, [sp, #4]
        miGfxSpriteX2 = mpcSprite->miGfxWidth - 1;
  90:	9c04      	ldr	r4, [sp, #16]
  92:	8284      	strh	r4, [r0, #20]
        miGfxSpriteY2 = mpcSprite->miGfxHeight - 1;
  94:	9c01      	ldr	r4, [sp, #4]
  96:	82c4      	strh	r4, [r0, #22]

        if (miGfxDestX1 < mpcScreenDest->miGfxClipPosx1) { miGfxSpriteX1 = mpcScreenDest->miGfxClipPosx1 - miGfxDestX1; miGfxDestX1 = mpcScreenDest->miGfxClipPosx1; }
  98:	9c03      	ldr	r4, [sp, #12]
        miGfxSpriteX2 = mpcSprite->miGfxWidth - 1;
  9a:	f8cd e008 	str.w	lr, [sp, #8]
        if (miGfxDestX1 < mpcScreenDest->miGfxClipPosx1) { miGfxSpriteX1 = mpcScreenDest->miGfxClipPosx1 - miGfxDestX1; miGfxDestX1 = mpcScreenDest->miGfxClipPosx1; }
  9e:	45a2      	cmp	sl, r4
        miGfxSpriteX1 = 0;
  a0:	f04f 0e00 	mov.w	lr, #0
  a4:	f8c0 e010 	str.w	lr, [r0, #16]
        if (miGfxDestX1 < mpcScreenDest->miGfxClipPosx1) { miGfxSpriteX1 = mpcScreenDest->miGfxClipPosx1 - miGfxDestX1; miGfxDestX1 = mpcScreenDest->miGfxClipPosx1; }
  a8:	f280 80d8 	bge.w	25c <cRes8b_Bpp1_1G_SpriteEngine_Bpp16_5R6G5B::i8BitAndRle(short, short)+0x25c>
  ac:	1a61      	subs	r1, r4, r1
  ae:	b289      	uxth	r1, r1
  b0:	fa0f fe81 	sxth.w	lr, r1
  b4:	9103      	str	r1, [sp, #12]
  b6:	8404      	strh	r4, [r0, #32]
  b8:	46a2      	mov	sl, r4
  ba:	f8a0 e010 	strh.w	lr, [r0, #16]
        if (miGfxDestY1 < mpcScreenDest->miGfxClipPosy1) { miGfxSpriteY1 = mpcScreenDest->miGfxClipPosy1 - miGfxDestY1; miGfxDestY1 = mpcScreenDest->miGfxClipPosy1; }
  be:	9905      	ldr	r1, [sp, #20]
  c0:	428b      	cmp	r3, r1
  c2:	460c      	mov	r4, r1
  c4:	f280 80c8 	bge.w	258 <cRes8b_Bpp1_1G_SpriteEngine_Bpp16_5R6G5B::i8BitAndRle(short, short)+0x258>
  c8:	1a8a      	subs	r2, r1, r2
  ca:	b292      	uxth	r2, r2
  cc:	460b      	mov	r3, r1
  ce:	b211      	sxth	r1, r2
  d0:	8444      	strh	r4, [r0, #34]	; 0x22
  d2:	8241      	strh	r1, [r0, #18]
  d4:	fb01 ee08 	mla	lr, r1, r8, lr

        if (miGfxDestX2 > mpcScreenDest->miGfxClipPosx2) miGfxSpriteX2 = miGfxSpriteX1 + mpcScreenDest->miGfxClipPosx2 - miGfxDestX1;
  d8:	454f      	cmp	r7, r9
  da:	dd07      	ble.n	ec <cRes8b_Bpp1_1G_SpriteEngine_Bpp16_5R6G5B::i8BitAndRle(short, short)+0xec>
  dc:	9903      	ldr	r1, [sp, #12]
  de:	eb01 0709 	add.w	r7, r1, r9
  e2:	eba7 070a 	sub.w	r7, r7, sl
  e6:	b239      	sxth	r1, r7
  e8:	9102      	str	r1, [sp, #8]
  ea:	8281      	strh	r1, [r0, #20]
        if (miGfxDestY2 > mpcScreenDest->miGfxClipPosy2) miGfxSpriteY2 = miGfxSpriteY1 + mpcScreenDest->miGfxClipPosy2 - miGfxDestY1;
  ec:	45dc      	cmp	ip, fp
  ee:	dd05      	ble.n	fc <cRes8b_Bpp1_1G_SpriteEngine_Bpp16_5R6G5B::i8BitAndRle(short, short)+0xfc>
  f0:	eb02 040b 	add.w	r4, r2, fp
  f4:	1ae4      	subs	r4, r4, r3
  f6:	b221      	sxth	r1, r4
  f8:	9101      	str	r1, [sp, #4]
  fa:	82c1      	strh	r1, [r0, #22]
    mui8SpriteRleValue = ((*mpui8Sprite) & 128);
  fc:	6987      	ldr	r7, [r0, #24]
  fe:	f897 c000 	ldrb.w	ip, [r7]
 102:	f02c 0c7f 	bic.w	ip, ip, #127	; 0x7f
 106:	f880 c03d 	strb.w	ip, [r0, #61]	; 0x3d
    mui8SpriteRleCnt = ((*mpui8Sprite) & 127);
 10a:	f897 c000 	ldrb.w	ip, [r7]
    while (muixPxlCnt > 0)
 10e:	4671      	mov	r1, lr
    mui8SpriteRleCnt = ((*mpui8Sprite) & 127);
 110:	f00c 0c7f 	and.w	ip, ip, #127	; 0x7f
 114:	f880 c03c 	strb.w	ip, [r0, #60]	; 0x3c
    while (muixPxlCnt > 0)
 118:	b1d1      	cbz	r1, 150 <cRes8b_Bpp1_1G_SpriteEngine_Bpp16_5R6G5B::i8BitAndRle(short, short)+0x150>
      if (mui8SpriteRleCnt > muixPxlCnt)
 11a:	45e6      	cmp	lr, ip
 11c:	f0c0 8097 	bcc.w	24e <cRes8b_Bpp1_1G_SpriteEngine_Bpp16_5R6G5B::i8BitAndRle(short, short)+0x24e>
 120:	9c01      	ldr	r4, [sp, #4]
 122:	e002      	b.n	12a <cRes8b_Bpp1_1G_SpriteEngine_Bpp16_5R6G5B::i8BitAndRle(short, short)+0x12a>
 124:	458c      	cmp	ip, r1
 126:	f200 8091 	bhi.w	24c <cRes8b_Bpp1_1G_SpriteEngine_Bpp16_5R6G5B::i8BitAndRle(short, short)+0x24c>
        mpui8Sprite++;
 12a:	3701      	adds	r7, #1
 12c:	6187      	str	r7, [r0, #24]
        mui8SpriteRleValue = ((*mpui8Sprite) & 128);
 12e:	f897 e000 	ldrb.w	lr, [r7]
 132:	f02e 0e7f 	bic.w	lr, lr, #127	; 0x7f
 136:	f880 e03d 	strb.w	lr, [r0, #61]	; 0x3d
        mui8SpriteRleCnt = ((*mpui8Sprite) & 127);
 13a:	f897 e000 	ldrb.w	lr, [r7]
        muixPxlCnt -= mui8SpriteRleCnt;
 13e:	eba1 010c 	sub.w	r1, r1, ip
        mui8SpriteRleCnt = ((*mpui8Sprite) & 127);
 142:	f00e 0c7f 	and.w	ip, lr, #127	; 0x7f
 146:	f880 c03c 	strb.w	ip, [r0, #60]	; 0x3c
    while (muixPxlCnt > 0)
 14a:	2900      	cmp	r1, #0
 14c:	d1ea      	bne.n	124 <cRes8b_Bpp1_1G_SpriteEngine_Bpp16_5R6G5B::i8BitAndRle(short, short)+0x124>
 14e:	9401      	str	r4, [sp, #4]
    muixXCnt = (miGfxSpriteX2 - miGfxSpriteX1) + 1;
 150:	9903      	ldr	r1, [sp, #12]
    luixBytePosDest = (GfxImgSize)(miGfxDestY1 * mpcScreenDest->mpcBm->miGfxWidth + miGfxDestX1);
 152:	696f      	ldr	r7, [r5, #20]
    muixXCnt = (miGfxSpriteX2 - miGfxSpriteX1) + 1;
 154:	f1c1 0e01 	rsb	lr, r1, #1
    muixYCnt = (miGfxSpriteY2 - miGfxSpriteY1) + 1;
 158:	9901      	ldr	r1, [sp, #4]
    luixBytePosDest = (GfxImgSize)(miGfxDestY1 * mpcScreenDest->mpcBm->miGfxWidth + miGfxDestX1);
 15a:	f8b7 c004 	ldrh.w	ip, [r7, #4]
    mpui8Dest = mpcScreenDest->mpcBm->mpui8Data + BM_BPP16_5R6G5B_PXLIDX2BYTEPOS(luixBytePosDest);
 15e:	683d      	ldr	r5, [r7, #0]
    muixYCnt = (miGfxSpriteY2 - miGfxSpriteY1) + 1;
 160:	f1c2 0201 	rsb	r2, r2, #1
 164:	4411      	add	r1, r2
    muixXCnt = (miGfxSpriteX2 - miGfxSpriteX1) + 1;
 166:	9a02      	ldr	r2, [sp, #8]
    muixYCnt = (miGfxSpriteY2 - miGfxSpriteY1) + 1;
 168:	b20c      	sxth	r4, r1
    muixXCnt = (miGfxSpriteX2 - miGfxSpriteX1) + 1;
 16a:	4496      	add	lr, r2
    luixBytePosDest = (GfxImgSize)(miGfxDestY1 * mpcScreenDest->mpcBm->miGfxWidth + miGfxDestX1);
 16c:	fb13 a30c 	smlabb	r3, r3, ip, sl
    muixXCnt = (miGfxSpriteX2 - miGfxSpriteX1) + 1;
 170:	fa0f fe8e 	sxth.w	lr, lr
    mpui8Dest = mpcScreenDest->mpcBm->mpui8Data + BM_BPP16_5R6G5B_PXLIDX2BYTEPOS(luixBytePosDest);
 174:	eb05 0543 	add.w	r5, r5, r3, lsl #1
      GfxInt luixXCnt;
      uint16* lpui16Dest;

      vPrepareRle();

      while (muixYCnt > 0)
 178:	2c00      	cmp	r4, #0
    mpui8Dest = mpcScreenDest->mpcBm->mpui8Data + BM_BPP16_5R6G5B_PXLIDX2BYTEPOS(luixBytePosDest);
 17a:	6285      	str	r5, [r0, #40]	; 0x28
    muixYCnt = (miGfxSpriteY2 - miGfxSpriteY1) + 1;
 17c:	8584      	strh	r4, [r0, #44]	; 0x2c
    muixXCnt = (miGfxSpriteX2 - miGfxSpriteX1) + 1;
 17e:	f8a0 e02e 	strh.w	lr, [r0, #46]	; 0x2e
      while (muixYCnt > 0)
 182:	dd2b      	ble.n	1dc <cRes8b_Bpp1_1G_SpriteEngine_Bpp16_5R6G5B::i8BitAndRle(short, short)+0x1dc>
      {
        luixXCnt = muixXCnt;
        lpui16Dest = (uint16*)mpui8Dest;

        while (luixXCnt > 0)
 184:	f1be 0f00 	cmp.w	lr, #0
 188:	dd2c      	ble.n	1e4 <cRes8b_Bpp1_1G_SpriteEngine_Bpp16_5R6G5B::i8BitAndRle(short, short)+0x1e4>
 18a:	f10e 31ff 	add.w	r1, lr, #4294967295
 18e:	b289      	uxth	r1, r1
 190:	3101      	adds	r1, #1
 192:	eb05 0141 	add.w	r1, r5, r1, lsl #1
        lpui16Dest = (uint16*)mpui8Dest;
 196:	462a      	mov	r2, r5
 198:	e01a      	b.n	1d0 <cRes8b_Bpp1_1G_SpriteEngine_Bpp16_5R6G5B::i8BitAndRle(short, short)+0x1d0>
        {
          if (mui8SpriteRleValue)
            *lpui16Dest &= mui32Col;
 19a:	6b03      	ldr	r3, [r0, #48]	; 0x30
 19c:	8814      	ldrh	r4, [r2, #0]
 19e:	4023      	ands	r3, r4
 1a0:	8013      	strh	r3, [r2, #0]
            *lpui16Dest = 0;


          lpui16Dest++;

          mui8SpriteRleCnt--;
 1a2:	f890 303c 	ldrb.w	r3, [r0, #60]	; 0x3c
 1a6:	3b01      	subs	r3, #1
 1a8:	b2db      	uxtb	r3, r3
          lpui16Dest++;
 1aa:	3202      	adds	r2, #2
          mui8SpriteRleCnt--;
 1ac:	f880 303c 	strb.w	r3, [r0, #60]	; 0x3c
          if (mui8SpriteRleCnt == 0)
 1b0:	b963      	cbnz	r3, 1cc <cRes8b_Bpp1_1G_SpriteEngine_Bpp16_5R6G5B::i8BitAndRle(short, short)+0x1cc>
          {
            mpui8Sprite++;
 1b2:	6983      	ldr	r3, [r0, #24]
 1b4:	1c5c      	adds	r4, r3, #1
 1b6:	6184      	str	r4, [r0, #24]
            mui8SpriteRleValue = ((*mpui8Sprite) & 128);
 1b8:	785c      	ldrb	r4, [r3, #1]
 1ba:	f024 047f 	bic.w	r4, r4, #127	; 0x7f
 1be:	f880 403d 	strb.w	r4, [r0, #61]	; 0x3d
            mui8SpriteRleCnt = ((*mpui8Sprite) & 127);
 1c2:	785b      	ldrb	r3, [r3, #1]
 1c4:	f003 037f 	and.w	r3, r3, #127	; 0x7f
 1c8:	f880 303c 	strb.w	r3, [r0, #60]	; 0x3c
        while (luixXCnt > 0)
 1cc:	428a      	cmp	r2, r1
 1ce:	d009      	beq.n	1e4 <cRes8b_Bpp1_1G_SpriteEngine_Bpp16_5R6G5B::i8BitAndRle(short, short)+0x1e4>
          if (mui8SpriteRleValue)
 1d0:	f890 303d 	ldrb.w	r3, [r0, #61]	; 0x3d
 1d4:	2b00      	cmp	r3, #0
 1d6:	d1e0      	bne.n	19a <cRes8b_Bpp1_1G_SpriteEngine_Bpp16_5R6G5B::i8BitAndRle(short, short)+0x19a>
            *lpui16Dest = 0;
 1d8:	8013      	strh	r3, [r2, #0]
 1da:	e7e2      	b.n	1a2 <cRes8b_Bpp1_1G_SpriteEngine_Bpp16_5R6G5B::i8BitAndRle(short, short)+0x1a2>
        mpui8Dest += BM_BPP16_5R6G5B_PXLIDX2BYTEPOS(mpcScreenDest->mpcBm->miGfxWidth);
        muixYCnt--;
      }
    }
    return FRET_OK;
  }
 1dc:	2000      	movs	r0, #0
 1de:	b007      	add	sp, #28
 1e0:	e8bd 8ff0 	ldmia.w	sp!, {r4, r5, r6, r7, r8, r9, sl, fp, pc}
        vGoPxlRle(miGfxSpriteX1 + (mpcSprite->miGfxWidth - (miGfxSpriteX2 + 1)));
 1e4:	f9b0 2014 	ldrsh.w	r2, [r0, #20]
 1e8:	f9b6 3004 	ldrsh.w	r3, [r6, #4]
 1ec:	f9b0 1010 	ldrsh.w	r1, [r0, #16]
 1f0:	3201      	adds	r2, #1
 1f2:	1a9b      	subs	r3, r3, r2
    while (muixPxlCnt > 0)
 1f4:	185a      	adds	r2, r3, r1
 1f6:	d017      	beq.n	228 <cRes8b_Bpp1_1G_SpriteEngine_Bpp16_5R6G5B::i8BitAndRle(short, short)+0x228>
      if (mui8SpriteRleCnt > muixPxlCnt)
 1f8:	f890 403c 	ldrb.w	r4, [r0, #60]	; 0x3c
 1fc:	42a2      	cmp	r2, r4
 1fe:	4623      	mov	r3, r4
 200:	d320      	bcc.n	244 <cRes8b_Bpp1_1G_SpriteEngine_Bpp16_5R6G5B::i8BitAndRle(short, short)+0x244>
 202:	6981      	ldr	r1, [r0, #24]
 204:	e001      	b.n	20a <cRes8b_Bpp1_1G_SpriteEngine_Bpp16_5R6G5B::i8BitAndRle(short, short)+0x20a>
 206:	4294      	cmp	r4, r2
 208:	d81c      	bhi.n	244 <cRes8b_Bpp1_1G_SpriteEngine_Bpp16_5R6G5B::i8BitAndRle(short, short)+0x244>
        mpui8Sprite++;
 20a:	3101      	adds	r1, #1
 20c:	6181      	str	r1, [r0, #24]
        mui8SpriteRleValue = ((*mpui8Sprite) & 128);
 20e:	780b      	ldrb	r3, [r1, #0]
 210:	f023 037f 	bic.w	r3, r3, #127	; 0x7f
 214:	f880 303d 	strb.w	r3, [r0, #61]	; 0x3d
        mui8SpriteRleCnt = ((*mpui8Sprite) & 127);
 218:	780b      	ldrb	r3, [r1, #0]
    while (muixPxlCnt > 0)
 21a:	1b12      	subs	r2, r2, r4
        mui8SpriteRleCnt = ((*mpui8Sprite) & 127);
 21c:	f003 037f 	and.w	r3, r3, #127	; 0x7f
 220:	f880 303c 	strb.w	r3, [r0, #60]	; 0x3c
      if (mui8SpriteRleCnt > muixPxlCnt)
 224:	461c      	mov	r4, r3
    while (muixPxlCnt > 0)
 226:	d1ee      	bne.n	206 <cRes8b_Bpp1_1G_SpriteEngine_Bpp16_5R6G5B::i8BitAndRle(short, short)+0x206>
        muixYCnt--;
 228:	8d83      	ldrh	r3, [r0, #44]	; 0x2c
        mpui8Dest += BM_BPP16_5R6G5B_PXLIDX2BYTEPOS(mpcScreenDest->mpcBm->miGfxWidth);
 22a:	f9b7 2004 	ldrsh.w	r2, [r7, #4]
        muixYCnt--;
 22e:	3b01      	subs	r3, #1
 230:	b21b      	sxth	r3, r3
        mpui8Dest += BM_BPP16_5R6G5B_PXLIDX2BYTEPOS(mpcScreenDest->mpcBm->miGfxWidth);
 232:	eb05 0542 	add.w	r5, r5, r2, lsl #1
      while (muixYCnt > 0)
 236:	2b00      	cmp	r3, #0
        muixYCnt--;
 238:	8583      	strh	r3, [r0, #44]	; 0x2c
        mpui8Dest += BM_BPP16_5R6G5B_PXLIDX2BYTEPOS(mpcScreenDest->mpcBm->miGfxWidth);
 23a:	6285      	str	r5, [r0, #40]	; 0x28
      while (muixYCnt > 0)
 23c:	ddce      	ble.n	1dc <cRes8b_Bpp1_1G_SpriteEngine_Bpp16_5R6G5B::i8BitAndRle(short, short)+0x1dc>
 23e:	f9b0 e02e 	ldrsh.w	lr, [r0, #46]	; 0x2e
 242:	e79f      	b.n	184 <cRes8b_Bpp1_1G_SpriteEngine_Bpp16_5R6G5B::i8BitAndRle(short, short)+0x184>
        mui8SpriteRleCnt -= muixPxlCnt;
 244:	1a9b      	subs	r3, r3, r2
 246:	f880 303c 	strb.w	r3, [r0, #60]	; 0x3c
 24a:	e7ed      	b.n	228 <cRes8b_Bpp1_1G_SpriteEngine_Bpp16_5R6G5B::i8BitAndRle(short, short)+0x228>
 24c:	9401      	str	r4, [sp, #4]
 24e:	ebac 0c01 	sub.w	ip, ip, r1
 252:	f880 c03c 	strb.w	ip, [r0, #60]	; 0x3c
 256:	e77b      	b.n	150 <cRes8b_Bpp1_1G_SpriteEngine_Bpp16_5R6G5B::i8BitAndRle(short, short)+0x150>
        if (miGfxDestY1 < mpcScreenDest->miGfxClipPosy1) { miGfxSpriteY1 = mpcScreenDest->miGfxClipPosy1 - miGfxDestY1; miGfxDestY1 = mpcScreenDest->miGfxClipPosy1; }
 258:	2200      	movs	r2, #0
 25a:	e73d      	b.n	d8 <cRes8b_Bpp1_1G_SpriteEngine_Bpp16_5R6G5B::i8BitAndRle(short, short)+0xd8>
        if (miGfxDestX1 < mpcScreenDest->miGfxClipPosx1) { miGfxSpriteX1 = mpcScreenDest->miGfxClipPosx1 - miGfxDestX1; miGfxDestX1 = mpcScreenDest->miGfxClipPosx1; }
 25c:	f8cd e00c 	str.w	lr, [sp, #12]
 260:	e72d      	b.n	be <cRes8b_Bpp1_1G_SpriteEngine_Bpp16_5R6G5B::i8BitAndRle(short, short)+0xbe>
 262:	bf00      	nop

00000264 <non-virtual thunk to cRes8b_Bpp1_1G_SpriteEngine_Bpp16_5R6G5B::i8BitAndRle(short, short)>:
 264:	e92d 4ff0 	stmdb	sp!, {r4, r5, r6, r7, r8, r9, sl, fp, lr}
 268:	6985      	ldr	r5, [r0, #24]
 26a:	6886      	ldr	r6, [r0, #8]
 26c:	88af      	ldrh	r7, [r5, #4]
 26e:	88eb      	ldrh	r3, [r5, #6]
 270:	f9b6 8004 	ldrsh.w	r8, [r6, #4]
 274:	88f4      	ldrh	r4, [r6, #6]
 276:	f895 9010 	ldrb.w	r9, [r5, #16]
 27a:	4439      	add	r1, r7
 27c:	441a      	add	r2, r3
 27e:	f108 3eff 	add.w	lr, r8, #4294967295
 282:	3c01      	subs	r4, #1
 284:	b2a3      	uxth	r3, r4
 286:	b289      	uxth	r1, r1
 288:	b292      	uxth	r2, r2
 28a:	b087      	sub	sp, #28
 28c:	fa1f fe8e 	uxth.w	lr, lr
 290:	eb02 0c03 	add.w	ip, r2, r3
 294:	eb0e 0701 	add.w	r7, lr, r1
 298:	9301      	str	r3, [sp, #4]
 29a:	b23f      	sxth	r7, r7
 29c:	fa0f fc8c 	sxth.w	ip, ip
 2a0:	fa0f fa81 	sxth.w	sl, r1
 2a4:	b213      	sxth	r3, r2
 2a6:	8407      	strh	r7, [r0, #32]
 2a8:	f8a0 c022 	strh.w	ip, [r0, #34]	; 0x22
 2ac:	f8a0 a01c 	strh.w	sl, [r0, #28]
 2b0:	83c3      	strh	r3, [r0, #30]
 2b2:	f1b9 0f00 	cmp.w	r9, #0
 2b6:	f000 80c3 	beq.w	440 <non-virtual thunk to cRes8b_Bpp1_1G_SpriteEngine_Bpp16_5R6G5B::i8BitAndRle(short, short)+0x1dc>
 2ba:	f9b5 900c 	ldrsh.w	r9, [r5, #12]
 2be:	45ca      	cmp	sl, r9
 2c0:	f300 80be 	bgt.w	440 <non-virtual thunk to cRes8b_Bpp1_1G_SpriteEngine_Bpp16_5R6G5B::i8BitAndRle(short, short)+0x1dc>
 2c4:	f9b5 b00e 	ldrsh.w	fp, [r5, #14]
 2c8:	455b      	cmp	r3, fp
 2ca:	f300 80b9 	bgt.w	440 <non-virtual thunk to cRes8b_Bpp1_1G_SpriteEngine_Bpp16_5R6G5B::i8BitAndRle(short, short)+0x1dc>
 2ce:	f9b5 4008 	ldrsh.w	r4, [r5, #8]
 2d2:	9403      	str	r4, [sp, #12]
 2d4:	42a7      	cmp	r7, r4
 2d6:	f2c0 80b3 	blt.w	440 <non-virtual thunk to cRes8b_Bpp1_1G_SpriteEngine_Bpp16_5R6G5B::i8BitAndRle(short, short)+0x1dc>
 2da:	f9b5 400a 	ldrsh.w	r4, [r5, #10]
 2de:	9405      	str	r4, [sp, #20]
 2e0:	45a4      	cmp	ip, r4
 2e2:	f2c0 80ad 	blt.w	440 <non-virtual thunk to cRes8b_Bpp1_1G_SpriteEngine_Bpp16_5R6G5B::i8BitAndRle(short, short)+0x1dc>
 2e6:	fa0f fe8e 	sxth.w	lr, lr
 2ea:	f8cd e010 	str.w	lr, [sp, #16]
 2ee:	f9bd 4004 	ldrsh.w	r4, [sp, #4]
 2f2:	9401      	str	r4, [sp, #4]
 2f4:	9c04      	ldr	r4, [sp, #16]
 2f6:	8204      	strh	r4, [r0, #16]
 2f8:	9c01      	ldr	r4, [sp, #4]
 2fa:	8244      	strh	r4, [r0, #18]
 2fc:	9c03      	ldr	r4, [sp, #12]
 2fe:	f8cd e008 	str.w	lr, [sp, #8]
 302:	45a2      	cmp	sl, r4
 304:	f04f 0e00 	mov.w	lr, #0
 308:	f8c0 e00c 	str.w	lr, [r0, #12]
 30c:	f280 80d8 	bge.w	4c0 <non-virtual thunk to cRes8b_Bpp1_1G_SpriteEngine_Bpp16_5R6G5B::i8BitAndRle(short, short)+0x25c>
 310:	1a61      	subs	r1, r4, r1
 312:	b289      	uxth	r1, r1
 314:	fa0f fe81 	sxth.w	lr, r1
 318:	9103      	str	r1, [sp, #12]
 31a:	8384      	strh	r4, [r0, #28]
 31c:	46a2      	mov	sl, r4
 31e:	f8a0 e00c 	strh.w	lr, [r0, #12]
 322:	9905      	ldr	r1, [sp, #20]
 324:	428b      	cmp	r3, r1
 326:	460c      	mov	r4, r1
 328:	f280 80c8 	bge.w	4bc <non-virtual thunk to cRes8b_Bpp1_1G_SpriteEngine_Bpp16_5R6G5B::i8BitAndRle(short, short)+0x258>
 32c:	1a8a      	subs	r2, r1, r2
 32e:	b292      	uxth	r2, r2
 330:	460b      	mov	r3, r1
 332:	b211      	sxth	r1, r2
 334:	83c4      	strh	r4, [r0, #30]
 336:	81c1      	strh	r1, [r0, #14]
 338:	fb01 ee08 	mla	lr, r1, r8, lr
 33c:	454f      	cmp	r7, r9
 33e:	dd07      	ble.n	350 <non-virtual thunk to cRes8b_Bpp1_1G_SpriteEngine_Bpp16_5R6G5B::i8BitAndRle(short, short)+0xec>
 340:	9903      	ldr	r1, [sp, #12]
 342:	eb01 0709 	add.w	r7, r1, r9
 346:	eba7 070a 	sub.w	r7, r7, sl
 34a:	b239      	sxth	r1, r7
 34c:	9102      	str	r1, [sp, #8]
 34e:	8201      	strh	r1, [r0, #16]
 350:	45dc      	cmp	ip, fp
 352:	dd05      	ble.n	360 <non-virtual thunk to cRes8b_Bpp1_1G_SpriteEngine_Bpp16_5R6G5B::i8BitAndRle(short, short)+0xfc>
 354:	eb02 040b 	add.w	r4, r2, fp
 358:	1ae4      	subs	r4, r4, r3
 35a:	b221      	sxth	r1, r4
 35c:	9101      	str	r1, [sp, #4]
 35e:	8241      	strh	r1, [r0, #18]
 360:	6947      	ldr	r7, [r0, #20]
 362:	f897 c000 	ldrb.w	ip, [r7]
 366:	f02c 0c7f 	bic.w	ip, ip, #127	; 0x7f
 36a:	f880 c039 	strb.w	ip, [r0, #57]	; 0x39
 36e:	f897 c000 	ldrb.w	ip, [r7]
 372:	4671      	mov	r1, lr
 374:	f00c 0c7f 	and.w	ip, ip, #127	; 0x7f
 378:	f880 c038 	strb.w	ip, [r0, #56]	; 0x38
 37c:	b1d1      	cbz	r1, 3b4 <non-virtual thunk to cRes8b_Bpp1_1G_SpriteEngine_Bpp16_5R6G5B::i8BitAndRle(short, short)+0x150>
 37e:	45e6      	cmp	lr, ip
 380:	f0c0 8097 	bcc.w	4b2 <non-virtual thunk to cRes8b_Bpp1_1G_SpriteEngine_Bpp16_5R6G5B::i8BitAndRle(short, short)+0x24e>
 384:	9c01      	ldr	r4, [sp, #4]
 386:	e002      	b.n	38e <non-virtual thunk to cRes8b_Bpp1_1G_SpriteEngine_Bpp16_5R6G5B::i8BitAndRle(short, short)+0x12a>
 388:	458c      	cmp	ip, r1
 38a:	f200 8091 	bhi.w	4b0 <non-virtual thunk to cRes8b_Bpp1_1G_SpriteEngine_Bpp16_5R6G5B::i8BitAndRle(short, short)+0x24c>
 38e:	3701      	adds	r7, #1
 390:	6147      	str	r7, [r0, #20]
 392:	f897 e000 	ldrb.w	lr, [r7]
 396:	f02e 0e7f 	bic.w	lr, lr, #127	; 0x7f
 39a:	f880 e039 	strb.w	lr, [r0, #57]	; 0x39
 39e:	f897 e000 	ldrb.w	lr, [r7]
 3a2:	eba1 010c 	sub.w	r1, r1, ip
 3a6:	f00e 0c7f 	and.w	ip, lr, #127	; 0x7f
 3aa:	f880 c038 	strb.w	ip, [r0, #56]	; 0x38
 3ae:	2900      	cmp	r1, #0
 3b0:	d1ea      	bne.n	388 <non-virtual thunk to cRes8b_Bpp1_1G_SpriteEngine_Bpp16_5R6G5B::i8BitAndRle(short, short)+0x124>
 3b2:	9401      	str	r4, [sp, #4]
 3b4:	9903      	ldr	r1, [sp, #12]
 3b6:	696f      	ldr	r7, [r5, #20]
 3b8:	f1c1 0e01 	rsb	lr, r1, #1
 3bc:	9901      	ldr	r1, [sp, #4]
 3be:	f8b7 c004 	ldrh.w	ip, [r7, #4]
 3c2:	683d      	ldr	r5, [r7, #0]
 3c4:	f1c2 0201 	rsb	r2, r2, #1
 3c8:	4411      	add	r1, r2
 3ca:	9a02      	ldr	r2, [sp, #8]
 3cc:	b20c      	sxth	r4, r1
 3ce:	4496      	add	lr, r2
 3d0:	fb13 a30c 	smlabb	r3, r3, ip, sl
 3d4:	fa0f fe8e 	sxth.w	lr, lr
 3d8:	eb05 0543 	add.w	r5, r5, r3, lsl #1
 3dc:	2c00      	cmp	r4, #0
 3de:	6245      	str	r5, [r0, #36]	; 0x24
 3e0:	8504      	strh	r4, [r0, #40]	; 0x28
 3e2:	f8a0 e02a 	strh.w	lr, [r0, #42]	; 0x2a
 3e6:	dd2b      	ble.n	440 <non-virtual thunk to cRes8b_Bpp1_1G_SpriteEngine_Bpp16_5R6G5B::i8BitAndRle(short, short)+0x1dc>
 3e8:	f1be 0f00 	cmp.w	lr, #0
 3ec:	dd2c      	ble.n	448 <non-virtual thunk to cRes8b_Bpp1_1G_SpriteEngine_Bpp16_5R6G5B::i8BitAndRle(short, short)+0x1e4>
 3ee:	f10e 31ff 	add.w	r1, lr, #4294967295
 3f2:	b289      	uxth	r1, r1
 3f4:	3101      	adds	r1, #1
 3f6:	eb05 0141 	add.w	r1, r5, r1, lsl #1
 3fa:	462a      	mov	r2, r5
 3fc:	e01a      	b.n	434 <non-virtual thunk to cRes8b_Bpp1_1G_SpriteEngine_Bpp16_5R6G5B::i8BitAndRle(short, short)+0x1d0>
 3fe:	6ac3      	ldr	r3, [r0, #44]	; 0x2c
 400:	8814      	ldrh	r4, [r2, #0]
 402:	4023      	ands	r3, r4
 404:	8013      	strh	r3, [r2, #0]
 406:	f890 3038 	ldrb.w	r3, [r0, #56]	; 0x38
 40a:	3b01      	subs	r3, #1
 40c:	b2db      	uxtb	r3, r3
 40e:	3202      	adds	r2, #2
 410:	f880 3038 	strb.w	r3, [r0, #56]	; 0x38
 414:	b963      	cbnz	r3, 430 <non-virtual thunk to cRes8b_Bpp1_1G_SpriteEngine_Bpp16_5R6G5B::i8BitAndRle(short, short)+0x1cc>
 416:	6943      	ldr	r3, [r0, #20]
 418:	1c5c      	adds	r4, r3, #1
 41a:	6144      	str	r4, [r0, #20]
 41c:	785c      	ldrb	r4, [r3, #1]
 41e:	f024 047f 	bic.w	r4, r4, #127	; 0x7f
 422:	f880 4039 	strb.w	r4, [r0, #57]	; 0x39
 426:	785b      	ldrb	r3, [r3, #1]
 428:	f003 037f 	and.w	r3, r3, #127	; 0x7f
 42c:	f880 3038 	strb.w	r3, [r0, #56]	; 0x38
 430:	428a      	cmp	r2, r1
 432:	d009      	beq.n	448 <non-virtual thunk to cRes8b_Bpp1_1G_SpriteEngine_Bpp16_5R6G5B::i8BitAndRle(short, short)+0x1e4>
 434:	f890 3039 	ldrb.w	r3, [r0, #57]	; 0x39
 438:	2b00      	cmp	r3, #0
 43a:	d1e0      	bne.n	3fe <non-virtual thunk to cRes8b_Bpp1_1G_SpriteEngine_Bpp16_5R6G5B::i8BitAndRle(short, short)+0x19a>
 43c:	8013      	strh	r3, [r2, #0]
 43e:	e7e2      	b.n	406 <non-virtual thunk to cRes8b_Bpp1_1G_SpriteEngine_Bpp16_5R6G5B::i8BitAndRle(short, short)+0x1a2>
 440:	2000      	movs	r0, #0
 442:	b007      	add	sp, #28
 444:	e8bd 8ff0 	ldmia.w	sp!, {r4, r5, r6, r7, r8, r9, sl, fp, pc}
 448:	f9b0 2010 	ldrsh.w	r2, [r0, #16]
 44c:	f9b6 3004 	ldrsh.w	r3, [r6, #4]
 450:	f9b0 100c 	ldrsh.w	r1, [r0, #12]
 454:	3201      	adds	r2, #1
 456:	1a9b      	subs	r3, r3, r2
 458:	185a      	adds	r2, r3, r1
 45a:	d017      	beq.n	48c <non-virtual thunk to cRes8b_Bpp1_1G_SpriteEngine_Bpp16_5R6G5B::i8BitAndRle(short, short)+0x228>
 45c:	f890 4038 	ldrb.w	r4, [r0, #56]	; 0x38
 460:	4294      	cmp	r4, r2
 462:	4623      	mov	r3, r4
 464:	d820      	bhi.n	4a8 <non-virtual thunk to cRes8b_Bpp1_1G_SpriteEngine_Bpp16_5R6G5B::i8BitAndRle(short, short)+0x244>
 466:	6941      	ldr	r1, [r0, #20]
 468:	e001      	b.n	46e <non-virtual thunk to cRes8b_Bpp1_1G_SpriteEngine_Bpp16_5R6G5B::i8BitAndRle(short, short)+0x20a>
 46a:	4294      	cmp	r4, r2
 46c:	d81c      	bhi.n	4a8 <non-virtual thunk to cRes8b_Bpp1_1G_SpriteEngine_Bpp16_5R6G5B::i8BitAndRle(short, short)+0x244>
 46e:	3101      	adds	r1, #1
 470:	6141      	str	r1, [r0, #20]
 472:	780b      	ldrb	r3, [r1, #0]
 474:	f023 037f 	bic.w	r3, r3, #127	; 0x7f
 478:	f880 3039 	strb.w	r3, [r0, #57]	; 0x39
 47c:	780b      	ldrb	r3, [r1, #0]
 47e:	1b12      	subs	r2, r2, r4
 480:	f003 037f 	and.w	r3, r3, #127	; 0x7f
 484:	f880 3038 	strb.w	r3, [r0, #56]	; 0x38
 488:	461c      	mov	r4, r3
 48a:	d1ee      	bne.n	46a <non-virtual thunk to cRes8b_Bpp1_1G_SpriteEngine_Bpp16_5R6G5B::i8BitAndRle(short, short)+0x206>
 48c:	8d03      	ldrh	r3, [r0, #40]	; 0x28
 48e:	f9b7 2004 	ldrsh.w	r2, [r7, #4]
 492:	3b01      	subs	r3, #1
 494:	b21b      	sxth	r3, r3
 496:	eb05 0542 	add.w	r5, r5, r2, lsl #1
 49a:	2b00      	cmp	r3, #0
 49c:	8503      	strh	r3, [r0, #40]	; 0x28
 49e:	6245      	str	r5, [r0, #36]	; 0x24
 4a0:	ddce      	ble.n	440 <non-virtual thunk to cRes8b_Bpp1_1G_SpriteEngine_Bpp16_5R6G5B::i8BitAndRle(short, short)+0x1dc>
 4a2:	f9b0 e02a 	ldrsh.w	lr, [r0, #42]	; 0x2a
 4a6:	e79f      	b.n	3e8 <non-virtual thunk to cRes8b_Bpp1_1G_SpriteEngine_Bpp16_5R6G5B::i8BitAndRle(short, short)+0x184>
 4a8:	1a9b      	subs	r3, r3, r2
 4aa:	f880 3038 	strb.w	r3, [r0, #56]	; 0x38
 4ae:	e7ed      	b.n	48c <non-virtual thunk to cRes8b_Bpp1_1G_SpriteEngine_Bpp16_5R6G5B::i8BitAndRle(short, short)+0x228>
 4b0:	9401      	str	r4, [sp, #4]
 4b2:	ebac 0c01 	sub.w	ip, ip, r1
 4b6:	f880 c038 	strb.w	ip, [r0, #56]	; 0x38
 4ba:	e77b      	b.n	3b4 <non-virtual thunk to cRes8b_Bpp1_1G_SpriteEngine_Bpp16_5R6G5B::i8BitAndRle(short, short)+0x150>
 4bc:	2200      	movs	r2, #0
 4be:	e73d      	b.n	33c <non-virtual thunk to cRes8b_Bpp1_1G_SpriteEngine_Bpp16_5R6G5B::i8BitAndRle(short, short)+0xd8>
 4c0:	f8cd e00c 	str.w	lr, [sp, #12]
 4c4:	e72d      	b.n	322 <non-virtual thunk to cRes8b_Bpp1_1G_SpriteEngine_Bpp16_5R6G5B::i8BitAndRle(short, short)+0xbe>
 4c6:	bf00      	nop

Disassembly of section .text._ZN40cRes8b_Bpp1_1G_SpriteEngine_Bpp16_5R6G5B5i8SetEssP7cSprite:

00000000 <cRes8b_Bpp1_1G_SpriteEngine_Bpp16_5R6G5B::i8Set(short, short, cSprite*)>:
        break;
    }
    return FRET_ERR_GENERAL;
  }

  FRet i8Set(GfxInt lixDestX, GfxInt lixDestY, cSprite *lpcSprite)
   0:	b430      	push	{r4, r5}
  {
    mpcSprite = lpcSprite;
    return i8Set(lixDestX, lixDestY);
   2:	6805      	ldr	r5, [r0, #0]
    mpcSprite = lpcSprite;
   4:	60c3      	str	r3, [r0, #12]
    return i8Set(lixDestX, lixDestY);
   6:	6a6b      	ldr	r3, [r5, #36]	; 0x24
  }
   8:	bc30      	pop	{r4, r5}
    return i8Set(lixDestX, lixDestY);
   a:	4718      	bx	r3

0000000c <non-virtual thunk to cRes8b_Bpp1_1G_SpriteEngine_Bpp16_5R6G5B::i8Set(short, short, cSprite*)>:
   c:	b430      	push	{r4, r5}
   e:	4604      	mov	r4, r0
  10:	3804      	subs	r0, #4
  12:	f854 5c04 	ldr.w	r5, [r4, #-4]
  16:	60a3      	str	r3, [r4, #8]
  18:	6a6b      	ldr	r3, [r5, #36]	; 0x24
  1a:	bc30      	pop	{r4, r5}
  1c:	4718      	bx	r3
  1e:	bf00      	nop

Disassembly of section .text._ZN20cRFont_Res8b_Bpp1_1G11i8PutStringEP7cScreenb:

00000000 <cRFont_Res8b_Bpp1_1G::i8PutString(cScreen*, bool)>:
        return RFONT_OK;
      }
      return RFONT_FAIL;
    }

    tstGfxPos2D i8PutString(cScreen *lpcScr, bool lbSizeOnly = False)
   0:	e92d 4ff0 	stmdb	sp!, {r4, r5, r6, r7, r8, r9, sl, fp, lr}

      lstSize.x = 0;
      lstSize.y = miGfxHeight;
      liGfxSizeLineX = 0;

      mpcSpriteEng->vSetParam(Sprite_nModeOr, &mcSprite, lpcScr);
   4:	6b43      	ldr	r3, [r0, #52]	; 0x34
      tstGfxPos2D lstPos  = mstStartPos;
   6:	f9b0 7026 	ldrsh.w	r7, [r0, #38]	; 0x26
      mpcSpriteEng->vSetCol(mui32Col);
   a:	6984      	ldr	r4, [r0, #24]
      tstGfxPos2D lstPos  = mstStartPos;
   c:	f9b0 5024 	ldrsh.w	r5, [r0, #36]	; 0x24
      lstSize.y = miGfxHeight;
  10:	f9b0 b00a 	ldrsh.w	fp, [r0, #10]
      mpcScreenDest = lpcScreenDest;
  14:	6199      	str	r1, [r3, #24]
      mpcSpriteEng->vSetParam(Sprite_nModeOr, &mcSprite, lpcScr);
  16:	f100 0628 	add.w	r6, r0, #40	; 0x28
    tstGfxPos2D i8PutString(cScreen *lpcScr, bool lbSizeOnly = False)
  1a:	b089      	sub	sp, #36	; 0x24
      mpcSprite     = lpcSprite;
  1c:	609e      	str	r6, [r3, #8]
      menMode       = lenMode;
  1e:	2602      	movs	r6, #2
      tstGfxPos2D lstPos  = mstStartPos;
  20:	9701      	str	r7, [sp, #4]
      return False;
    }

    void vSetCol(u32 lu32Col)
    {
      mui32Col = lu32Col;
  22:	62dc      	str	r4, [r3, #44]	; 0x2c
      menMode       = lenMode;
  24:	711e      	strb	r6, [r3, #4]
      return cbArrayExtT<tyCStrT>::SizeOf() + sizeof(cStrBaseT<tyCStrT>);
    }

    inline CSTRT_UINT Len(void)
    {
      return cbArrayExtT<tyCStrT>::muiLen;
  26:	8c41      	ldrh	r1, [r0, #34]	; 0x22

      for (lui32SignIdx = 0; lui32SignIdx < mcText.Len(); lui32SignIdx++)
  28:	468c      	mov	ip, r1
  2a:	2900      	cmp	r1, #0
  2c:	f000 808b 	beq.w	146 <cRFont_Res8b_Bpp1_1G::i8PutString(cScreen*, bool)+0x146>
      lstSize.x = 0;
  30:	f04f 0a00 	mov.w	sl, #0
  34:	4604      	mov	r4, r0
    SPRITE_INLINE void vSet(GfxInt liGfxWidth, GfxInt liGfxHeight, Sprite_tenFormat lenFormat, uint8 lui8Type, const u8* lpui8Data)
    {
      mpui8Data   = (uint8*)lpui8Data;
      miGfxWidth  = liGfxWidth;
      miGfxHeight = liGfxHeight;
      mui8Type    = lui8Type;
  36:	9604      	str	r6, [sp, #16]
  38:	9203      	str	r2, [sp, #12]
      liGfxSizeLineX = 0;
  3a:	4657      	mov	r7, sl
      for (lui32SignIdx = 0; lui32SignIdx < mcText.Len(); lui32SignIdx++)
  3c:	4656      	mov	r6, sl
        if ((lui8Letter >= mui8IdxMin) &&
            (lui8Letter <= mui8IdxMax))
        {
          lui16LetterIdx = maui16CharLut[lui8Letter - mui8IdxMin];

          if (lui16LetterIdx != 0xFFFF)
  3e:	4628      	mov	r0, r5
        lui8Letter = mcText.mpu8Data[lui32SignIdx];
  40:	f8d4 301e 	ldr.w	r3, [r4, #30]
        if ((lui8Letter >= mui8IdxMin) &&
  44:	7962      	ldrb	r2, [r4, #5]
        lui8Letter = mcText.mpu8Data[lui32SignIdx];
  46:	5d9b      	ldrb	r3, [r3, r6]
        if ((lui8Letter >= mui8IdxMin) &&
  48:	429a      	cmp	r2, r3
  4a:	f106 0601 	add.w	r6, r6, #1
  4e:	d831      	bhi.n	b4 <cRFont_Res8b_Bpp1_1G::i8PutString(cScreen*, bool)+0xb4>
  50:	79a5      	ldrb	r5, [r4, #6]
  52:	429d      	cmp	r5, r3
  54:	d32e      	bcc.n	b4 <cRFont_Res8b_Bpp1_1G::i8PutString(cScreen*, bool)+0xb4>
          lui16LetterIdx = maui16CharLut[lui8Letter - mui8IdxMin];
  56:	1a9b      	subs	r3, r3, r2
  58:	6962      	ldr	r2, [r4, #20]
  5a:	f832 8013 	ldrh.w	r8, [r2, r3, lsl #1]
          if (lui16LetterIdx != 0xFFFF)
  5e:	f64f 73ff 	movw	r3, #65535	; 0xffff
  62:	4598      	cmp	r8, r3
  64:	d017      	beq.n	96 <cRFont_Res8b_Bpp1_1G::i8PutString(cScreen*, bool)+0x96>
          {
            lpstCharData = (tstCharRes8B*)(maui8CharData + lui16LetterIdx);
  66:	6925      	ldr	r5, [r4, #16]
            lpui8CharData = (uint8*)lpstCharData + sizeof(tstCharRes8B);

            if (!lbSizeOnly)
  68:	9a03      	ldr	r2, [sp, #12]
            lpstCharData = (tstCharRes8B*)(maui8CharData + lui16LetterIdx);
  6a:	eb05 0908 	add.w	r9, r5, r8
  6e:	b283      	uxth	r3, r0
  70:	9302      	str	r3, [sp, #8]
  72:	f899 3002 	ldrb.w	r3, [r9, #2]
            if (!lbSizeOnly)
  76:	2a00      	cmp	r2, #0
  78:	d034      	beq.n	e4 <cRFont_Res8b_Bpp1_1G::i8PutString(cScreen*, bool)+0xe4>
              mcSprite.vSet(lpstCharData->u8Width, lpstCharData->u8Height, menFormat, Sprite_nBPP_BPP1_1G, lpui8CharData);            
              (mpcSpriteEng->*mi8Bitx)(lstPos.x + (int8)lpstCharData->u8XOffset,
                                       lstPos.y - (lpstCharData->u8Height - 1) - (int8)lpstCharData->u8YOffset);
            }
            
            lstPos.x += (int8)lpstCharData->u8XOffset + lpstCharData->u8Width + miGfxSpacing;
  7a:	f915 0008 	ldrsb.w	r0, [r5, r8]
  7e:	8922      	ldrh	r2, [r4, #8]
  80:	4418      	add	r0, r3
  82:	4410      	add	r0, r2
  84:	b280      	uxth	r0, r0
            liGfxSizeLineX += (int8)lpstCharData->u8XOffset + lpstCharData->u8Width + miGfxSpacing;
  86:	4407      	add	r7, r0
            lstPos.x += (int8)lpstCharData->u8XOffset + lpstCharData->u8Width + miGfxSpacing;
  88:	9b02      	ldr	r3, [sp, #8]
            liGfxSizeLineX += (int8)lpstCharData->u8XOffset + lpstCharData->u8Width + miGfxSpacing;
  8a:	b23f      	sxth	r7, r7
            lstPos.x += (int8)lpstCharData->u8XOffset + lpstCharData->u8Width + miGfxSpacing;
  8c:	4418      	add	r0, r3
  8e:	45ba      	cmp	sl, r7
  90:	bfb8      	it	lt
  92:	46ba      	movlt	sl, r7
  94:	b200      	sxth	r0, r0
      for (lui32SignIdx = 0; lui32SignIdx < mcText.Len(); lui32SignIdx++)
  96:	42b1      	cmp	r1, r6
  98:	468c      	mov	ip, r1
  9a:	d8d1      	bhi.n	40 <cRFont_Res8b_Bpp1_1G::i8PutString(cScreen*, bool)+0x40>
            break;
          }
        }
      }

      return lstSize;
  9c:	fa1f f38a 	uxth.w	r3, sl
  a0:	2000      	movs	r0, #0
  a2:	fa1f f28b 	uxth.w	r2, fp
  a6:	f363 000f 	bfi	r0, r3, #0, #16
  aa:	f362 401f 	bfi	r0, r2, #16, #16
    }
  ae:	b009      	add	sp, #36	; 0x24
  b0:	e8bd 8ff0 	ldmia.w	sp!, {r4, r5, r6, r7, r8, r9, sl, fp, pc}
          switch (lui8Letter)
  b4:	2b0a      	cmp	r3, #10
  b6:	d007      	beq.n	c8 <cRFont_Res8b_Bpp1_1G::i8PutString(cScreen*, bool)+0xc8>
  b8:	2b0d      	cmp	r3, #13
  ba:	d0ec      	beq.n	96 <cRFont_Res8b_Bpp1_1G::i8PutString(cScreen*, bool)+0x96>
            lstPos.x += miGfxSpacing;
  bc:	8923      	ldrh	r3, [r4, #8]
  be:	4418      	add	r0, r3
            liGfxSizeLineX += miGfxSpacing;
  c0:	441f      	add	r7, r3
            lstPos.x += miGfxSpacing;
  c2:	b200      	sxth	r0, r0
            liGfxSizeLineX += miGfxSpacing;
  c4:	b23f      	sxth	r7, r7
            break;
  c6:	e7e6      	b.n	96 <cRFont_Res8b_Bpp1_1G::i8PutString(cScreen*, bool)+0x96>
            if ((lui32SignIdx + 1) < mcText.Len())
  c8:	45b4      	cmp	ip, r6
  ca:	d9e4      	bls.n	96 <cRFont_Res8b_Bpp1_1G::i8PutString(cScreen*, bool)+0x96>
              lstPos.y  += miGfxHeight;
  cc:	8963      	ldrh	r3, [r4, #10]
  ce:	9a01      	ldr	r2, [sp, #4]
              lstPos.x   = mstStartPos.x;
  d0:	f9b4 0024 	ldrsh.w	r0, [r4, #36]	; 0x24
              lstPos.y  += miGfxHeight;
  d4:	441a      	add	r2, r3
              lstSize.y += miGfxHeight;
  d6:	449b      	add	fp, r3
              lstPos.y  += miGfxHeight;
  d8:	b213      	sxth	r3, r2
  da:	9301      	str	r3, [sp, #4]
              lstSize.y += miGfxHeight;
  dc:	fa0f fb8b 	sxth.w	fp, fp
              liGfxSizeLineX = 0;
  e0:	2700      	movs	r7, #0
  e2:	e7d8      	b.n	96 <cRFont_Res8b_Bpp1_1G::i8PutString(cScreen*, bool)+0x96>
              mcSprite.vSet(lpstCharData->u8Width, lpstCharData->u8Height, menFormat, Sprite_nBPP_BPP1_1G, lpui8CharData);            
  e4:	f899 2003 	ldrb.w	r2, [r9, #3]
  e8:	85e2      	strh	r2, [r4, #46]	; 0x2e
      miGfxWidth  = liGfxWidth;
  ea:	85a3      	strh	r3, [r4, #44]	; 0x2c
  ec:	9205      	str	r2, [sp, #20]
            lpui8CharData = (uint8*)lpstCharData + sizeof(tstCharRes8B);
  ee:	f109 0304 	add.w	r3, r9, #4
      mui8Type    = lui8Type;
  f2:	9a04      	ldr	r2, [sp, #16]
  f4:	f884 2030 	strb.w	r2, [r4, #48]	; 0x30
      mpui8Data   = (uint8*)lpui8Data;
  f8:	62a3      	str	r3, [r4, #40]	; 0x28
                                       lstPos.y - (lpstCharData->u8Height - 1) - (int8)lpstCharData->u8YOffset);
  fa:	e9d4 320e 	ldrd	r3, r2, [r4, #56]	; 0x38
  fe:	6be1      	ldr	r1, [r4, #60]	; 0x3c
              (mpcSpriteEng->*mi8Bitx)(lstPos.x + (int8)lpstCharData->u8XOffset,
 100:	6b60      	ldr	r0, [r4, #52]	; 0x34
              mcSprite.vSet(lpstCharData->u8Width, lpstCharData->u8Height, menFormat, Sprite_nBPP_BPP1_1G, lpui8CharData);            
 102:	f894 c004 	ldrb.w	ip, [r4, #4]
      menFormat   = lenFormat;
 106:	f884 c031 	strb.w	ip, [r4, #49]	; 0x31
                                       lstPos.y - (lpstCharData->u8Height - 1) - (int8)lpstCharData->u8YOffset);
 10a:	07d2      	lsls	r2, r2, #31
 10c:	9a01      	ldr	r2, [sp, #4]
 10e:	ea4f 0161 	mov.w	r1, r1, asr #1
 112:	f102 0c01 	add.w	ip, r2, #1
 116:	9a05      	ldr	r2, [sp, #20]
              (mpcSpriteEng->*mi8Bitx)(lstPos.x + (int8)lpstCharData->u8XOffset,
 118:	eb00 0e01 	add.w	lr, r0, r1
                                       lstPos.y - (lpstCharData->u8Height - 1) - (int8)lpstCharData->u8YOffset);
 11c:	bf48      	it	mi
 11e:	5841      	ldrmi	r1, [r0, r1]
 120:	f999 0001 	ldrsb.w	r0, [r9, #1]
 124:	bf48      	it	mi
 126:	58cb      	ldrmi	r3, [r1, r3]
              (mpcSpriteEng->*mi8Bitx)(lstPos.x + (int8)lpstCharData->u8XOffset,
 128:	f915 1008 	ldrsb.w	r1, [r5, r8]
                                       lstPos.y - (lpstCharData->u8Height - 1) - (int8)lpstCharData->u8YOffset);
 12c:	ebac 0202 	sub.w	r2, ip, r2
 130:	1a12      	subs	r2, r2, r0
              (mpcSpriteEng->*mi8Bitx)(lstPos.x + (int8)lpstCharData->u8XOffset,
 132:	9802      	ldr	r0, [sp, #8]
 134:	4401      	add	r1, r0
 136:	b209      	sxth	r1, r1
 138:	4670      	mov	r0, lr
 13a:	b212      	sxth	r2, r2
 13c:	4798      	blx	r3
 13e:	f899 3002 	ldrb.w	r3, [r9, #2]
 142:	8c61      	ldrh	r1, [r4, #34]	; 0x22
 144:	e799      	b.n	7a <cRFont_Res8b_Bpp1_1G::i8PutString(cScreen*, bool)+0x7a>
      lstSize.x = 0;
 146:	468a      	mov	sl, r1
 148:	e7a8      	b.n	9c <cRFont_Res8b_Bpp1_1G::i8PutString(cScreen*, bool)+0x9c>
 14a:	bf00      	nop

Disassembly of section .text._ZN20cRFont_Res8b_Bpp1_1G11i8StringLenEP11tstGfxPos2D:

00000000 <cRFont_Res8b_Bpp1_1G::i8StringLen(tstGfxPos2D*)>:
      mcText.From(lcStr);

      return i8PutString(lpcScr, lbSizeOnly);
    };

    tstGfxPos2D i8StringLen(tstGfxPos2D* lpstStrLen)
   0:	e92d 43f0 	stmdb	sp!, {r4, r5, r6, r7, r8, r9, lr}
      uint32 lui32StrWidthMax;

      uint8  lui8Letter;

      lpstStrLen->x = 0;
      lpstStrLen->y = miGfxHeight;
   4:	f9b0 700a 	ldrsh.w	r7, [r0, #10]
   8:	804f      	strh	r7, [r1, #2]
      lpstStrLen->x = 0;
   a:	2600      	movs	r6, #0
   c:	800e      	strh	r6, [r1, #0]
   e:	8c45      	ldrh	r5, [r0, #34]	; 0x22
    tstGfxPos2D i8StringLen(tstGfxPos2D* lpstStrLen)
  10:	b083      	sub	sp, #12
      lui32StrWidthMax = 0;

      for (lui32SignIdx = 0; lui32SignIdx < mcText.Len(); lui32SignIdx++)
  12:	2d00      	cmp	r5, #0
  14:	d03b      	beq.n	8e <cRFont_Res8b_Bpp1_1G::i8StringLen(tstGfxPos2D*)+0x8e>
      {
        lui8Letter = mcText.mpu8Data[lui32SignIdx];
  16:	f8d0 201e 	ldr.w	r2, [r0, #30]
          case '\r':
            break;

          case '\n': // Zeilenumbruch
            lpstStrLen->y += miGfxHeight;
            lpstStrLen->x  = 0;
  1a:	46b4      	mov	ip, r6
  1c:	4415      	add	r5, r2
          if (lui16LetterIdx != 0xFFFF)
  1e:	f64f 7eff 	movw	lr, #65535	; 0xffff
  22:	e01d      	b.n	60 <cRFont_Res8b_Bpp1_1G::i8StringLen(tstGfxPos2D*)+0x60>
        if ((lui8Letter >= mui8IdxMin) &&
  24:	f890 8006 	ldrb.w	r8, [r0, #6]
  28:	4598      	cmp	r8, r3
          lui16LetterIdx = maui16CharLut[lui8Letter - mui8IdxMin];
  2a:	eba3 0404 	sub.w	r4, r3, r4
        if ((lui8Letter >= mui8IdxMin) &&
  2e:	d31c      	bcc.n	6a <cRFont_Res8b_Bpp1_1G::i8StringLen(tstGfxPos2D*)+0x6a>
          lui16LetterIdx = maui16CharLut[lui8Letter - mui8IdxMin];
  30:	6943      	ldr	r3, [r0, #20]
  32:	f833 4014 	ldrh.w	r4, [r3, r4, lsl #1]
          if (lui16LetterIdx != 0xFFFF)
  36:	4574      	cmp	r4, lr
  38:	d010      	beq.n	5c <cRFont_Res8b_Bpp1_1G::i8StringLen(tstGfxPos2D*)+0x5c>
            lpstCharData = (tstCharRes8B*)(maui8CharData + lui16LetterIdx);
  3a:	6903      	ldr	r3, [r0, #16]
              lpstStrLen->x += (int8)lpstCharData->u8XOffset + lpstCharData->u8Width + miGfxSpacing;
  3c:	f8b1 8000 	ldrh.w	r8, [r1]
            lpstCharData = (tstCharRes8B*)(maui8CharData + lui16LetterIdx);
  40:	eb03 0904 	add.w	r9, r3, r4
              lpstStrLen->x += (int8)lpstCharData->u8XOffset + lpstCharData->u8Width + miGfxSpacing;
  44:	571b      	ldrsb	r3, [r3, r4]
  46:	f899 9002 	ldrb.w	r9, [r9, #2]
  4a:	8904      	ldrh	r4, [r0, #8]
  4c:	444b      	add	r3, r9
  4e:	4444      	add	r4, r8
  50:	4423      	add	r3, r4
  52:	b21b      	sxth	r3, r3
  54:	429e      	cmp	r6, r3
  56:	800b      	strh	r3, [r1, #0]
  58:	bf38      	it	cc
  5a:	461e      	movcc	r6, r3
      for (lui32SignIdx = 0; lui32SignIdx < mcText.Len(); lui32SignIdx++)
  5c:	42aa      	cmp	r2, r5
  5e:	d00d      	beq.n	7c <cRFont_Res8b_Bpp1_1G::i8StringLen(tstGfxPos2D*)+0x7c>
        lui8Letter = mcText.mpu8Data[lui32SignIdx];
  60:	f812 3b01 	ldrb.w	r3, [r2], #1
        if ((lui8Letter >= mui8IdxMin) &&
  64:	7944      	ldrb	r4, [r0, #5]
  66:	429c      	cmp	r4, r3
  68:	d9dc      	bls.n	24 <cRFont_Res8b_Bpp1_1G::i8StringLen(tstGfxPos2D*)+0x24>
          switch (lui8Letter)
  6a:	2b0a      	cmp	r3, #10
  6c:	d1f6      	bne.n	5c <cRFont_Res8b_Bpp1_1G::i8StringLen(tstGfxPos2D*)+0x5c>
            lpstStrLen->y += miGfxHeight;
  6e:	884b      	ldrh	r3, [r1, #2]
            lpstStrLen->x  = 0;
  70:	f8a1 c000 	strh.w	ip, [r1]
            lpstStrLen->y += miGfxHeight;
  74:	443b      	add	r3, r7
      for (lui32SignIdx = 0; lui32SignIdx < mcText.Len(); lui32SignIdx++)
  76:	42aa      	cmp	r2, r5
            lpstStrLen->y += miGfxHeight;
  78:	804b      	strh	r3, [r1, #2]
      for (lui32SignIdx = 0; lui32SignIdx < mcText.Len(); lui32SignIdx++)
  7a:	d1f1      	bne.n	60 <cRFont_Res8b_Bpp1_1G::i8StringLen(tstGfxPos2D*)+0x60>
            break;
          }
        }
      }

      lpstStrLen->x = lui32StrWidthMax;
  7c:	b233      	sxth	r3, r6
  7e:	800b      	strh	r3, [r1, #0]

      if (lpstStrLen->x)
  80:	b12b      	cbz	r3, 8e <cRFont_Res8b_Bpp1_1G::i8StringLen(tstGfxPos2D*)+0x8e>
      {
        lpstStrLen->x -= miGfxSpacing;
  82:	8902      	ldrh	r2, [r0, #8]
        lpstStrLen->y += miGfxHeight;
  84:	884b      	ldrh	r3, [r1, #2]
        lpstStrLen->x -= miGfxSpacing;
  86:	1ab6      	subs	r6, r6, r2
        lpstStrLen->y += miGfxHeight;
  88:	441f      	add	r7, r3
        lpstStrLen->x -= miGfxSpacing;
  8a:	800e      	strh	r6, [r1, #0]
        lpstStrLen->y += miGfxHeight;
  8c:	804f      	strh	r7, [r1, #2]
      }
      return *lpstStrLen;
  8e:	6808      	ldr	r0, [r1, #0]
  90:	b283      	uxth	r3, r0
    }
  92:	f363 000f 	bfi	r0, r3, #0, #16
  96:	b003      	add	sp, #12
  98:	e8bd 83f0 	ldmia.w	sp!, {r4, r5, r6, r7, r8, r9, pc}

Disassembly of section .text._ZN20cRFont_Res8b_Bpp1_1G14u32StringWidthEv:

00000000 <cRFont_Res8b_Bpp1_1G::u32StringWidth()>:
   0:	8c41      	ldrh	r1, [r0, #34]	; 0x22
      uint8  lui8Letter;

      lui32StrWidth = 0;
      lui32StrWidthMax = 0;

      for (lui32SignIdx = 0; lui32SignIdx < mcText.Len(); lui32SignIdx++)
   2:	b3c1      	cbz	r1, 76 <cRFont_Res8b_Bpp1_1G::u32StringWidth()+0x76>
    u32 u32StringWidth()
   4:	e92d 41f0 	stmdb	sp!, {r4, r5, r6, r7, r8, lr}
      {
        lui8Letter = mcText.mpu8Data[lui32SignIdx];
   8:	f8d0 201e 	ldr.w	r2, [r0, #30]

        if ((lui8Letter >= mui8IdxMin) &&
   c:	7945      	ldrb	r5, [r0, #5]
      lui32StrWidthMax = 0;
   e:	2700      	movs	r7, #0
  10:	4411      	add	r1, r2
      lui32StrWidth = 0;
  12:	463c      	mov	r4, r7
          (lui8Letter <= mui8IdxMax))
        {
          lui16LetterIdx = maui16CharLut[lui8Letter - mui8IdxMin];

          if (lui16LetterIdx != 0xFFFF)
  14:	f64f 7cff 	movw	ip, #65535	; 0xffff
  18:	e019      	b.n	4e <cRFont_Res8b_Bpp1_1G::u32StringWidth()+0x4e>
        if ((lui8Letter >= mui8IdxMin) &&
  1a:	7986      	ldrb	r6, [r0, #6]
  1c:	429e      	cmp	r6, r3
          lui16LetterIdx = maui16CharLut[lui8Letter - mui8IdxMin];
  1e:	eba3 0e05 	sub.w	lr, r3, r5
        if ((lui8Letter >= mui8IdxMin) &&
  22:	d318      	bcc.n	56 <cRFont_Res8b_Bpp1_1G::u32StringWidth()+0x56>
          lui16LetterIdx = maui16CharLut[lui8Letter - mui8IdxMin];
  24:	6943      	ldr	r3, [r0, #20]
  26:	f833 601e 	ldrh.w	r6, [r3, lr, lsl #1]
          if (lui16LetterIdx != 0xFFFF)
  2a:	4566      	cmp	r6, ip
  2c:	d00d      	beq.n	4a <cRFont_Res8b_Bpp1_1G::u32StringWidth()+0x4a>
          {
            lpstCharData = (tstCharRes8B*)(maui8CharData + lui16LetterIdx);
  2e:	6903      	ldr	r3, [r0, #16]
            {
              lui32StrWidth += (int8)lpstCharData->u8XOffset + lpstCharData->u8Width + miGfxSpacing;
  30:	f9b0 e008 	ldrsh.w	lr, [r0, #8]
            lpstCharData = (tstCharRes8B*)(maui8CharData + lui16LetterIdx);
  34:	eb03 0806 	add.w	r8, r3, r6
              lui32StrWidth += (int8)lpstCharData->u8XOffset + lpstCharData->u8Width + miGfxSpacing;
  38:	579b      	ldrsb	r3, [r3, r6]
  3a:	f898 6002 	ldrb.w	r6, [r8, #2]
  3e:	4433      	add	r3, r6
  40:	4473      	add	r3, lr
  42:	441c      	add	r4, r3
  44:	42a7      	cmp	r7, r4
  46:	bf38      	it	cc
  48:	4627      	movcc	r7, r4
      for (lui32SignIdx = 0; lui32SignIdx < mcText.Len(); lui32SignIdx++)
  4a:	428a      	cmp	r2, r1
  4c:	d008      	beq.n	60 <cRFont_Res8b_Bpp1_1G::u32StringWidth()+0x60>
        lui8Letter = mcText.mpu8Data[lui32SignIdx];
  4e:	f812 3b01 	ldrb.w	r3, [r2], #1
        if ((lui8Letter >= mui8IdxMin) &&
  52:	429d      	cmp	r5, r3
  54:	d9e1      	bls.n	1a <cRFont_Res8b_Bpp1_1G::u32StringWidth()+0x1a>
            //case ' ': // Leerzeichen
            //  BPP1_1G_HTrtlMinFP_AddPos2(VF_SPACE_X(1), 0, lhTurtle);
            //break;

          case '\n': // Zeilenumbruch
            lui32StrWidth = 0;
  56:	2b0a      	cmp	r3, #10
  58:	bf08      	it	eq
  5a:	2400      	moveq	r4, #0
      for (lui32SignIdx = 0; lui32SignIdx < mcText.Len(); lui32SignIdx++)
  5c:	428a      	cmp	r2, r1
  5e:	d1f6      	bne.n	4e <cRFont_Res8b_Bpp1_1G::u32StringWidth()+0x4e>
            break;
          }
        }
      }

      if (lui32StrWidthMax)
  60:	b12f      	cbz	r7, 6e <cRFont_Res8b_Bpp1_1G::u32StringWidth()+0x6e>
      {
        lui32StrWidthMax -= miGfxSpacing;
  62:	f9b0 1008 	ldrsh.w	r1, [r0, #8]
  66:	1a79      	subs	r1, r7, r1
      }

      return lui32StrWidthMax;
    }
  68:	4608      	mov	r0, r1
  6a:	e8bd 81f0 	ldmia.w	sp!, {r4, r5, r6, r7, r8, pc}
  6e:	4639      	mov	r1, r7
  70:	4608      	mov	r0, r1
  72:	e8bd 81f0 	ldmia.w	sp!, {r4, r5, r6, r7, r8, pc}
  76:	4608      	mov	r0, r1
  78:	4770      	bx	lr
  7a:	bf00      	nop

Disassembly of section .text._ZN20cRFont_Res8b_Bpp1_1G12u32CharWidthEc:

00000000 <cRFont_Res8b_Bpp1_1G::u32CharWidth(char)>:
    u32 u32CharWidth(char8 lChr)
    {
      uint16 lui16LetterIdx;
      tstCharRes8B* lpstCharData;

      if ((lChr >= mui8IdxMin) &&
   0:	7943      	ldrb	r3, [r0, #5]
   2:	4299      	cmp	r1, r3
   4:	db13      	blt.n	2e <cRFont_Res8b_Bpp1_1G::u32CharWidth(char)+0x2e>
          (lChr <= mui8IdxMax))
   6:	7982      	ldrb	r2, [r0, #6]
      if ((lChr >= mui8IdxMin) &&
   8:	4291      	cmp	r1, r2
   a:	dc10      	bgt.n	2e <cRFont_Res8b_Bpp1_1G::u32CharWidth(char)+0x2e>
      {
        lui16LetterIdx = maui16CharLut[lChr - mui8IdxMin];
   c:	1ac9      	subs	r1, r1, r3
   e:	6943      	ldr	r3, [r0, #20]
  10:	f833 2011 	ldrh.w	r2, [r3, r1, lsl #1]

        if (lui16LetterIdx != 0xFFFF)
  14:	f64f 73ff 	movw	r3, #65535	; 0xffff
  18:	429a      	cmp	r2, r3
  1a:	d008      	beq.n	2e <cRFont_Res8b_Bpp1_1G::u32CharWidth(char)+0x2e>
        {
          lpstCharData = (tstCharRes8B*)(maui8CharData + lui16LetterIdx);
  1c:	6903      	ldr	r3, [r0, #16]
          {
            return (int8)lpstCharData->u8XOffset + lpstCharData->u8Width + miGfxSpacing;
  1e:	f9b0 1008 	ldrsh.w	r1, [r0, #8]
  22:	5698      	ldrsb	r0, [r3, r2]
          lpstCharData = (tstCharRes8B*)(maui8CharData + lui16LetterIdx);
  24:	4413      	add	r3, r2
            return (int8)lpstCharData->u8XOffset + lpstCharData->u8Width + miGfxSpacing;
  26:	789b      	ldrb	r3, [r3, #2]
  28:	4418      	add	r0, r3
  2a:	4408      	add	r0, r1
  2c:	4770      	bx	lr
          }
        }
      }
      return 0;
  2e:	2000      	movs	r0, #0
    }
  30:	4770      	bx	lr
  32:	bf00      	nop

Disassembly of section .text._ZN20cScreen_Bpp16_5R6G5B9u32GetColEm:

00000000 <cScreen_Bpp16_5R6G5B::u32GetCol(unsigned long)>:

    SCREEN_INLINE u32 u32GetCol(u32 lui32Col)
    {
      if (lui32Col)
   0:	b171      	cbz	r1, 20 <cScreen_Bpp16_5R6G5B::u32GetCol(unsigned long)+0x20>
      {
        if (lui32Col < BM_BPP32_8R8G8B_RGB(0xFF, 0xFF, 0xFF))
   2:	4b0a      	ldr	r3, [pc, #40]	; (2c <cScreen_Bpp16_5R6G5B::u32GetCol(unsigned long)+0x2c>)
   4:	4299      	cmp	r1, r3
   6:	d80d      	bhi.n	24 <cScreen_Bpp16_5R6G5B::u32GetCol(unsigned long)+0x24>
        {
          u8 r, g, b;
          r = BM_BPP32_8R8G8B_GET_R(lui32Col) >> 3;
   8:	f3c1 43c4 	ubfx	r3, r1, #19, #5
          g = BM_BPP32_8R8G8B_GET_G(lui32Col) >> 2;
   c:	f3c1 2085 	ubfx	r0, r1, #10, #6
          b = BM_BPP32_8R8G8B_GET_B(lui32Col) >> 3;
          lui32Col = BM_BPP16_5R6G5B_RGB(r, g, b);
  10:	eb00 1083 	add.w	r0, r0, r3, lsl #6
  14:	0140      	lsls	r0, r0, #5
          b = BM_BPP32_8R8G8B_GET_B(lui32Col) >> 3;
  16:	f3c1 01c4 	ubfx	r1, r1, #3, #5
          lui32Col = BM_BPP16_5R6G5B_RGB(r, g, b);
  1a:	b280      	uxth	r0, r0
  1c:	4408      	add	r0, r1
  1e:	4770      	bx	lr
  20:	4608      	mov	r0, r1
  22:	4770      	bx	lr
        }
        else
        {
          return 0xFFFF;
  24:	f64f 70ff 	movw	r0, #65535	; 0xffff
        }
      }
      return lui32Col;
    }
  28:	4770      	bx	lr
  2a:	bf00      	nop
  2c:	00fffffe 	.word	0x00fffffe

Disassembly of section .text._ZN40cRes8b_Bpp1_1G_SpriteEngine_Bpp16_5R6G5B5i8SetEss:

00000000 <cRes8b_Bpp1_1G_SpriteEngine_Bpp16_5R6G5B::i8Set(short, short)>:
    lenFormat = mpcSprite->menFormat;
   0:	68c3      	ldr	r3, [r0, #12]
    switch (lenFormat)
   2:	7a5b      	ldrb	r3, [r3, #9]
  FRet i8Set(GfxInt lixDestX, GfxInt lixDestY)
   4:	b470      	push	{r4, r5, r6}
    switch (lenFormat)
   6:	b1c3      	cbz	r3, 3a <cRes8b_Bpp1_1G_SpriteEngine_Bpp16_5R6G5B::i8Set(short, short)+0x3a>
   8:	2b01      	cmp	r3, #1
   a:	d113      	bne.n	34 <cRes8b_Bpp1_1G_SpriteEngine_Bpp16_5R6G5B::i8Set(short, short)+0x34>
        return ((this->*i8Bitx[(u8)(menMode + Sprite_nModeLastEntry)])(lixDestX, lixDestY));
   c:	7a04      	ldrb	r4, [r0, #8]
   e:	4e14      	ldr	r6, [pc, #80]	; (60 <cRes8b_Bpp1_1G_SpriteEngine_Bpp16_5R6G5B::i8Set(short, short)+0x60>)
  10:	3404      	adds	r4, #4
  12:	b2e4      	uxtb	r4, r4
  14:	eb06 05c4 	add.w	r5, r6, r4, lsl #3
  18:	1d03      	adds	r3, r0, #4
  1a:	686d      	ldr	r5, [r5, #4]
  1c:	f856 4034 	ldr.w	r4, [r6, r4, lsl #3]
  20:	106e      	asrs	r6, r5, #1
  22:	07ed      	lsls	r5, r5, #31
  24:	eb03 0006 	add.w	r0, r3, r6
  28:	bf44      	itt	mi
  2a:	599b      	ldrmi	r3, [r3, r6]
  2c:	591c      	ldrmi	r4, [r3, r4]
  2e:	4623      	mov	r3, r4
  }
  30:	bc70      	pop	{r4, r5, r6}
        return ((this->*i8Bitx[(u8)(menMode + Sprite_nModeLastEntry)])(lixDestX, lixDestY));
  32:	4718      	bx	r3
  }
  34:	2001      	movs	r0, #1
  36:	bc70      	pop	{r4, r5, r6}
  38:	4770      	bx	lr
        return ((this->*i8Bitx[(u8)menMode])(lixDestX, lixDestY));
  3a:	7a05      	ldrb	r5, [r0, #8]
  3c:	4c08      	ldr	r4, [pc, #32]	; (60 <cRes8b_Bpp1_1G_SpriteEngine_Bpp16_5R6G5B::i8Set(short, short)+0x60>)
  3e:	eb04 03c5 	add.w	r3, r4, r5, lsl #3
  42:	1d06      	adds	r6, r0, #4
  44:	685b      	ldr	r3, [r3, #4]
  46:	f854 4035 	ldr.w	r4, [r4, r5, lsl #3]
  4a:	105d      	asrs	r5, r3, #1
  4c:	07db      	lsls	r3, r3, #31
  4e:	eb06 0005 	add.w	r0, r6, r5
  52:	d5ec      	bpl.n	2e <cRes8b_Bpp1_1G_SpriteEngine_Bpp16_5R6G5B::i8Set(short, short)+0x2e>
  54:	5973      	ldr	r3, [r6, r5]
  56:	591c      	ldr	r4, [r3, r4]
        return ((this->*i8Bitx[(u8)(menMode + Sprite_nModeLastEntry)])(lixDestX, lixDestY));
  58:	4623      	mov	r3, r4
  }
  5a:	bc70      	pop	{r4, r5, r6}
        return ((this->*i8Bitx[(u8)(menMode + Sprite_nModeLastEntry)])(lixDestX, lixDestY));
  5c:	4718      	bx	r3
  5e:	bf00      	nop
  60:	00000000 	.word	0x00000000	60: R_ARM_ABS32	cSpriteEngine::i8Bitx

00000064 <non-virtual thunk to cRes8b_Bpp1_1G_SpriteEngine_Bpp16_5R6G5B::i8Set(short, short)>:
  FRet i8Set(GfxInt lixDestX, GfxInt lixDestY)
  64:	f1a0 0004 	sub.w	r0, r0, #4
  68:	e7ca      	b.n	0 <cRes8b_Bpp1_1G_SpriteEngine_Bpp16_5R6G5B::i8Set(short, short)>
  6a:	bf00      	nop

Disassembly of section .text._ZN40cRes8b_Bpp1_1G_SpriteEngine_Bpp16_5R6G5B5i8SetEssPKh:

00000000 <cRes8b_Bpp1_1G_SpriteEngine_Bpp16_5R6G5B::i8Set(short, short, unsigned char const*)>:

  FRet i8Set(GfxInt lixDestX, GfxInt lixDestY, const uint8* lpui8Resource)
   0:	e92d 41f0 	stmdb	sp!, {r4, r5, r6, r7, r8, lr}

  cSprite_Res8b_Bpp1_1G() : cSprite() {}

  FRet vSetRes8B(const uint8* lpui8Resource)
  {
    if ((lpui8Resource[0] == Sprite_nType_Sprite) && (lpui8Resource[1] == Sprite_nBPP_BPP1_1G))
   4:	781c      	ldrb	r4, [r3, #0]
   6:	b914      	cbnz	r4, e <cRes8b_Bpp1_1G_SpriteEngine_Bpp16_5R6G5B::i8Set(short, short, unsigned char const*)+0xe>
   8:	785e      	ldrb	r6, [r3, #1]
   a:	2e02      	cmp	r6, #2
   c:	d002      	beq.n	14 <cRes8b_Bpp1_1G_SpriteEngine_Bpp16_5R6G5B::i8Set(short, short, unsigned char const*)+0x14>
    if (((cSprite_Res8b_Bpp1_1G*)mpcSprite)->vSetRes8B(lpui8Resource) == SPRITE_OK)
    {
      i8Set(lixDestX, lixDestY);
      return SPRITEENGINE_OK;
    }
    return SPRITEENGINE_FAIL;
   e:	2001      	movs	r0, #1
  }
  10:	e8bd 81f0 	ldmia.w	sp!, {r4, r5, r6, r7, r8, pc}
    if (((cSprite_Res8b_Bpp1_1G*)mpcSprite)->vSetRes8B(lpui8Resource) == SPRITE_OK)
  14:	68c7      	ldr	r7, [r0, #12]
    {
      cSprite::vSet(lpui8Resource[3], lpui8Resource[4], (Sprite_tenFormat)lpui8Resource[2], Sprite_nBPP_BPP1_1G, lpui8Resource + 5);
  16:	f893 8003 	ldrb.w	r8, [r3, #3]
  1a:	f893 e004 	ldrb.w	lr, [r3, #4]
  1e:	f893 c002 	ldrb.w	ip, [r3, #2]
      mui8Type    = lui8Type;
  22:	723e      	strb	r6, [r7, #8]
      i8Set(lixDestX, lixDestY);
  24:	6805      	ldr	r5, [r0, #0]
      miGfxWidth  = liGfxWidth;
  26:	f8a7 8004 	strh.w	r8, [r7, #4]
  2a:	3305      	adds	r3, #5
  2c:	6a6d      	ldr	r5, [r5, #36]	; 0x24
      miGfxHeight = liGfxHeight;
  2e:	f8a7 e006 	strh.w	lr, [r7, #6]
      menFormat   = lenFormat;
  32:	f887 c009 	strb.w	ip, [r7, #9]
      mpui8Data   = (uint8*)lpui8Data;
  36:	603b      	str	r3, [r7, #0]
  38:	47a8      	blx	r5
  3a:	4620      	mov	r0, r4
  }
  3c:	e8bd 81f0 	ldmia.w	sp!, {r4, r5, r6, r7, r8, pc}

Disassembly of section .text._ZN20cScreen_Bpp16_5R6G5B9vPpAbsRawEssm:

00000000 <cScreen_Bpp16_5R6G5B::vPpAbsRaw(short, short, unsigned long)>:
    SCREEN_INLINE void vPpAbsRaw(GfxInt liGfxX, GfxInt liGfxY, u32 lui32Col)
   0:	b5f8      	push	{r3, r4, r5, r6, r7, lr}
      lui32Col = u32GetCol(lui32Col);
   2:	6804      	ldr	r4, [r0, #0]
   4:	f8df c04c 	ldr.w	ip, [pc, #76]	; 54 <cScreen_Bpp16_5R6G5B::vPpAbsRaw(short, short, unsigned long)+0x54>
   8:	6967      	ldr	r7, [r4, #20]
   a:	4567      	cmp	r7, ip
    SCREEN_INLINE void vPpAbsRaw(GfxInt liGfxX, GfxInt liGfxY, u32 lui32Col)
   c:	4605      	mov	r5, r0
   e:	460e      	mov	r6, r1
  10:	4614      	mov	r4, r2
  12:	d116      	bne.n	42 <cScreen_Bpp16_5R6G5B::vPpAbsRaw(short, short, unsigned long)+0x42>
      if (lui32Col)
  14:	b16b      	cbz	r3, 32 <cScreen_Bpp16_5R6G5B::vPpAbsRaw(short, short, unsigned long)+0x32>
        if (lui32Col < BM_BPP32_8R8G8B_RGB(0xFF, 0xFF, 0xFF))
  16:	4a0e      	ldr	r2, [pc, #56]	; (50 <cScreen_Bpp16_5R6G5B::vPpAbsRaw(short, short, unsigned long)+0x50>)
  18:	4293      	cmp	r3, r2
  1a:	d816      	bhi.n	4a <cScreen_Bpp16_5R6G5B::vPpAbsRaw(short, short, unsigned long)+0x4a>
          r = BM_BPP32_8R8G8B_GET_R(lui32Col) >> 3;
  1c:	f3c3 42c4 	ubfx	r2, r3, #19, #5
          g = BM_BPP32_8R8G8B_GET_G(lui32Col) >> 2;
  20:	f3c3 2085 	ubfx	r0, r3, #10, #6
          lui32Col = BM_BPP16_5R6G5B_RGB(r, g, b);
  24:	eb00 1082 	add.w	r0, r0, r2, lsl #6
          b = BM_BPP32_8R8G8B_GET_B(lui32Col) >> 3;
  28:	f3c3 03c4 	ubfx	r3, r3, #3, #5
          lui32Col = BM_BPP16_5R6G5B_RGB(r, g, b);
  2c:	eb03 1340 	add.w	r3, r3, r0, lsl #5
  30:	b29b      	uxth	r3, r3
      SCREEN_BPP16_5R6G5B_PP(liGfxX, liGfxY, mpcBm, lui32Col);
  32:	6969      	ldr	r1, [r5, #20]
    BM_INLINE bool   bChkInit()                                      {return (mpui8Data != BM_INVALID);};
    BM_INLINE bool   bChkSize(GfxInt liGfxWidth, GfxInt liGfxHeight) {return ((miGfxWidth == liGfxWidth) && (miGfxHeight == liGfxHeight));};
    BM_INLINE bool   bChkSize(cBitmap lcBm)                          {return ((miGfxWidth == lcBm.miGfxWidth) && (miGfxHeight == lcBm.miGfxHeight));};
    BM_INLINE u32    u32PosX(u32 lui32PxlIdx)                        {return ((lui32PxlIdx) % miGfxWidth);};
    BM_INLINE u32    u32PosY(u32 lui32PxlIdx)                        {return ((lui32PxlIdx) / miGfxWidth);};
    BM_INLINE u32    u32PxlIdx(GfxInt liGfxX, GfxInt liGfxY)         {return ((uint32)((liGfxY) * miGfxWidth + (liGfxX)));};
  34:	888a      	ldrh	r2, [r1, #4]
    }

    BM_INLINE void vPp(GfxInt liGfxX, GfxInt liGfxY, u16 lui16Col)
    {
      u16* lpui16Data = (u16*)mpui8Data;
      lpui16Data[u32PxlIdx(liGfxX, liGfxY)] = lui16Col;
  36:	6809      	ldr	r1, [r1, #0]
  38:	fb14 6402 	smlabb	r4, r4, r2, r6
  3c:	f821 3014 	strh.w	r3, [r1, r4, lsl #1]
    }
  40:	bdf8      	pop	{r3, r4, r5, r6, r7, pc}
      lui32Col = u32GetCol(lui32Col);
  42:	4619      	mov	r1, r3
  44:	47b8      	blx	r7
  46:	b283      	uxth	r3, r0
  48:	e7f3      	b.n	32 <cScreen_Bpp16_5R6G5B::vPpAbsRaw(short, short, unsigned long)+0x32>
        if (lui32Col < BM_BPP32_8R8G8B_RGB(0xFF, 0xFF, 0xFF))
  4a:	f64f 73ff 	movw	r3, #65535	; 0xffff
  4e:	e7f0      	b.n	32 <cScreen_Bpp16_5R6G5B::vPpAbsRaw(short, short, unsigned long)+0x32>
  50:	00fffffe 	.word	0x00fffffe
  54:	00000000 	.word	0x00000000	54: R_ARM_ABS32	cScreen_Bpp16_5R6G5B::u32GetCol(unsigned long)

Disassembly of section .text._ZN20cScreen_Bpp16_5R6G5B12vLineVAbsRawEsssm:

00000000 <cScreen_Bpp16_5R6G5B::vLineVAbsRaw(short, short, short, unsigned long)>:
      }
    }


    // Zeichnet eine vertikale Linie
    void vLineVAbsRaw(GfxInt liGfxX1, GfxInt liGfxY1, GfxInt liGfxY2, uint32 lui32Col)
   0:	b5f0      	push	{r4, r5, r6, r7, lr}
    {
      //if (bChkInit())
      {
        lui32Col = u32GetCol(lui32Col);
   2:	6805      	ldr	r5, [r0, #0]
   4:	f8df c068 	ldr.w	ip, [pc, #104]	; 70 <cScreen_Bpp16_5R6G5B::vLineVAbsRaw(short, short, short, unsigned long)+0x70>
   8:	696f      	ldr	r7, [r5, #20]
    void vLineVAbsRaw(GfxInt liGfxX1, GfxInt liGfxY1, GfxInt liGfxY2, uint32 lui32Col)
   a:	b083      	sub	sp, #12
   c:	4567      	cmp	r7, ip
   e:	4606      	mov	r6, r0
  10:	9c08      	ldr	r4, [sp, #32]
  12:	460d      	mov	r5, r1
  14:	d11e      	bne.n	54 <cScreen_Bpp16_5R6G5B::vLineVAbsRaw(short, short, short, unsigned long)+0x54>
      if (lui32Col)
  16:	b16c      	cbz	r4, 34 <cScreen_Bpp16_5R6G5B::vLineVAbsRaw(short, short, short, unsigned long)+0x34>
        if (lui32Col < BM_BPP32_8R8G8B_RGB(0xFF, 0xFF, 0xFF))
  18:	4914      	ldr	r1, [pc, #80]	; (6c <cScreen_Bpp16_5R6G5B::vLineVAbsRaw(short, short, short, unsigned long)+0x6c>)
  1a:	428c      	cmp	r4, r1
  1c:	d822      	bhi.n	64 <cScreen_Bpp16_5R6G5B::vLineVAbsRaw(short, short, short, unsigned long)+0x64>
          r = BM_BPP32_8R8G8B_GET_R(lui32Col) >> 3;
  1e:	f3c4 40c4 	ubfx	r0, r4, #19, #5
          g = BM_BPP32_8R8G8B_GET_G(lui32Col) >> 2;
  22:	f3c4 2185 	ubfx	r1, r4, #10, #6
          lui32Col = BM_BPP16_5R6G5B_RGB(r, g, b);
  26:	eb01 1180 	add.w	r1, r1, r0, lsl #6
  2a:	0149      	lsls	r1, r1, #5
  2c:	b289      	uxth	r1, r1
          b = BM_BPP32_8R8G8B_GET_B(lui32Col) >> 3;
  2e:	f3c4 04c4 	ubfx	r4, r4, #3, #5
          lui32Col = BM_BPP16_5R6G5B_RGB(r, g, b);
  32:	440c      	add	r4, r1
        while (liGfxY1 <= liGfxY2)
  34:	429a      	cmp	r2, r3
  36:	dc0b      	bgt.n	50 <cScreen_Bpp16_5R6G5B::vLineVAbsRaw(short, short, short, unsigned long)+0x50>
        {
          SCREEN_BPP16_5R6G5B_PP(liGfxX1, liGfxY1, mpcBm, lui32Col);
  38:	6976      	ldr	r6, [r6, #20]
      u16* lpui16Data = (u16*)mpui8Data;
  3a:	6837      	ldr	r7, [r6, #0]
  3c:	b2a4      	uxth	r4, r4
  3e:	88b1      	ldrh	r1, [r6, #4]
  40:	1c50      	adds	r0, r2, #1
  42:	fb12 5101 	smlabb	r1, r2, r1, r5
  46:	b202      	sxth	r2, r0
        while (liGfxY1 <= liGfxY2)
  48:	4293      	cmp	r3, r2
      lpui16Data[u32PxlIdx(liGfxX, liGfxY)] = lui16Col;
  4a:	f827 4011 	strh.w	r4, [r7, r1, lsl #1]
  4e:	daf6      	bge.n	3e <cScreen_Bpp16_5R6G5B::vLineVAbsRaw(short, short, short, unsigned long)+0x3e>
          liGfxY1++;
        }
      }
    }
  50:	b003      	add	sp, #12
  52:	bdf0      	pop	{r4, r5, r6, r7, pc}
  54:	e9cd 2300 	strd	r2, r3, [sp]
        lui32Col = u32GetCol(lui32Col);
  58:	4621      	mov	r1, r4
  5a:	47b8      	blx	r7
  5c:	e9dd 2300 	ldrd	r2, r3, [sp]
  60:	4604      	mov	r4, r0
  62:	e7e7      	b.n	34 <cScreen_Bpp16_5R6G5B::vLineVAbsRaw(short, short, short, unsigned long)+0x34>
          return 0xFFFF;
  64:	f64f 74ff 	movw	r4, #65535	; 0xffff
  68:	e7e4      	b.n	34 <cScreen_Bpp16_5R6G5B::vLineVAbsRaw(short, short, short, unsigned long)+0x34>
  6a:	bf00      	nop
  6c:	00fffffe 	.word	0x00fffffe
  70:	00000000 	.word	0x00000000	70: R_ARM_ABS32	cScreen_Bpp16_5R6G5B::u32GetCol(unsigned long)

Disassembly of section .text._ZN20cScreen_Bpp16_5R6G5B12vLineHAbsRawEsssm:

00000000 <cScreen_Bpp16_5R6G5B::vLineHAbsRaw(short, short, short, unsigned long)>:
    SCREEN_INLINE void vLineHAbsRaw(GfxInt liGfxX1, GfxInt liGfxX2, GfxInt liGfxY1, uint32 lui32Col)
   0:	e92d 41f0 	stmdb	sp!, {r4, r5, r6, r7, r8, lr}
    if (liGfxV1 > liGfxV2)
   4:	4291      	cmp	r1, r2
   6:	460c      	mov	r4, r1
   8:	4617      	mov	r7, r2
   a:	4680      	mov	r8, r0
   c:	9d06      	ldr	r5, [sp, #24]
   e:	dc01      	bgt.n	14 <cScreen_Bpp16_5R6G5B::vLineHAbsRaw(short, short, short, unsigned long)+0x14>
  10:	460f      	mov	r7, r1
  12:	4614      	mov	r4, r2
        lui32BytePos = u32PxlIdx2ByteIdx(lui32Idx);
  14:	f8d8 2000 	ldr.w	r2, [r8]
        lui32Idx = mpcBm->u32PxlIdx(liGfxX1, liGfxY1);
  18:	f8d8 1014 	ldr.w	r1, [r8, #20]
        lui32BytePos = u32PxlIdx2ByteIdx(lui32Idx);
  1c:	6816      	ldr	r6, [r2, #0]
  1e:	4829      	ldr	r0, [pc, #164]	; (c4 <cScreen_Bpp16_5R6G5B::vLineHAbsRaw(short, short, short, unsigned long)+0xc4>)
  20:	8889      	ldrh	r1, [r1, #4]
  22:	4286      	cmp	r6, r0
  24:	fb13 7101 	smlabb	r1, r3, r1, r7
  28:	d141      	bne.n	ae <cScreen_Bpp16_5R6G5B::vLineHAbsRaw(short, short, short, unsigned long)+0xae>
    SCREEN_INLINE u32 u32PxlIdx2ByteIdx(u32 lui32PxlIdx)  {return (lui32PxlIdx  * 2);};
  2a:	004e      	lsls	r6, r1, #1
        lui32Col = u32GetCol(lui32Col);
  2c:	6953      	ldr	r3, [r2, #20]
  2e:	4a26      	ldr	r2, [pc, #152]	; (c8 <cScreen_Bpp16_5R6G5B::vLineHAbsRaw(short, short, short, unsigned long)+0xc8>)
  30:	4293      	cmp	r3, r2
  32:	d134      	bne.n	9e <cScreen_Bpp16_5R6G5B::vLineHAbsRaw(short, short, short, unsigned long)+0x9e>
      if (lui32Col)
  34:	b38d      	cbz	r5, 9a <cScreen_Bpp16_5R6G5B::vLineHAbsRaw(short, short, short, unsigned long)+0x9a>
        if (lui32Col < BM_BPP32_8R8G8B_RGB(0xFF, 0xFF, 0xFF))
  36:	4b25      	ldr	r3, [pc, #148]	; (cc <cScreen_Bpp16_5R6G5B::vLineHAbsRaw(short, short, short, unsigned long)+0xcc>)
  38:	429d      	cmp	r5, r3
  3a:	d83e      	bhi.n	ba <cScreen_Bpp16_5R6G5B::vLineHAbsRaw(short, short, short, unsigned long)+0xba>
          r = BM_BPP32_8R8G8B_GET_R(lui32Col) >> 3;
  3c:	f3c5 42c4 	ubfx	r2, r5, #19, #5
          g = BM_BPP32_8R8G8B_GET_G(lui32Col) >> 2;
  40:	f3c5 2385 	ubfx	r3, r5, #10, #6
          lui32Col = BM_BPP16_5R6G5B_RGB(r, g, b);
  44:	eb03 1382 	add.w	r3, r3, r2, lsl #6
  48:	015b      	lsls	r3, r3, #5
  4a:	b29b      	uxth	r3, r3
          b = BM_BPP32_8R8G8B_GET_B(lui32Col) >> 3;
  4c:	f3c5 05c4 	ubfx	r5, r5, #3, #5
          lui32Col = BM_BPP16_5R6G5B_RGB(r, g, b);
  50:	441d      	add	r5, r3
  52:	b2a8      	uxth	r0, r5
  54:	eb05 4505 	add.w	r5, r5, r5, lsl #16
        lpui16Data = (uint16*)(mpcBm->mpui8Data + lui32BytePos);
  58:	f8d8 2014 	ldr.w	r2, [r8, #20]
        cMemTools::vMemSet16(lpui16Data, lui32Col, liGfxX2 - liGfxX1 + 1);
  5c:	1be3      	subs	r3, r4, r7
        lpui16Data = (uint16*)(mpcBm->mpui8Data + lui32BytePos);
  5e:	6811      	ldr	r1, [r2, #0]
        cMemTools::vMemSet16(lpui16Data, lui32Col, liGfxX2 - liGfxX1 + 1);
  60:	3301      	adds	r3, #1
      uint32  lui32Value;
      MemTool_uiSize luixCount;

      lui32Value = (lui16Value << 16) + lui16Value;

      if (luixSize > 7)
  62:	2b07      	cmp	r3, #7
        lpui16Data = (uint16*)(mpcBm->mpui8Data + lui32BytePos);
  64:	4431      	add	r1, r6
  66:	d90f      	bls.n	88 <cScreen_Bpp16_5R6G5B::vLineHAbsRaw(short, short, short, unsigned long)+0x88>
      {
        luixCount = luixSize >> 3; // 8Byte Blcke
  68:	08de      	lsrs	r6, r3, #3
  6a:	4634      	mov	r4, r6
        luixSize &= 7;
  6c:	f003 0307 	and.w	r3, r3, #7
  70:	f101 0210 	add.w	r2, r1, #16

        while (luixCount > 0) // 4 * 4 Byte = 16Byte
  74:	3c01      	subs	r4, #1
        {
          *lpui32Dest++ = lui32Value;
          *lpui32Dest++ = lui32Value;
  76:	e942 5504 	strd	r5, r5, [r2, #-16]
          *lpui32Dest++ = lui32Value;
          *lpui32Dest++ = lui32Value;
  7a:	e942 5502 	strd	r5, r5, [r2, #-8]
  7e:	f102 0210 	add.w	r2, r2, #16
        while (luixCount > 0) // 4 * 4 Byte = 16Byte
  82:	d1f7      	bne.n	74 <cScreen_Bpp16_5R6G5B::vLineHAbsRaw(short, short, short, unsigned long)+0x74>
  84:	eb01 1106 	add.w	r1, r1, r6, lsl #4
        }
        lpui16Dest = (uint16*)lpui32Dest;
      }

      // Den Rest byteweise
      while (luixSize > 0)
  88:	b12b      	cbz	r3, 96 <cScreen_Bpp16_5R6G5B::vLineHAbsRaw(short, short, short, unsigned long)+0x96>
  8a:	eb01 0343 	add.w	r3, r1, r3, lsl #1
      {
        *lpui16Dest++ = lui16Value;
  8e:	f821 0b02 	strh.w	r0, [r1], #2
      while (luixSize > 0)
  92:	428b      	cmp	r3, r1
  94:	d1fb      	bne.n	8e <cScreen_Bpp16_5R6G5B::vLineHAbsRaw(short, short, short, unsigned long)+0x8e>
    }
  96:	e8bd 81f0 	ldmia.w	sp!, {r4, r5, r6, r7, r8, pc}
      if (lui32Col)
  9a:	4628      	mov	r0, r5
  9c:	e7dc      	b.n	58 <cScreen_Bpp16_5R6G5B::vLineHAbsRaw(short, short, short, unsigned long)+0x58>
        lui32Col = u32GetCol(lui32Col);
  9e:	4629      	mov	r1, r5
  a0:	4640      	mov	r0, r8
  a2:	4798      	blx	r3
  a4:	b285      	uxth	r5, r0
  a6:	eb05 4505 	add.w	r5, r5, r5, lsl #16
  aa:	b280      	uxth	r0, r0
  ac:	e7d4      	b.n	58 <cScreen_Bpp16_5R6G5B::vLineHAbsRaw(short, short, short, unsigned long)+0x58>
        lui32BytePos = u32PxlIdx2ByteIdx(lui32Idx);
  ae:	4640      	mov	r0, r8
  b0:	47b0      	blx	r6
  b2:	f8d8 2000 	ldr.w	r2, [r8]
  b6:	4606      	mov	r6, r0
  b8:	e7b8      	b.n	2c <cScreen_Bpp16_5R6G5B::vLineHAbsRaw(short, short, short, unsigned long)+0x2c>
        if (lui32Col < BM_BPP32_8R8G8B_RGB(0xFF, 0xFF, 0xFF))
  ba:	f04f 35ff 	mov.w	r5, #4294967295
  be:	f64f 70ff 	movw	r0, #65535	; 0xffff
  c2:	e7c9      	b.n	ffffff96 <mDisplayMemory+0xffffd886>
	...
	c4: R_ARM_ABS32	cScreen_Bpp16_5R6G5B::u32PxlIdx2ByteIdx(unsigned long)
	c8: R_ARM_ABS32	cScreen_Bpp16_5R6G5B::u32GetCol(unsigned long)
  cc:	00fffffe 	.word	0x00fffffe

Disassembly of section .text._ZN20cScreen_Bpp16_5R6G5B5vFillEm:

00000000 <cScreen_Bpp16_5R6G5B::vFill(unsigned long)>:
    SCREEN_INLINE void vFill(u32 lui32Col)
   0:	e92d 4ff8 	stmdb	sp!, {r3, r4, r5, r6, r7, r8, r9, sl, fp, lr}
      u16* lpui16Data = (u16*)&mpcBm->mpui8Data[u32PxlIdx2ByteIdx(mpcBm->u32PxlIdx(miGfxClipPosx1, miGfxClipPosy1))];
   4:	6804      	ldr	r4, [r0, #0]
   6:	6945      	ldr	r5, [r0, #20]
   8:	4b39      	ldr	r3, [pc, #228]	; (f0 <cScreen_Bpp16_5R6G5B::vFill(unsigned long)+0xf0>)
   a:	6826      	ldr	r6, [r4, #0]
   c:	f8b5 e004 	ldrh.w	lr, [r5, #4]
  10:	f9b0 2008 	ldrsh.w	r2, [r0, #8]
  14:	f8b0 c00a 	ldrh.w	ip, [r0, #10]
  18:	682d      	ldr	r5, [r5, #0]
  1a:	429e      	cmp	r6, r3
    SCREEN_INLINE void vFill(u32 lui32Col)
  1c:	4688      	mov	r8, r1
  1e:	4607      	mov	r7, r0
  20:	fb1c 210e 	smlabb	r1, ip, lr, r2
  24:	d15b      	bne.n	de <cScreen_Bpp16_5R6G5B::vFill(unsigned long)+0xde>
    SCREEN_INLINE u32 u32PxlIdx2ByteIdx(u32 lui32PxlIdx)  {return (lui32PxlIdx  * 2);};
  26:	0048      	lsls	r0, r1, #1
      liGfxWidth  = miGfxClipPosx2 - miGfxClipPosx1 + 1;
  28:	89be      	ldrh	r6, [r7, #12]
      lui32Col = u32GetCol(lui32Col);
  2a:	6963      	ldr	r3, [r4, #20]
  2c:	4931      	ldr	r1, [pc, #196]	; (f4 <cScreen_Bpp16_5R6G5B::vFill(unsigned long)+0xf4>)
      liGfxWidth  = miGfxClipPosx2 - miGfxClipPosx1 + 1;
  2e:	3601      	adds	r6, #1
  30:	1ab6      	subs	r6, r6, r2
  32:	428b      	cmp	r3, r1
      u16* lpui16Data = (u16*)&mpcBm->mpui8Data[u32PxlIdx2ByteIdx(mpcBm->u32PxlIdx(miGfxClipPosx1, miGfxClipPosy1))];
  34:	4405      	add	r5, r0
      liGfxWidth  = miGfxClipPosx2 - miGfxClipPosx1 + 1;
  36:	b236      	sxth	r6, r6
  38:	d14c      	bne.n	d4 <cScreen_Bpp16_5R6G5B::vFill(unsigned long)+0xd4>
      if (lui32Col)
  3a:	f1b8 0f00 	cmp.w	r8, #0
  3e:	d00e      	beq.n	5e <cScreen_Bpp16_5R6G5B::vFill(unsigned long)+0x5e>
        if (lui32Col < BM_BPP32_8R8G8B_RGB(0xFF, 0xFF, 0xFF))
  40:	4b2d      	ldr	r3, [pc, #180]	; (f8 <cScreen_Bpp16_5R6G5B::vFill(unsigned long)+0xf8>)
  42:	4598      	cmp	r8, r3
  44:	d850      	bhi.n	e8 <cScreen_Bpp16_5R6G5B::vFill(unsigned long)+0xe8>
          r = BM_BPP32_8R8G8B_GET_R(lui32Col) >> 3;
  46:	f3c8 42c4 	ubfx	r2, r8, #19, #5
          g = BM_BPP32_8R8G8B_GET_G(lui32Col) >> 2;
  4a:	f3c8 2385 	ubfx	r3, r8, #10, #6
          lui32Col = BM_BPP16_5R6G5B_RGB(r, g, b);
  4e:	eb03 1382 	add.w	r3, r3, r2, lsl #6
  52:	015b      	lsls	r3, r3, #5
  54:	b29b      	uxth	r3, r3
          b = BM_BPP32_8R8G8B_GET_B(lui32Col) >> 3;
  56:	f3c8 00c4 	ubfx	r0, r8, #3, #5
          lui32Col = BM_BPP16_5R6G5B_RGB(r, g, b);
  5a:	eb03 0800 	add.w	r8, r3, r0
      for (liGfxY = miGfxClipPosy1; liGfxY <= miGfxClipPosy2; liGfxY++)
  5e:	f9b7 400a 	ldrsh.w	r4, [r7, #10]
  62:	f9b7 a00e 	ldrsh.w	sl, [r7, #14]
  66:	45a2      	cmp	sl, r4
  68:	db22      	blt.n	b0 <cScreen_Bpp16_5R6G5B::vFill(unsigned long)+0xb0>
      lui32Value = (lui16Value << 16) + lui16Value;
  6a:	fa1f f188 	uxth.w	r1, r8
        luixCount = luixSize >> 3; // 8Byte Blcke
  6e:	ea4f 0ed6 	mov.w	lr, r6, lsr #3
  72:	f8d7 c014 	ldr.w	ip, [r7, #20]
  76:	fa1f f088 	uxth.w	r0, r8
      lui32Value = (lui16Value << 16) + lui16Value;
  7a:	eb01 4101 	add.w	r1, r1, r1, lsl #16
  7e:	ea4f 190e 	mov.w	r9, lr, lsl #4
        luixSize &= 7;
  82:	f006 0807 	and.w	r8, r6, #7
      if (luixSize > 7)
  86:	2e07      	cmp	r6, #7
  88:	d814      	bhi.n	b4 <cScreen_Bpp16_5R6G5B::vFill(unsigned long)+0xb4>
  8a:	4632      	mov	r2, r6
  8c:	462b      	mov	r3, r5
      while (luixSize > 0)
  8e:	b13a      	cbz	r2, a0 <cScreen_Bpp16_5R6G5B::vFill(unsigned long)+0xa0>
  90:	eb03 0242 	add.w	r2, r3, r2, lsl #1
        *lpui16Dest++ = lui16Value;
  94:	f823 0b02 	strh.w	r0, [r3], #2
      while (luixSize > 0)
  98:	4293      	cmp	r3, r2
  9a:	d1fb      	bne.n	94 <cScreen_Bpp16_5R6G5B::vFill(unsigned long)+0x94>
  9c:	f9b7 a00e 	ldrsh.w	sl, [r7, #14]
        lpui16Data += mpcBm->miGfxWidth;
  a0:	f9bc 3004 	ldrsh.w	r3, [ip, #4]
  a4:	3401      	adds	r4, #1
  a6:	b224      	sxth	r4, r4
      for (liGfxY = miGfxClipPosy1; liGfxY <= miGfxClipPosy2; liGfxY++)
  a8:	45a2      	cmp	sl, r4
        lpui16Data += mpcBm->miGfxWidth;
  aa:	eb05 0543 	add.w	r5, r5, r3, lsl #1
      for (liGfxY = miGfxClipPosy1; liGfxY <= miGfxClipPosy2; liGfxY++)
  ae:	daea      	bge.n	86 <cScreen_Bpp16_5R6G5B::vFill(unsigned long)+0x86>
    }
  b0:	e8bd 8ff8 	ldmia.w	sp!, {r3, r4, r5, r6, r7, r8, r9, sl, fp, pc}
        luixSize &= 7;
  b4:	4642      	mov	r2, r8
  b6:	f105 0310 	add.w	r3, r5, #16
        luixCount = luixSize >> 3; // 8Byte Blcke
  ba:	46f3      	mov	fp, lr
        while (luixCount > 0) // 4 * 4 Byte = 16Byte
  bc:	f1bb 0b01 	subs.w	fp, fp, #1
          *lpui32Dest++ = lui32Value;
  c0:	e943 1104 	strd	r1, r1, [r3, #-16]
          *lpui32Dest++ = lui32Value;
  c4:	e943 1102 	strd	r1, r1, [r3, #-8]
  c8:	f103 0310 	add.w	r3, r3, #16
        while (luixCount > 0) // 4 * 4 Byte = 16Byte
  cc:	d1f6      	bne.n	bc <cScreen_Bpp16_5R6G5B::vFill(unsigned long)+0xbc>
  ce:	eb05 0309 	add.w	r3, r5, r9
  d2:	e7dc      	b.n	8e <cScreen_Bpp16_5R6G5B::vFill(unsigned long)+0x8e>
      lui32Col = u32GetCol(lui32Col);
  d4:	4641      	mov	r1, r8
  d6:	4638      	mov	r0, r7
  d8:	4798      	blx	r3
  da:	4680      	mov	r8, r0
  dc:	e7bf      	b.n	5e <cScreen_Bpp16_5R6G5B::vFill(unsigned long)+0x5e>
      u16* lpui16Data = (u16*)&mpcBm->mpui8Data[u32PxlIdx2ByteIdx(mpcBm->u32PxlIdx(miGfxClipPosx1, miGfxClipPosy1))];
  de:	47b0      	blx	r6
  e0:	f9b7 2008 	ldrsh.w	r2, [r7, #8]
  e4:	683c      	ldr	r4, [r7, #0]
  e6:	e79f      	b.n	28 <cScreen_Bpp16_5R6G5B::vFill(unsigned long)+0x28>
          return 0xFFFF;
  e8:	f64f 78ff 	movw	r8, #65535	; 0xffff
  ec:	e7b7      	b.n	5e <cScreen_Bpp16_5R6G5B::vFill(unsigned long)+0x5e>
  ee:	bf00      	nop
	...
	f0: R_ARM_ABS32	cScreen_Bpp16_5R6G5B::u32PxlIdx2ByteIdx(unsigned long)
	f4: R_ARM_ABS32	cScreen_Bpp16_5R6G5B::u32GetCol(unsigned long)
  f8:	00fffffe 	.word	0x00fffffe

Disassembly of section .text._ZN20cScreen_Bpp16_5R6G5B11vLineAbsRawEssssm:

00000000 <cScreen_Bpp16_5R6G5B::vLineAbsRaw(short, short, short, short, unsigned long)>:

    // Zeichnet eine Linie 
    void vLineAbsRaw(GfxInt liGfxX1, GfxInt liGfxY1,
   0:	e92d 4ff0 	stmdb	sp!, {r4, r5, r6, r7, r8, r9, sl, fp, lr}
      GfxInt liGfxXd, liGfxDx, liGfxDy;
      GfxInt liGfxAIncr, liGfxBIncr;
      GfxInt liGfxXIncr, liGfxYIncr;
      GfxInt liGfxx, liGfxy, liGfxDummy;

      lui32Col = u32GetCol(lui32Col);
   4:	6804      	ldr	r4, [r0, #0]
   6:	4f78      	ldr	r7, [pc, #480]	; (1e8 <cScreen_Bpp16_5R6G5B::vLineAbsRaw(short, short, short, short, unsigned long)+0x1e8>)
   8:	6966      	ldr	r6, [r4, #20]
    void vLineAbsRaw(GfxInt liGfxX1, GfxInt liGfxY1,
   a:	b085      	sub	sp, #20
   c:	42be      	cmp	r6, r7
   e:	4605      	mov	r5, r0
  10:	f9bd 9038 	ldrsh.w	r9, [sp, #56]	; 0x38
  14:	9c0f      	ldr	r4, [sp, #60]	; 0x3c
  16:	4688      	mov	r8, r1
  18:	f040 80d8 	bne.w	1cc <cScreen_Bpp16_5R6G5B::vLineAbsRaw(short, short, short, short, unsigned long)+0x1cc>
      if (lui32Col)
  1c:	2c00      	cmp	r4, #0
  1e:	f000 8083 	beq.w	128 <cScreen_Bpp16_5R6G5B::vLineAbsRaw(short, short, short, short, unsigned long)+0x128>
        if (lui32Col < BM_BPP32_8R8G8B_RGB(0xFF, 0xFF, 0xFF))
  22:	4972      	ldr	r1, [pc, #456]	; (1ec <cScreen_Bpp16_5R6G5B::vLineAbsRaw(short, short, short, short, unsigned long)+0x1ec>)
  24:	428c      	cmp	r4, r1
  26:	f200 80da 	bhi.w	1de <cScreen_Bpp16_5R6G5B::vLineAbsRaw(short, short, short, short, unsigned long)+0x1de>
          g = BM_BPP32_8R8G8B_GET_G(lui32Col) >> 2;
  2a:	f3c4 2085 	ubfx	r0, r4, #10, #6
          r = BM_BPP32_8R8G8B_GET_R(lui32Col) >> 3;
  2e:	f3c4 41c4 	ubfx	r1, r4, #19, #5
          lui32Col = BM_BPP16_5R6G5B_RGB(r, g, b);
  32:	eb00 1181 	add.w	r1, r0, r1, lsl #6
          b = BM_BPP32_8R8G8B_GET_B(lui32Col) >> 3;
  36:	f3c4 00c4 	ubfx	r0, r4, #3, #5
          lui32Col = BM_BPP16_5R6G5B_RGB(r, g, b);
  3a:	eb00 1041 	add.w	r0, r0, r1, lsl #5
  3e:	b281      	uxth	r1, r0
  40:	9102      	str	r1, [sp, #8]

      if ((mpcBm->iGfxAbs(liGfxX2 - liGfxX1) < mpcBm->iGfxAbs(liGfxY2 - liGfxY1)))
  42:	fa1f fb83 	uxth.w	fp, r3
  46:	fa1f f788 	uxth.w	r7, r8
  4a:	ebab 0407 	sub.w	r4, fp, r7
  4e:	b2a4      	uxth	r4, r4
  50:	fa0f fc84 	sxth.w	ip, r4
    BM_INLINE u32    u32Size()                                       {return ((uint32)(miGfxWidth * miGfxHeight));};
    BM_INLINE u8*    pu8Data()                                       {return (mpui8Data);};
    BM_INLINE i8     i8Clone(cBitmap lcBm)                           {return lcBm.i8Create(miGfxWidth, miGfxHeight, mui8Type);};
    BM_INLINE GfxInt iGfxAbs(GfxInt  liGfxV)                         {if (liGfxV < 0) return -liGfxV; else return liGfxV;};
  54:	f1bc 0f00 	cmp.w	ip, #0
  58:	6969      	ldr	r1, [r5, #20]
  5a:	bfaf      	iteee	ge
  5c:	f8cd c004 	strge.w	ip, [sp, #4]
  60:	4265      	neglt	r5, r4
  62:	b228      	sxthlt	r0, r5
  64:	9001      	strlt	r0, [sp, #4]
  66:	b296      	uxth	r6, r2
  68:	fa1f f089 	uxth.w	r0, r9
  6c:	1b85      	subs	r5, r0, r6
  6e:	b2ad      	uxth	r5, r5
  70:	fa0f fe85 	sxth.w	lr, r5
  74:	f1be 0f00 	cmp.w	lr, #0
  78:	9003      	str	r0, [sp, #12]
  7a:	bfba      	itte	lt
  7c:	4268      	neglt	r0, r5
  7e:	b200      	sxthlt	r0, r0
  80:	4670      	movge	r0, lr
  82:	4682      	mov	sl, r0
  84:	9801      	ldr	r0, [sp, #4]
  86:	4582      	cmp	sl, r0
  88:	dd50      	ble.n	12c <cScreen_Bpp16_5R6G5B::vLineAbsRaw(short, short, short, short, unsigned long)+0x12c>
      {
        if (liGfxY1 > liGfxY2)
  8a:	4591      	cmp	r9, r2
  8c:	da10      	bge.n	b0 <cScreen_Bpp16_5R6G5B::vLineAbsRaw(short, short, short, short, unsigned long)+0xb0>
  8e:	9803      	ldr	r0, [sp, #12]
  90:	eba7 040b 	sub.w	r4, r7, fp
  94:	1a35      	subs	r5, r6, r0
  96:	4617      	mov	r7, r2
  98:	4646      	mov	r6, r8
  9a:	b2ad      	uxth	r5, r5
  9c:	b2a4      	uxth	r4, r4
  9e:	464a      	mov	r2, r9
  a0:	4698      	mov	r8, r3
  a2:	46b9      	mov	r9, r7
  a4:	4633      	mov	r3, r6
  a6:	fa0f fc84 	sxth.w	ip, r4
  aa:	4606      	mov	r6, r0
  ac:	fa0f fe85 	sxth.w	lr, r5
          liGfxDummy = liGfxY1;
          liGfxY1 = liGfxY2;
          liGfxY2 = liGfxDummy;
        }

        if (liGfxX2 > liGfxX1) liGfxXIncr = 1;
  b0:	4598      	cmp	r8, r3
  b2:	bfac      	ite	ge
  b4:	f04f 33ff 	movge.w	r3, #4294967295
  b8:	2301      	movlt	r3, #1
  ba:	f1bc 0f00 	cmp.w	ip, #0
  be:	bfbc      	itt	lt
  c0:	4264      	neglt	r4, r4
  c2:	fa0f fc84 	sxthlt.w	ip, r4
    BM_INLINE u32    u32PxlIdx(GfxInt liGfxX, GfxInt liGfxY)         {return ((uint32)((liGfxY) * miGfxWidth + (liGfxX)));};
  c6:	888f      	ldrh	r7, [r1, #4]
      u16* lpui16Data = (u16*)mpui8Data;
  c8:	680c      	ldr	r4, [r1, #0]
      lpui16Data[u32PxlIdx(liGfxX, liGfxY)] = lui16Col;
  ca:	9802      	ldr	r0, [sp, #8]
        else liGfxXIncr = -1;

        liGfxDy = liGfxY2 - liGfxY1;
        liGfxDx = mpcBm->iGfxAbs(liGfxX2 - liGfxX1);
        liGfxXd = 2 * liGfxDx - liGfxDy;
        liGfxAIncr = 2 * (liGfxDx - liGfxDy);
  cc:	ebac 0e0e 	sub.w	lr, ip, lr
        liGfxx = liGfxX1;
        liGfxy = liGfxY1;

        SCREEN_BPP16_5R6G5B_PP(liGfxx, liGfxy, mpcBm, lui32Col);

        for (liGfxy = liGfxY1 + 1; liGfxy <= liGfxY2; liGfxy++)
  d0:	3601      	adds	r6, #1
        liGfxXd = 2 * liGfxDx - liGfxDy;
  d2:	ea4f 0c4c 	mov.w	ip, ip, lsl #1
  d6:	fb12 8207 	smlabb	r2, r2, r7, r8
  da:	fa1f fc8c 	uxth.w	ip, ip
        for (liGfxy = liGfxY1 + 1; liGfxy <= liGfxY2; liGfxy++)
  de:	b236      	sxth	r6, r6
        liGfxXd = 2 * liGfxDx - liGfxDy;
  e0:	ebac 0505 	sub.w	r5, ip, r5
        liGfxAIncr = 2 * (liGfxDx - liGfxDy);
  e4:	ea4f 0e4e 	mov.w	lr, lr, lsl #1
        for (liGfxy = liGfxY1 + 1; liGfxy <= liGfxY2; liGfxy++)
  e8:	45b1      	cmp	r9, r6
        liGfxXd = 2 * liGfxDx - liGfxDy;
  ea:	b22f      	sxth	r7, r5
        liGfxAIncr = 2 * (liGfxDx - liGfxDy);
  ec:	fa1f fe8e 	uxth.w	lr, lr
  f0:	f824 0012 	strh.w	r0, [r4, r2, lsl #1]
        for (liGfxy = liGfxY1 + 1; liGfxy <= liGfxY2; liGfxy++)
  f4:	db15      	blt.n	122 <cScreen_Bpp16_5R6G5B::vLineAbsRaw(short, short, short, short, unsigned long)+0x122>
        {
          if (liGfxXd >= 0)
  f6:	2f00      	cmp	r7, #0
  f8:	b2ba      	uxth	r2, r7
          {
            liGfxx += liGfxXIncr;
            liGfxXd += liGfxAIncr;
  fa:	eb0e 0702 	add.w	r7, lr, r2
            liGfxx += liGfxXIncr;
  fe:	eb08 0503 	add.w	r5, r8, r3
          }
          else liGfxXd += liGfxBIncr;
 102:	bfb8      	it	lt
 104:	eb0c 0702 	addlt.w	r7, ip, r2
 108:	888a      	ldrh	r2, [r1, #4]
            liGfxx += liGfxXIncr;
 10a:	bfa8      	it	ge
 10c:	fa0f f885 	sxthge.w	r8, r5
 110:	fb16 8202 	smlabb	r2, r6, r2, r8
 114:	3601      	adds	r6, #1
 116:	b236      	sxth	r6, r6
        for (liGfxy = liGfxY1 + 1; liGfxy <= liGfxY2; liGfxy++)
 118:	45b1      	cmp	r9, r6
          else liGfxXd += liGfxBIncr;
 11a:	b23f      	sxth	r7, r7
 11c:	f824 0012 	strh.w	r0, [r4, r2, lsl #1]
        for (liGfxy = liGfxY1 + 1; liGfxy <= liGfxY2; liGfxy++)
 120:	dae9      	bge.n	f6 <cScreen_Bpp16_5R6G5B::vLineAbsRaw(short, short, short, short, unsigned long)+0xf6>
          else liGfxXd += liGfxBIncr;

          SCREEN_BPP16_5R6G5B_PP(liGfxx, liGfxy, mpcBm, lui32Col);
        }
      }
    }
 122:	b005      	add	sp, #20
 124:	e8bd 8ff0 	ldmia.w	sp!, {r4, r5, r6, r7, r8, r9, sl, fp, pc}
      if (lui32Col)
 128:	9402      	str	r4, [sp, #8]
 12a:	e78a      	b.n	42 <cScreen_Bpp16_5R6G5B::vLineAbsRaw(short, short, short, short, unsigned long)+0x42>
        if (liGfxX1 > liGfxX2)
 12c:	4543      	cmp	r3, r8
 12e:	da10      	bge.n	152 <cScreen_Bpp16_5R6G5B::vLineAbsRaw(short, short, short, short, unsigned long)+0x152>
 130:	9803      	ldr	r0, [sp, #12]
 132:	eba7 040b 	sub.w	r4, r7, fp
 136:	1a35      	subs	r5, r6, r0
 138:	4617      	mov	r7, r2
 13a:	4646      	mov	r6, r8
 13c:	b2a4      	uxth	r4, r4
 13e:	b2ad      	uxth	r5, r5
 140:	464a      	mov	r2, r9
 142:	4698      	mov	r8, r3
 144:	46b9      	mov	r9, r7
 146:	4633      	mov	r3, r6
 148:	465f      	mov	r7, fp
 14a:	fa0f fe85 	sxth.w	lr, r5
 14e:	fa0f fc84 	sxth.w	ip, r4
        if (liGfxY2 > liGfxY1) liGfxYIncr = 1;
 152:	454a      	cmp	r2, r9
 154:	bfac      	ite	ge
 156:	f04f 39ff 	movge.w	r9, #4294967295
 15a:	f04f 0901 	movlt.w	r9, #1
    BM_INLINE GfxInt iGfxAbs(GfxInt  liGfxV)                         {if (liGfxV < 0) return -liGfxV; else return liGfxV;};
 15e:	f1be 0f00 	cmp.w	lr, #0
 162:	bfbc      	itt	lt
 164:	426d      	neglt	r5, r5
 166:	fa0f fe85 	sxthlt.w	lr, r5
    BM_INLINE u32    u32PxlIdx(GfxInt liGfxX, GfxInt liGfxY)         {return ((uint32)((liGfxY) * miGfxWidth + (liGfxX)));};
 16a:	888e      	ldrh	r6, [r1, #4]
      u16* lpui16Data = (u16*)mpui8Data;
 16c:	680d      	ldr	r5, [r1, #0]
      lpui16Data[u32PxlIdx(liGfxX, liGfxY)] = lui16Col;
 16e:	9802      	ldr	r0, [sp, #8]
        liGfxAIncr = 2 * (liGfxDy - liGfxDx);
 170:	ebae 0c0c 	sub.w	ip, lr, ip
        for (liGfxx = liGfxX1 + 1; liGfxx <= liGfxX2; liGfxx++)
 174:	3701      	adds	r7, #1
        liGfxXd = 2 * liGfxDy - liGfxDx;
 176:	ea4f 0e4e 	mov.w	lr, lr, lsl #1
 17a:	fb12 8806 	smlabb	r8, r2, r6, r8
 17e:	fa1f fe8e 	uxth.w	lr, lr
        for (liGfxx = liGfxX1 + 1; liGfxx <= liGfxX2; liGfxx++)
 182:	b23f      	sxth	r7, r7
        liGfxXd = 2 * liGfxDy - liGfxDx;
 184:	ebae 0404 	sub.w	r4, lr, r4
        liGfxAIncr = 2 * (liGfxDy - liGfxDx);
 188:	ea4f 0c4c 	mov.w	ip, ip, lsl #1
        for (liGfxx = liGfxX1 + 1; liGfxx <= liGfxX2; liGfxx++)
 18c:	42bb      	cmp	r3, r7
        liGfxXd = 2 * liGfxDy - liGfxDx;
 18e:	b226      	sxth	r6, r4
        liGfxAIncr = 2 * (liGfxDy - liGfxDx);
 190:	fa1f fc8c 	uxth.w	ip, ip
 194:	f825 0018 	strh.w	r0, [r5, r8, lsl #1]
        for (liGfxx = liGfxX1 + 1; liGfxx <= liGfxX2; liGfxx++)
 198:	dbc3      	blt.n	122 <cScreen_Bpp16_5R6G5B::vLineAbsRaw(short, short, short, short, unsigned long)+0x122>
          if (liGfxXd >= 0)
 19a:	2e00      	cmp	r6, #0
 19c:	b2b4      	uxth	r4, r6
            liGfxXd += liGfxAIncr;
 19e:	eb0c 0604 	add.w	r6, ip, r4
            liGfxy += liGfxYIncr;
 1a2:	eb02 0809 	add.w	r8, r2, r9
          else liGfxXd += liGfxBIncr;
 1a6:	bfb8      	it	lt
 1a8:	eb0e 0604 	addlt.w	r6, lr, r4
 1ac:	888c      	ldrh	r4, [r1, #4]
            liGfxy += liGfxYIncr;
 1ae:	bfa8      	it	ge
 1b0:	fa0f f288 	sxthge.w	r2, r8
 1b4:	fb12 7404 	smlabb	r4, r2, r4, r7
 1b8:	3701      	adds	r7, #1
 1ba:	b23f      	sxth	r7, r7
        for (liGfxx = liGfxX1 + 1; liGfxx <= liGfxX2; liGfxx++)
 1bc:	42bb      	cmp	r3, r7
          else liGfxXd += liGfxBIncr;
 1be:	b236      	sxth	r6, r6
 1c0:	f825 0014 	strh.w	r0, [r5, r4, lsl #1]
        for (liGfxx = liGfxX1 + 1; liGfxx <= liGfxX2; liGfxx++)
 1c4:	dae9      	bge.n	19a <cScreen_Bpp16_5R6G5B::vLineAbsRaw(short, short, short, short, unsigned long)+0x19a>
    }
 1c6:	b005      	add	sp, #20
 1c8:	e8bd 8ff0 	ldmia.w	sp!, {r4, r5, r6, r7, r8, r9, sl, fp, pc}
 1cc:	9303      	str	r3, [sp, #12]
 1ce:	9201      	str	r2, [sp, #4]
      lui32Col = u32GetCol(lui32Col);
 1d0:	4621      	mov	r1, r4
 1d2:	47b0      	blx	r6
 1d4:	b283      	uxth	r3, r0
 1d6:	9302      	str	r3, [sp, #8]
 1d8:	9a01      	ldr	r2, [sp, #4]
 1da:	9b03      	ldr	r3, [sp, #12]
 1dc:	e731      	b.n	42 <cScreen_Bpp16_5R6G5B::vLineAbsRaw(short, short, short, short, unsigned long)+0x42>
        if (lui32Col < BM_BPP32_8R8G8B_RGB(0xFF, 0xFF, 0xFF))
 1de:	f64f 71ff 	movw	r1, #65535	; 0xffff
 1e2:	9102      	str	r1, [sp, #8]
 1e4:	e72d      	b.n	42 <cScreen_Bpp16_5R6G5B::vLineAbsRaw(short, short, short, short, unsigned long)+0x42>
 1e6:	bf00      	nop
 1e8:	00000000 	.word	0x00000000	1e8: R_ARM_ABS32	cScreen_Bpp16_5R6G5B::u32GetCol(unsigned long)
 1ec:	00fffffe 	.word	0x00fffffe

Disassembly of section .text._ZN20cScreen_Bpp16_5R6G5B12vLineHAbsRawEsssmm:

00000000 <cScreen_Bpp16_5R6G5B::vLineHAbsRaw(short, short, short, unsigned long, unsigned long)>:
    SCREEN_INLINE void vLineHAbsRaw(GfxInt liGfxX1, GfxInt liGfxX2, GfxInt liGfxY1, uint32 lui32Col1, uint32 lui32Col2)
   0:	e92d 4ff0 	stmdb	sp!, {r4, r5, r6, r7, r8, r9, sl, fp, lr}
   4:	b089      	sub	sp, #36	; 0x24
   6:	e9dd 5c12 	ldrd	r5, ip, [sp, #72]	; 0x48
        if (lui32Col1 == lui32Col2)
   a:	4565      	cmp	r5, ip
    SCREEN_INLINE void vLineHAbsRaw(GfxInt liGfxX1, GfxInt liGfxX2, GfxInt liGfxY1, uint32 lui32Col1, uint32 lui32Col2)
   c:	4604      	mov	r4, r0
   e:	460f      	mov	r7, r1
  10:	4616      	mov	r6, r2
  12:	469e      	mov	lr, r3
        if (lui32Col1 == lui32Col2)
  14:	d074      	beq.n	100 <cScreen_Bpp16_5R6G5B::vLineHAbsRaw(short, short, short, unsigned long, unsigned long)+0x100>
  16:	4291      	cmp	r1, r2
  18:	dd6f      	ble.n	fa <cScreen_Bpp16_5R6G5B::vLineHAbsRaw(short, short, short, unsigned long, unsigned long)+0xfa>
          r1 = BM_BPP32_8R8G8B_GET_R(lui32Col1) >> 3;
  1a:	f3c5 4ac4 	ubfx	sl, r5, #19, #5
          g1 = BM_BPP32_8R8G8B_GET_G(lui32Col1) >> 2;
  1e:	f3c5 2285 	ubfx	r2, r5, #10, #6
          r2 = BM_BPP32_8R8G8B_GET_R(lui32Col2) >> 3;
  22:	f3cc 43c4 	ubfx	r3, ip, #19, #5
          g2 = BM_BPP32_8R8G8B_GET_G(lui32Col2) >> 2;
  26:	f3cc 2085 	ubfx	r0, ip, #10, #6
          b1 = BM_BPP32_8R8G8B_GET_B(lui32Col1) >> 3;
  2a:	f3c5 05c4 	ubfx	r5, r5, #3, #5
          r_inc = ((r2 - r1) * 65536) / ((liGfxX2 - liGfxX1) + 1);
  2e:	eba3 030a 	sub.w	r3, r3, sl
          b2 = BM_BPP32_8R8G8B_GET_B(lui32Col2) >> 3;
  32:	f3cc 0cc4 	ubfx	ip, ip, #3, #5
          r_inc = ((r2 - r1) * 65536) / ((liGfxX2 - liGfxX1) + 1);
  36:	1bb9      	subs	r1, r7, r6
          g_inc = ((g2 - g1) * 65536) / ((liGfxX2 - liGfxX1) + 1);
  38:	1a80      	subs	r0, r0, r2
          r_inc = ((r2 - r1) * 65536) / ((liGfxX2 - liGfxX1) + 1);
  3a:	3101      	adds	r1, #1
          b_inc = ((b2 - b1) * 65536) / ((liGfxX2 - liGfxX1) + 1);
  3c:	ebac 0c05 	sub.w	ip, ip, r5
          r_inc = ((r2 - r1) * 65536) / ((liGfxX2 - liGfxX1) + 1);
  40:	041b      	lsls	r3, r3, #16
          g_inc = ((g2 - g1) * 65536) / ((liGfxX2 - liGfxX1) + 1);
  42:	0400      	lsls	r0, r0, #16
          r_inc = ((r2 - r1) * 65536) / ((liGfxX2 - liGfxX1) + 1);
  44:	fb93 f3f1 	sdiv	r3, r3, r1
  48:	9303      	str	r3, [sp, #12]
          g_inc = ((g2 - g1) * 65536) / ((liGfxX2 - liGfxX1) + 1);
  4a:	fb90 f3f1 	sdiv	r3, r0, r1
  4e:	9304      	str	r3, [sp, #16]
          g1 = BM_BPP32_8R8G8B_GET_G(lui32Col1) >> 2;
  50:	b2d3      	uxtb	r3, r2
          b_inc = ((b2 - b1) * 65536) / ((liGfxX2 - liGfxX1) + 1);
  52:	ea4f 4c0c 	mov.w	ip, ip, lsl #16
          g1 = BM_BPP32_8R8G8B_GET_G(lui32Col1) >> 2;
  56:	9301      	str	r3, [sp, #4]
          while (liGfxX1 <= liGfxX2)
  58:	42be      	cmp	r6, r7
          b_inc = ((b2 - b1) * 65536) / ((liGfxX2 - liGfxX1) + 1);
  5a:	fb9c f3f1 	sdiv	r3, ip, r1
  5e:	9305      	str	r3, [sp, #20]
          b1 = BM_BPP32_8R8G8B_GET_B(lui32Col1) >> 3;
  60:	b2eb      	uxtb	r3, r5
          r1 = BM_BPP32_8R8G8B_GET_R(lui32Col1) >> 3;
  62:	fa5f fa8a 	uxtb.w	sl, sl
          b1 = BM_BPP32_8R8G8B_GET_B(lui32Col1) >> 3;
  66:	9302      	str	r3, [sp, #8]
          while (liGfxX1 <= liGfxX2)
  68:	dc44      	bgt.n	f4 <cScreen_Bpp16_5R6G5B::vLineHAbsRaw(short, short, short, unsigned long, unsigned long)+0xf4>
            SCREEN_BPP16_5R6G5B_PP(liGfxX1, liGfxY1, mpcBm, BM_BPP16_5R6G5B_RGB(r, g, b));
  6a:	f8d4 b014 	ldr.w	fp, [r4, #20]
  6e:	9607      	str	r6, [sp, #28]
      u16* lpui16Data = (u16*)mpui8Data;
  70:	f8db 3000 	ldr.w	r3, [fp]
  74:	9306      	str	r3, [sp, #24]
  76:	4635      	mov	r5, r6
            r = r1 + (temp >> 16);
  78:	4654      	mov	r4, sl
            temp = liGfxPos * r_inc;
  7a:	2100      	movs	r1, #0
  7c:	e004      	b.n	88 <cScreen_Bpp16_5R6G5B::vLineHAbsRaw(short, short, short, unsigned long, unsigned long)+0x88>
            if (temp & 0x8000) r++;
  7e:	f418 4f00 	tst.w	r8, #32768	; 0x8000
  82:	bf1c      	itt	ne
  84:	3401      	addne	r4, #1
  86:	b2e4      	uxtbne	r4, r4
            temp = liGfxPos * g_inc;
  88:	9b04      	ldr	r3, [sp, #16]
            temp = liGfxPos * r_inc;
  8a:	9e03      	ldr	r6, [sp, #12]
            temp = liGfxPos * g_inc;
  8c:	fb01 f803 	mul.w	r8, r1, r3
            temp = liGfxPos * b_inc;
  90:	9b05      	ldr	r3, [sp, #20]
  92:	fb01 fc03 	mul.w	ip, r1, r3
            g = g1 + (temp >> 16);
  96:	9b01      	ldr	r3, [sp, #4]
  98:	9907      	ldr	r1, [sp, #28]
  9a:	eb03 4228 	add.w	r2, r3, r8, asr #16
            b = b1 + (temp >> 16);
  9e:	9b02      	ldr	r3, [sp, #8]
            if (temp & 0x8000) g++;
  a0:	f418 4f00 	tst.w	r8, #32768	; 0x8000
            g = g1 + (temp >> 16);
  a4:	b2d2      	uxtb	r2, r2
            if (temp & 0x8000) g++;
  a6:	bf18      	it	ne
  a8:	3201      	addne	r2, #1
  aa:	f105 0001 	add.w	r0, r5, #1
            b = b1 + (temp >> 16);
  ae:	eb03 432c 	add.w	r3, r3, ip, asr #16
  b2:	b2db      	uxtb	r3, r3
  b4:	b280      	uxth	r0, r0
            if (temp & 0x8000) g++;
  b6:	bf18      	it	ne
  b8:	b2d2      	uxtbne	r2, r2
            if (temp & 0x8000) b++;
  ba:	f41c 4f00 	tst.w	ip, #32768	; 0x8000
  be:	bf18      	it	ne
  c0:	3301      	addne	r3, #1
  c2:	f8bb c004 	ldrh.w	ip, [fp, #4]
  c6:	eba0 0101 	sub.w	r1, r0, r1
  ca:	bf18      	it	ne
  cc:	b2db      	uxtbne	r3, r3
            SCREEN_BPP16_5R6G5B_PP(liGfxX1, liGfxY1, mpcBm, BM_BPP16_5R6G5B_RGB(r, g, b));
  ce:	eb02 1284 	add.w	r2, r2, r4, lsl #6
  d2:	b209      	sxth	r1, r1
  d4:	fb1c 5c0e 	smlabb	ip, ip, lr, r5
  d8:	eb03 1242 	add.w	r2, r3, r2, lsl #5
            temp = liGfxPos * r_inc;
  dc:	fb06 f801 	mul.w	r8, r6, r1
  e0:	b205      	sxth	r5, r0
      lpui16Data[u32PxlIdx(liGfxX, liGfxY)] = lui16Col;
  e2:	9b06      	ldr	r3, [sp, #24]
            r = r1 + (temp >> 16);
  e4:	eb0a 4928 	add.w	r9, sl, r8, asr #16
          while (liGfxX1 <= liGfxX2)
  e8:	42af      	cmp	r7, r5
            r = r1 + (temp >> 16);
  ea:	fa5f f489 	uxtb.w	r4, r9
  ee:	f823 201c 	strh.w	r2, [r3, ip, lsl #1]
          while (liGfxX1 <= liGfxX2)
  f2:	dac4      	bge.n	7e <cScreen_Bpp16_5R6G5B::vLineHAbsRaw(short, short, short, unsigned long, unsigned long)+0x7e>
    }
  f4:	b009      	add	sp, #36	; 0x24
  f6:	e8bd 8ff0 	ldmia.w	sp!, {r4, r5, r6, r7, r8, r9, sl, fp, pc}
  fa:	460e      	mov	r6, r1
  fc:	4617      	mov	r7, r2
  fe:	e78c      	b.n	1a <cScreen_Bpp16_5R6G5B::vLineHAbsRaw(short, short, short, unsigned long, unsigned long)+0x1a>
          vLineHAbsRaw(liGfxX1, liGfxX2, liGfxY1, lui32Col1);
 100:	f8d0 c000 	ldr.w	ip, [r0]
 104:	f8df 90d8 	ldr.w	r9, [pc, #216]	; 1e0 <cScreen_Bpp16_5R6G5B::vLineHAbsRaw(short, short, short, unsigned long, unsigned long)+0x1e0>
 108:	f8dc 8018 	ldr.w	r8, [ip, #24]
 10c:	45c8      	cmp	r8, r9
 10e:	d149      	bne.n	1a4 <cScreen_Bpp16_5R6G5B::vLineHAbsRaw(short, short, short, unsigned long, unsigned long)+0x1a4>
 110:	4291      	cmp	r1, r2
 112:	dc01      	bgt.n	118 <cScreen_Bpp16_5R6G5B::vLineHAbsRaw(short, short, short, unsigned long, unsigned long)+0x118>
 114:	460e      	mov	r6, r1
 116:	4617      	mov	r7, r2
        lui32Idx = mpcBm->u32PxlIdx(liGfxX1, liGfxY1);
 118:	6962      	ldr	r2, [r4, #20]
        lui32BytePos = u32PxlIdx2ByteIdx(lui32Idx);
 11a:	f8dc 3000 	ldr.w	r3, [ip]
 11e:	8891      	ldrh	r1, [r2, #4]
 120:	4a2c      	ldr	r2, [pc, #176]	; (1d4 <cScreen_Bpp16_5R6G5B::vLineHAbsRaw(short, short, short, unsigned long, unsigned long)+0x1d4>)
 122:	4293      	cmp	r3, r2
 124:	fb1e 6101 	smlabb	r1, lr, r1, r6
 128:	d149      	bne.n	1be <cScreen_Bpp16_5R6G5B::vLineHAbsRaw(short, short, short, unsigned long, unsigned long)+0x1be>
    SCREEN_INLINE u32 u32PxlIdx2ByteIdx(u32 lui32PxlIdx)  {return (lui32PxlIdx  * 2);};
 12a:	ea4f 0841 	mov.w	r8, r1, lsl #1
        lui32Col = u32GetCol(lui32Col);
 12e:	f8dc 3014 	ldr.w	r3, [ip, #20]
 132:	4a29      	ldr	r2, [pc, #164]	; (1d8 <cScreen_Bpp16_5R6G5B::vLineHAbsRaw(short, short, short, unsigned long, unsigned long)+0x1d8>)
 134:	4293      	cmp	r3, r2
 136:	d13a      	bne.n	1ae <cScreen_Bpp16_5R6G5B::vLineHAbsRaw(short, short, short, unsigned long, unsigned long)+0x1ae>
      if (lui32Col)
 138:	b395      	cbz	r5, 1a0 <cScreen_Bpp16_5R6G5B::vLineHAbsRaw(short, short, short, unsigned long, unsigned long)+0x1a0>
        if (lui32Col < BM_BPP32_8R8G8B_RGB(0xFF, 0xFF, 0xFF))
 13a:	4b28      	ldr	r3, [pc, #160]	; (1dc <cScreen_Bpp16_5R6G5B::vLineHAbsRaw(short, short, short, unsigned long, unsigned long)+0x1dc>)
 13c:	429d      	cmp	r5, r3
 13e:	d844      	bhi.n	1ca <cScreen_Bpp16_5R6G5B::vLineHAbsRaw(short, short, short, unsigned long, unsigned long)+0x1ca>
          r = BM_BPP32_8R8G8B_GET_R(lui32Col) >> 3;
 140:	f3c5 42c4 	ubfx	r2, r5, #19, #5
          g = BM_BPP32_8R8G8B_GET_G(lui32Col) >> 2;
 144:	f3c5 2385 	ubfx	r3, r5, #10, #6
          lui32Col = BM_BPP16_5R6G5B_RGB(r, g, b);
 148:	eb03 1382 	add.w	r3, r3, r2, lsl #6
 14c:	015b      	lsls	r3, r3, #5
 14e:	b29b      	uxth	r3, r3
          b = BM_BPP32_8R8G8B_GET_B(lui32Col) >> 3;
 150:	f3c5 05c4 	ubfx	r5, r5, #3, #5
          lui32Col = BM_BPP16_5R6G5B_RGB(r, g, b);
 154:	441d      	add	r5, r3
 156:	b2a8      	uxth	r0, r5
 158:	eb05 4505 	add.w	r5, r5, r5, lsl #16
        lpui16Data = (uint16*)(mpcBm->mpui8Data + lui32BytePos);
 15c:	6963      	ldr	r3, [r4, #20]
        cMemTools::vMemSet16(lpui16Data, lui32Col, liGfxX2 - liGfxX1 + 1);
 15e:	1bbe      	subs	r6, r7, r6
        lpui16Data = (uint16*)(mpcBm->mpui8Data + lui32BytePos);
 160:	681b      	ldr	r3, [r3, #0]
        cMemTools::vMemSet16(lpui16Data, lui32Col, liGfxX2 - liGfxX1 + 1);
 162:	3601      	adds	r6, #1
      if (luixSize > 7)
 164:	2e07      	cmp	r6, #7
        lpui16Data = (uint16*)(mpcBm->mpui8Data + lui32BytePos);
 166:	4443      	add	r3, r8
 168:	d90f      	bls.n	18a <cScreen_Bpp16_5R6G5B::vLineHAbsRaw(short, short, short, unsigned long, unsigned long)+0x18a>
        luixCount = luixSize >> 3; // 8Byte Blcke
 16a:	08f4      	lsrs	r4, r6, #3
 16c:	4621      	mov	r1, r4
        luixSize &= 7;
 16e:	f006 0607 	and.w	r6, r6, #7
 172:	f103 0210 	add.w	r2, r3, #16
        while (luixCount > 0) // 4 * 4 Byte = 16Byte
 176:	3901      	subs	r1, #1
          *lpui32Dest++ = lui32Value;
 178:	e942 5504 	strd	r5, r5, [r2, #-16]
          *lpui32Dest++ = lui32Value;
 17c:	e942 5502 	strd	r5, r5, [r2, #-8]
 180:	f102 0210 	add.w	r2, r2, #16
        while (luixCount > 0) // 4 * 4 Byte = 16Byte
 184:	d1f7      	bne.n	176 <cScreen_Bpp16_5R6G5B::vLineHAbsRaw(short, short, short, unsigned long, unsigned long)+0x176>
 186:	eb03 1304 	add.w	r3, r3, r4, lsl #4
      while (luixSize > 0)
 18a:	2e00      	cmp	r6, #0
 18c:	d0b2      	beq.n	f4 <cScreen_Bpp16_5R6G5B::vLineHAbsRaw(short, short, short, unsigned long, unsigned long)+0xf4>
 18e:	eb03 0246 	add.w	r2, r3, r6, lsl #1
        *lpui16Dest++ = lui16Value;
 192:	f823 0b02 	strh.w	r0, [r3], #2
      while (luixSize > 0)
 196:	429a      	cmp	r2, r3
 198:	d1fb      	bne.n	192 <cScreen_Bpp16_5R6G5B::vLineHAbsRaw(short, short, short, unsigned long, unsigned long)+0x192>
    }
 19a:	b009      	add	sp, #36	; 0x24
 19c:	e8bd 8ff0 	ldmia.w	sp!, {r4, r5, r6, r7, r8, r9, sl, fp, pc}
      if (lui32Col)
 1a0:	4628      	mov	r0, r5
 1a2:	e7db      	b.n	15c <cScreen_Bpp16_5R6G5B::vLineHAbsRaw(short, short, short, unsigned long, unsigned long)+0x15c>
          vLineHAbsRaw(liGfxX1, liGfxX2, liGfxY1, lui32Col1);
 1a4:	46c4      	mov	ip, r8
    }
 1a6:	b009      	add	sp, #36	; 0x24
 1a8:	e8bd 4ff0 	ldmia.w	sp!, {r4, r5, r6, r7, r8, r9, sl, fp, lr}
          vLineHAbsRaw(liGfxX1, liGfxX2, liGfxY1, lui32Col1);
 1ac:	4760      	bx	ip
        lui32Col = u32GetCol(lui32Col);
 1ae:	4629      	mov	r1, r5
 1b0:	4620      	mov	r0, r4
 1b2:	4798      	blx	r3
 1b4:	b285      	uxth	r5, r0
 1b6:	eb05 4505 	add.w	r5, r5, r5, lsl #16
 1ba:	b280      	uxth	r0, r0
 1bc:	e7ce      	b.n	15c <cScreen_Bpp16_5R6G5B::vLineHAbsRaw(short, short, short, unsigned long, unsigned long)+0x15c>
        lui32BytePos = u32PxlIdx2ByteIdx(lui32Idx);
 1be:	4620      	mov	r0, r4
 1c0:	4798      	blx	r3
 1c2:	f8d4 c000 	ldr.w	ip, [r4]
 1c6:	4680      	mov	r8, r0
 1c8:	e7b1      	b.n	12e <cScreen_Bpp16_5R6G5B::vLineHAbsRaw(short, short, short, unsigned long, unsigned long)+0x12e>
        if (lui32Col < BM_BPP32_8R8G8B_RGB(0xFF, 0xFF, 0xFF))
 1ca:	f04f 35ff 	mov.w	r5, #4294967295
 1ce:	f64f 70ff 	movw	r0, #65535	; 0xffff
 1d2:	e7c3      	b.n	ffffff8a <mDisplayMemory+0xffffd87a>
	...
	1d4: R_ARM_ABS32	cScreen_Bpp16_5R6G5B::u32PxlIdx2ByteIdx(unsigned long)
	1d8: R_ARM_ABS32	cScreen_Bpp16_5R6G5B::u32GetCol(unsigned long)
 1dc:	00fffffe 	.word	0x00fffffe
 1e0:	00000000 	.word	0x00000000	1e0: R_ARM_ABS32	cScreen_Bpp16_5R6G5B::vLineHAbsRaw(short, short, short, unsigned long)

Disassembly of section .text._ZN40cRes8b_Bpp1_1G_SpriteEngine_Bpp16_5R6G5B11i8BitCpyRawEss:

00000000 <non-virtual thunk to cRes8b_Bpp1_1G_SpriteEngine_Bpp16_5R6G5B::i8BitCpyRaw(short, short)>:
   0:	e92d 4ff0 	stmdb	sp!, {r4, r5, r6, r7, r8, r9, sl, fp, lr}
   4:	6985      	ldr	r5, [r0, #24]
   6:	6884      	ldr	r4, [r0, #8]
   8:	88af      	ldrh	r7, [r5, #4]
   a:	88ee      	ldrh	r6, [r5, #6]
   c:	f9b4 8004 	ldrsh.w	r8, [r4, #4]
  10:	88e3      	ldrh	r3, [r4, #6]
  12:	f895 9010 	ldrb.w	r9, [r5, #16]
  16:	4439      	add	r1, r7
  18:	4432      	add	r2, r6
  1a:	f108 3cff 	add.w	ip, r8, #4294967295
  1e:	3b01      	subs	r3, #1
  20:	b289      	uxth	r1, r1
  22:	b292      	uxth	r2, r2
  24:	b29b      	uxth	r3, r3
  26:	fa1f fc8c 	uxth.w	ip, ip
  2a:	b087      	sub	sp, #28
  2c:	eb0c 0601 	add.w	r6, ip, r1
  30:	18d7      	adds	r7, r2, r3
  32:	b236      	sxth	r6, r6
  34:	b23f      	sxth	r7, r7
  36:	fa0f fa81 	sxth.w	sl, r1
  3a:	fa0f fe82 	sxth.w	lr, r2
  3e:	9301      	str	r3, [sp, #4]
  40:	8406      	strh	r6, [r0, #32]
  42:	8447      	strh	r7, [r0, #34]	; 0x22
  44:	f8a0 a01c 	strh.w	sl, [r0, #28]
  48:	f8a0 e01e 	strh.w	lr, [r0, #30]
  4c:	f1b9 0f00 	cmp.w	r9, #0
  50:	f000 80ac 	beq.w	1ac <non-virtual thunk to cRes8b_Bpp1_1G_SpriteEngine_Bpp16_5R6G5B::i8BitCpyRaw(short, short)+0x1ac>
  54:	f9b5 900c 	ldrsh.w	r9, [r5, #12]
  58:	45ca      	cmp	sl, r9
  5a:	f300 80a7 	bgt.w	1ac <non-virtual thunk to cRes8b_Bpp1_1G_SpriteEngine_Bpp16_5R6G5B::i8BitCpyRaw(short, short)+0x1ac>
  5e:	f9b5 b00e 	ldrsh.w	fp, [r5, #14]
  62:	45de      	cmp	lr, fp
  64:	f300 80a2 	bgt.w	1ac <non-virtual thunk to cRes8b_Bpp1_1G_SpriteEngine_Bpp16_5R6G5B::i8BitCpyRaw(short, short)+0x1ac>
  68:	f9b5 3008 	ldrsh.w	r3, [r5, #8]
  6c:	9303      	str	r3, [sp, #12]
  6e:	429e      	cmp	r6, r3
  70:	f2c0 809c 	blt.w	1ac <non-virtual thunk to cRes8b_Bpp1_1G_SpriteEngine_Bpp16_5R6G5B::i8BitCpyRaw(short, short)+0x1ac>
  74:	f9b5 300a 	ldrsh.w	r3, [r5, #10]
  78:	9304      	str	r3, [sp, #16]
  7a:	429f      	cmp	r7, r3
  7c:	f2c0 8096 	blt.w	1ac <non-virtual thunk to cRes8b_Bpp1_1G_SpriteEngine_Bpp16_5R6G5B::i8BitCpyRaw(short, short)+0x1ac>
  80:	fa0f fc8c 	sxth.w	ip, ip
  84:	f8cd c014 	str.w	ip, [sp, #20]
  88:	f9bd 3004 	ldrsh.w	r3, [sp, #4]
  8c:	9301      	str	r3, [sp, #4]
  8e:	9b05      	ldr	r3, [sp, #20]
  90:	8203      	strh	r3, [r0, #16]
  92:	9b01      	ldr	r3, [sp, #4]
  94:	8243      	strh	r3, [r0, #18]
  96:	9b03      	ldr	r3, [sp, #12]
  98:	f8cd c008 	str.w	ip, [sp, #8]
  9c:	459a      	cmp	sl, r3
  9e:	f04f 0c00 	mov.w	ip, #0
  a2:	f8c0 c00c 	str.w	ip, [r0, #12]
  a6:	f280 8087 	bge.w	1b8 <non-virtual thunk to cRes8b_Bpp1_1G_SpriteEngine_Bpp16_5R6G5B::i8BitCpyRaw(short, short)+0x1b8>
  aa:	1a59      	subs	r1, r3, r1
  ac:	b289      	uxth	r1, r1
  ae:	fa0f fc81 	sxth.w	ip, r1
  b2:	9103      	str	r1, [sp, #12]
  b4:	8383      	strh	r3, [r0, #28]
  b6:	469a      	mov	sl, r3
  b8:	f8a0 c00c 	strh.w	ip, [r0, #12]
  bc:	9b04      	ldr	r3, [sp, #16]
  be:	459e      	cmp	lr, r3
  c0:	da78      	bge.n	1b4 <non-virtual thunk to cRes8b_Bpp1_1G_SpriteEngine_Bpp16_5R6G5B::i8BitCpyRaw(short, short)+0x1b4>
  c2:	1a9a      	subs	r2, r3, r2
  c4:	b292      	uxth	r2, r2
  c6:	b211      	sxth	r1, r2
  c8:	9104      	str	r1, [sp, #16]
  ca:	83c3      	strh	r3, [r0, #30]
  cc:	469e      	mov	lr, r3
  ce:	9b04      	ldr	r3, [sp, #16]
  d0:	81c3      	strh	r3, [r0, #14]
  d2:	fb03 cc08 	mla	ip, r3, r8, ip
  d6:	454e      	cmp	r6, r9
  d8:	dd07      	ble.n	ea <non-virtual thunk to cRes8b_Bpp1_1G_SpriteEngine_Bpp16_5R6G5B::i8BitCpyRaw(short, short)+0xea>
  da:	9b03      	ldr	r3, [sp, #12]
  dc:	eb03 0609 	add.w	r6, r3, r9
  e0:	eba6 060a 	sub.w	r6, r6, sl
  e4:	b233      	sxth	r3, r6
  e6:	9302      	str	r3, [sp, #8]
  e8:	8203      	strh	r3, [r0, #16]
  ea:	455f      	cmp	r7, fp
  ec:	dd06      	ble.n	fc <non-virtual thunk to cRes8b_Bpp1_1G_SpriteEngine_Bpp16_5R6G5B::i8BitCpyRaw(short, short)+0xfc>
  ee:	eb02 030b 	add.w	r3, r2, fp
  f2:	eba3 030e 	sub.w	r3, r3, lr
  f6:	b21b      	sxth	r3, r3
  f8:	9301      	str	r3, [sp, #4]
  fa:	8243      	strh	r3, [r0, #18]
  fc:	9b03      	ldr	r3, [sp, #12]
  fe:	696d      	ldr	r5, [r5, #20]
 100:	6827      	ldr	r7, [r4, #0]
 102:	f8b5 8004 	ldrh.w	r8, [r5, #4]
 106:	682e      	ldr	r6, [r5, #0]
 108:	f8c0 c030 	str.w	ip, [r0, #48]	; 0x30
 10c:	f1c3 0101 	rsb	r1, r3, #1
 110:	9b01      	ldr	r3, [sp, #4]
 112:	f1c2 0201 	rsb	r2, r2, #1
 116:	4413      	add	r3, r2
 118:	9a02      	ldr	r2, [sp, #8]
 11a:	b21b      	sxth	r3, r3
 11c:	440a      	add	r2, r1
 11e:	fb1e ae08 	smlabb	lr, lr, r8, sl
 122:	eb06 0e4e 	add.w	lr, r6, lr, lsl #1
 126:	b212      	sxth	r2, r2
 128:	eb07 07dc 	add.w	r7, r7, ip, lsr #3
 12c:	f00c 0607 	and.w	r6, ip, #7
 130:	2b00      	cmp	r3, #0
 132:	f8c0 e024 	str.w	lr, [r0, #36]	; 0x24
 136:	8503      	strh	r3, [r0, #40]	; 0x28
 138:	8542      	strh	r2, [r0, #42]	; 0x2a
 13a:	6147      	str	r7, [r0, #20]
 13c:	6346      	str	r6, [r0, #52]	; 0x34
 13e:	dd35      	ble.n	1ac <non-virtual thunk to cRes8b_Bpp1_1G_SpriteEngine_Bpp16_5R6G5B::i8BitCpyRaw(short, short)+0x1ac>
 140:	4623      	mov	r3, r4
 142:	f8b0 802c 	ldrh.w	r8, [r0, #44]	; 0x2c
 146:	4674      	mov	r4, lr
 148:	f04f 0980 	mov.w	r9, #128	; 0x80
 14c:	469e      	mov	lr, r3
 14e:	fa49 f306 	asr.w	r3, r9, r6
 152:	b2db      	uxtb	r3, r3
 154:	b19a      	cbz	r2, 17e <non-virtual thunk to cRes8b_Bpp1_1G_SpriteEngine_Bpp16_5R6G5B::i8BitCpyRaw(short, short)+0x17e>
 156:	46a4      	mov	ip, r4
 158:	46ba      	mov	sl, r7
 15a:	f89a 1000 	ldrb.w	r1, [sl]
 15e:	4019      	ands	r1, r3
 160:	bf14      	ite	ne
 162:	f8ac 8000 	strhne.w	r8, [ip]
 166:	f8ac 1000 	strheq.w	r1, [ip]
 16a:	2b01      	cmp	r3, #1
 16c:	bf12      	itee	ne
 16e:	085b      	lsrne	r3, r3, #1
 170:	2380      	moveq	r3, #128	; 0x80
 172:	f10a 0a01 	addeq.w	sl, sl, #1
 176:	3a01      	subs	r2, #1
 178:	f10c 0c02 	add.w	ip, ip, #2
 17c:	d1ed      	bne.n	15a <non-virtual thunk to cRes8b_Bpp1_1G_SpriteEngine_Bpp16_5R6G5B::i8BitCpyRaw(short, short)+0x15a>
 17e:	8d03      	ldrh	r3, [r0, #40]	; 0x28
 180:	f9be 2004 	ldrsh.w	r2, [lr, #4]
 184:	f9b5 1004 	ldrsh.w	r1, [r5, #4]
 188:	3b01      	subs	r3, #1
 18a:	4416      	add	r6, r2
 18c:	b21b      	sxth	r3, r3
 18e:	eb07 07d6 	add.w	r7, r7, r6, lsr #3
 192:	eb04 0441 	add.w	r4, r4, r1, lsl #1
 196:	f006 0607 	and.w	r6, r6, #7
 19a:	2b00      	cmp	r3, #0
 19c:	6147      	str	r7, [r0, #20]
 19e:	6346      	str	r6, [r0, #52]	; 0x34
 1a0:	8503      	strh	r3, [r0, #40]	; 0x28
 1a2:	6244      	str	r4, [r0, #36]	; 0x24
 1a4:	dd02      	ble.n	1ac <non-virtual thunk to cRes8b_Bpp1_1G_SpriteEngine_Bpp16_5R6G5B::i8BitCpyRaw(short, short)+0x1ac>
 1a6:	f9b0 202a 	ldrsh.w	r2, [r0, #42]	; 0x2a
 1aa:	e7d0      	b.n	14e <non-virtual thunk to cRes8b_Bpp1_1G_SpriteEngine_Bpp16_5R6G5B::i8BitCpyRaw(short, short)+0x14e>
 1ac:	2000      	movs	r0, #0
 1ae:	b007      	add	sp, #28
 1b0:	e8bd 8ff0 	ldmia.w	sp!, {r4, r5, r6, r7, r8, r9, sl, fp, pc}
 1b4:	2200      	movs	r2, #0
 1b6:	e78e      	b.n	d6 <non-virtual thunk to cRes8b_Bpp1_1G_SpriteEngine_Bpp16_5R6G5B::i8BitCpyRaw(short, short)+0xd6>
 1b8:	f8cd c00c 	str.w	ip, [sp, #12]
 1bc:	e77e      	b.n	bc <non-virtual thunk to cRes8b_Bpp1_1G_SpriteEngine_Bpp16_5R6G5B::i8BitCpyRaw(short, short)+0xbc>
 1be:	bf00      	nop

000001c0 <cRes8b_Bpp1_1G_SpriteEngine_Bpp16_5R6G5B::i8BitCpyRaw(short, short)>:
  FRet i8BitCpyRaw(GfxInt lixDestX, GfxInt lixDestY)
 1c0:	e92d 4ff0 	stmdb	sp!, {r4, r5, r6, r7, r8, r9, sl, fp, lr}
    mpcScreenDest->vRel2Abs(lixDestX, lixDestY);
 1c4:	69c5      	ldr	r5, [r0, #28]
      miGfxDestX2 = miGfxDestX1 + mpcSprite->miGfxWidth - 1;
 1c6:	68c4      	ldr	r4, [r0, #12]
  SCREEN_INLINE void vRel2AbsX(GfxInt &liGfxX) { liGfxX += miGfxRefPosx1; }
 1c8:	88af      	ldrh	r7, [r5, #4]
  SCREEN_INLINE void vRel2AbsY(GfxInt &liGfxY) { liGfxY += miGfxRefPosy1; }
 1ca:	88ee      	ldrh	r6, [r5, #6]
 1cc:	f9b4 8004 	ldrsh.w	r8, [r4, #4]
 1d0:	88e3      	ldrh	r3, [r4, #6]
                                                                       (liGfxX2 >= miGfxClipPosx1) && (liGfxY2 >= miGfxClipPosy1));}
 1d2:	f895 9010 	ldrb.w	r9, [r5, #16]
  SCREEN_INLINE void vRel2AbsX(GfxInt &liGfxX) { liGfxX += miGfxRefPosx1; }
 1d6:	4439      	add	r1, r7
  SCREEN_INLINE void vRel2AbsY(GfxInt &liGfxY) { liGfxY += miGfxRefPosy1; }
 1d8:	4432      	add	r2, r6
 1da:	f108 3cff 	add.w	ip, r8, #4294967295
 1de:	3b01      	subs	r3, #1
  SCREEN_INLINE void vRel2AbsX(GfxInt &liGfxX) { liGfxX += miGfxRefPosx1; }
 1e0:	b289      	uxth	r1, r1
  SCREEN_INLINE void vRel2AbsY(GfxInt &liGfxY) { liGfxY += miGfxRefPosy1; }
 1e2:	b292      	uxth	r2, r2
 1e4:	b29b      	uxth	r3, r3
 1e6:	fa1f fc8c 	uxth.w	ip, ip
  FRet i8BitCpyRaw(GfxInt lixDestX, GfxInt lixDestY)
 1ea:	b087      	sub	sp, #28
 1ec:	eb01 060c 	add.w	r6, r1, ip
      miGfxDestY2 = miGfxDestY1 + mpcSprite->miGfxHeight - 1;
 1f0:	18d7      	adds	r7, r2, r3
      miGfxDestX2 = miGfxDestX1 + mpcSprite->miGfxWidth - 1;
 1f2:	b236      	sxth	r6, r6
      miGfxDestY2 = miGfxDestY1 + mpcSprite->miGfxHeight - 1;
 1f4:	b23f      	sxth	r7, r7
  SCREEN_INLINE void vRel2AbsX(GfxInt &liGfxX) { liGfxX += miGfxRefPosx1; }
 1f6:	fa0f fa81 	sxth.w	sl, r1
  SCREEN_INLINE void vRel2AbsY(GfxInt &liGfxY) { liGfxY += miGfxRefPosy1; }
 1fa:	fa0f fe82 	sxth.w	lr, r2
 1fe:	9301      	str	r3, [sp, #4]
      miGfxDestX2 = miGfxDestX1 + mpcSprite->miGfxWidth - 1;
 200:	8486      	strh	r6, [r0, #36]	; 0x24
      miGfxDestY2 = miGfxDestY1 + mpcSprite->miGfxHeight - 1;
 202:	84c7      	strh	r7, [r0, #38]	; 0x26
      miGfxDestX1 = liGfxDestX1;
 204:	f8a0 a020 	strh.w	sl, [r0, #32]
      miGfxDestY1 = liGfxDestY1;
 208:	f8a0 e022 	strh.w	lr, [r0, #34]	; 0x22
                                                                       (liGfxX2 >= miGfxClipPosx1) && (liGfxY2 >= miGfxClipPosy1));}
 20c:	f1b9 0f00 	cmp.w	r9, #0
 210:	f000 80ac 	beq.w	36c <cRes8b_Bpp1_1G_SpriteEngine_Bpp16_5R6G5B::i8BitCpyRaw(short, short)+0x1ac>
                                                                       (liGfxX1 <= miGfxClipPosx2) && (liGfxY1 <= miGfxClipPosy2) &&
 214:	f9b5 900c 	ldrsh.w	r9, [r5, #12]
                             GfxInt liGfxX2, GfxInt liGfxY2) { return ((mbVisible) &&
 218:	45ca      	cmp	sl, r9
 21a:	f300 80a7 	bgt.w	36c <cRes8b_Bpp1_1G_SpriteEngine_Bpp16_5R6G5B::i8BitCpyRaw(short, short)+0x1ac>
                                                                       (liGfxX1 <= miGfxClipPosx2) && (liGfxY1 <= miGfxClipPosy2) &&
 21e:	f9b5 b00e 	ldrsh.w	fp, [r5, #14]
 222:	45de      	cmp	lr, fp
 224:	f300 80a2 	bgt.w	36c <cRes8b_Bpp1_1G_SpriteEngine_Bpp16_5R6G5B::i8BitCpyRaw(short, short)+0x1ac>
                                                                       (liGfxX2 >= miGfxClipPosx1) && (liGfxY2 >= miGfxClipPosy1));}
 228:	f9b5 3008 	ldrsh.w	r3, [r5, #8]
                                                                       (liGfxX1 <= miGfxClipPosx2) && (liGfxY1 <= miGfxClipPosy2) &&
 22c:	9303      	str	r3, [sp, #12]
 22e:	429e      	cmp	r6, r3
 230:	f2c0 809c 	blt.w	36c <cRes8b_Bpp1_1G_SpriteEngine_Bpp16_5R6G5B::i8BitCpyRaw(short, short)+0x1ac>
                                                                       (liGfxX2 >= miGfxClipPosx1) && (liGfxY2 >= miGfxClipPosy1));}
 234:	f9b5 300a 	ldrsh.w	r3, [r5, #10]
 238:	9304      	str	r3, [sp, #16]
 23a:	429f      	cmp	r7, r3
 23c:	f2c0 8096 	blt.w	36c <cRes8b_Bpp1_1G_SpriteEngine_Bpp16_5R6G5B::i8BitCpyRaw(short, short)+0x1ac>
        miGfxSpriteX2 = mpcSprite->miGfxWidth - 1;
 240:	fa0f fc8c 	sxth.w	ip, ip
 244:	f8cd c014 	str.w	ip, [sp, #20]
        miGfxSpriteY2 = mpcSprite->miGfxHeight - 1;
 248:	f9bd 3004 	ldrsh.w	r3, [sp, #4]
 24c:	9301      	str	r3, [sp, #4]
        miGfxSpriteX2 = mpcSprite->miGfxWidth - 1;
 24e:	9b05      	ldr	r3, [sp, #20]
 250:	8283      	strh	r3, [r0, #20]
        miGfxSpriteY2 = mpcSprite->miGfxHeight - 1;
 252:	9b01      	ldr	r3, [sp, #4]
 254:	82c3      	strh	r3, [r0, #22]
        if (miGfxDestX1 < mpcScreenDest->miGfxClipPosx1) { miGfxSpriteX1 = mpcScreenDest->miGfxClipPosx1 - miGfxDestX1; miGfxDestX1 = mpcScreenDest->miGfxClipPosx1; }
 256:	9b03      	ldr	r3, [sp, #12]
        miGfxSpriteX2 = mpcSprite->miGfxWidth - 1;
 258:	f8cd c008 	str.w	ip, [sp, #8]
        if (miGfxDestX1 < mpcScreenDest->miGfxClipPosx1) { miGfxSpriteX1 = mpcScreenDest->miGfxClipPosx1 - miGfxDestX1; miGfxDestX1 = mpcScreenDest->miGfxClipPosx1; }
 25c:	459a      	cmp	sl, r3
        miGfxSpriteX1 = 0;
 25e:	f04f 0c00 	mov.w	ip, #0
 262:	f8c0 c010 	str.w	ip, [r0, #16]
        if (miGfxDestX1 < mpcScreenDest->miGfxClipPosx1) { miGfxSpriteX1 = mpcScreenDest->miGfxClipPosx1 - miGfxDestX1; miGfxDestX1 = mpcScreenDest->miGfxClipPosx1; }
 266:	f280 8087 	bge.w	378 <cRes8b_Bpp1_1G_SpriteEngine_Bpp16_5R6G5B::i8BitCpyRaw(short, short)+0x1b8>
 26a:	1a59      	subs	r1, r3, r1
 26c:	b289      	uxth	r1, r1
 26e:	fa0f fc81 	sxth.w	ip, r1
 272:	9103      	str	r1, [sp, #12]
 274:	8403      	strh	r3, [r0, #32]
 276:	469a      	mov	sl, r3
 278:	f8a0 c010 	strh.w	ip, [r0, #16]
        if (miGfxDestY1 < mpcScreenDest->miGfxClipPosy1) { miGfxSpriteY1 = mpcScreenDest->miGfxClipPosy1 - miGfxDestY1; miGfxDestY1 = mpcScreenDest->miGfxClipPosy1; }
 27c:	9b04      	ldr	r3, [sp, #16]
 27e:	459e      	cmp	lr, r3
 280:	da78      	bge.n	374 <cRes8b_Bpp1_1G_SpriteEngine_Bpp16_5R6G5B::i8BitCpyRaw(short, short)+0x1b4>
 282:	1a9a      	subs	r2, r3, r2
 284:	b292      	uxth	r2, r2
 286:	b211      	sxth	r1, r2
 288:	9104      	str	r1, [sp, #16]
 28a:	8443      	strh	r3, [r0, #34]	; 0x22
 28c:	469e      	mov	lr, r3
 28e:	9b04      	ldr	r3, [sp, #16]
 290:	8243      	strh	r3, [r0, #18]
 292:	fb03 cc08 	mla	ip, r3, r8, ip
        if (miGfxDestX2 > mpcScreenDest->miGfxClipPosx2) miGfxSpriteX2 = miGfxSpriteX1 + mpcScreenDest->miGfxClipPosx2 - miGfxDestX1;
 296:	454e      	cmp	r6, r9
 298:	dd07      	ble.n	2aa <cRes8b_Bpp1_1G_SpriteEngine_Bpp16_5R6G5B::i8BitCpyRaw(short, short)+0xea>
 29a:	9b03      	ldr	r3, [sp, #12]
 29c:	eb03 0609 	add.w	r6, r3, r9
 2a0:	eba6 060a 	sub.w	r6, r6, sl
 2a4:	b233      	sxth	r3, r6
 2a6:	9302      	str	r3, [sp, #8]
 2a8:	8283      	strh	r3, [r0, #20]
        if (miGfxDestY2 > mpcScreenDest->miGfxClipPosy2) miGfxSpriteY2 = miGfxSpriteY1 + mpcScreenDest->miGfxClipPosy2 - miGfxDestY1;
 2aa:	455f      	cmp	r7, fp
 2ac:	dd06      	ble.n	2bc <cRes8b_Bpp1_1G_SpriteEngine_Bpp16_5R6G5B::i8BitCpyRaw(short, short)+0xfc>
 2ae:	eb02 030b 	add.w	r3, r2, fp
 2b2:	eba3 030e 	sub.w	r3, r3, lr
 2b6:	b21b      	sxth	r3, r3
 2b8:	9301      	str	r3, [sp, #4]
 2ba:	82c3      	strh	r3, [r0, #22]
    muixXCnt = (miGfxSpriteX2 - miGfxSpriteX1) + 1;
 2bc:	9b03      	ldr	r3, [sp, #12]
    luixBytePosDest = (GfxImgSize)(miGfxDestY1 * mpcScreenDest->mpcBm->miGfxWidth + miGfxDestX1);
 2be:	696d      	ldr	r5, [r5, #20]
    mpui8Sprite = mpcSprite->mpui8Data + BM_BPP1_1G_PXLIDX2BYTEPOS(muixBytePosSprite);
 2c0:	6827      	ldr	r7, [r4, #0]
    luixBytePosDest = (GfxImgSize)(miGfxDestY1 * mpcScreenDest->mpcBm->miGfxWidth + miGfxDestX1);
 2c2:	f8b5 8004 	ldrh.w	r8, [r5, #4]
    mpui8Dest = mpcScreenDest->mpcBm->mpui8Data + BM_BPP16_5R6G5B_PXLIDX2BYTEPOS(luixBytePosDest);
 2c6:	682e      	ldr	r6, [r5, #0]
    muixBytePosSprite = (GfxImgSize)(miGfxSpriteY1 * mpcSprite->miGfxWidth + miGfxSpriteX1);
 2c8:	f8c0 c034 	str.w	ip, [r0, #52]	; 0x34
    muixXCnt = (miGfxSpriteX2 - miGfxSpriteX1) + 1;
 2cc:	f1c3 0101 	rsb	r1, r3, #1
    muixYCnt = (miGfxSpriteY2 - miGfxSpriteY1) + 1;
 2d0:	9b01      	ldr	r3, [sp, #4]
 2d2:	f1c2 0201 	rsb	r2, r2, #1
 2d6:	4413      	add	r3, r2
    muixXCnt = (miGfxSpriteX2 - miGfxSpriteX1) + 1;
 2d8:	9a02      	ldr	r2, [sp, #8]
    muixYCnt = (miGfxSpriteY2 - miGfxSpriteY1) + 1;
 2da:	b21b      	sxth	r3, r3
    muixXCnt = (miGfxSpriteX2 - miGfxSpriteX1) + 1;
 2dc:	440a      	add	r2, r1
    luixBytePosDest = (GfxImgSize)(miGfxDestY1 * mpcScreenDest->mpcBm->miGfxWidth + miGfxDestX1);
 2de:	fb1e ae08 	smlabb	lr, lr, r8, sl
    mpui8Dest = mpcScreenDest->mpcBm->mpui8Data + BM_BPP16_5R6G5B_PXLIDX2BYTEPOS(luixBytePosDest);
 2e2:	eb06 0e4e 	add.w	lr, r6, lr, lsl #1
    muixXCnt = (miGfxSpriteX2 - miGfxSpriteX1) + 1;
 2e6:	b212      	sxth	r2, r2
    mpui8Sprite = mpcSprite->mpui8Data + BM_BPP1_1G_PXLIDX2BYTEPOS(muixBytePosSprite);
 2e8:	eb07 07dc 	add.w	r7, r7, ip, lsr #3
    muixBitPosSprite = BM_BPP1_1G_PXLIDX2BITPOS(muixBytePosSprite);
 2ec:	f00c 0607 	and.w	r6, ip, #7
      while (muixYCnt > 0)
 2f0:	2b00      	cmp	r3, #0
    mpui8Dest = mpcScreenDest->mpcBm->mpui8Data + BM_BPP16_5R6G5B_PXLIDX2BYTEPOS(luixBytePosDest);
 2f2:	f8c0 e028 	str.w	lr, [r0, #40]	; 0x28
    muixYCnt = (miGfxSpriteY2 - miGfxSpriteY1) + 1;
 2f6:	8583      	strh	r3, [r0, #44]	; 0x2c
    muixXCnt = (miGfxSpriteX2 - miGfxSpriteX1) + 1;
 2f8:	85c2      	strh	r2, [r0, #46]	; 0x2e
    mpui8Sprite = mpcSprite->mpui8Data + BM_BPP1_1G_PXLIDX2BYTEPOS(muixBytePosSprite);
 2fa:	6187      	str	r7, [r0, #24]
    muixBitPosSprite = BM_BPP1_1G_PXLIDX2BITPOS(muixBytePosSprite);
 2fc:	6386      	str	r6, [r0, #56]	; 0x38
      while (muixYCnt > 0)
 2fe:	dd35      	ble.n	36c <cRes8b_Bpp1_1G_SpriteEngine_Bpp16_5R6G5B::i8BitCpyRaw(short, short)+0x1ac>

  static void vMemBit2u16Cpy(uint8* lpui8Source, uint8  lui8SrcStartBitPos, uint16* lpui16Dest, uint16 lui16Value, uint32 luixSize)
  {
    uint8 lui8BitMskSource;

    lui8BitMskSource = 128 >> lui8SrcStartBitPos;
 300:	4623      	mov	r3, r4
        cMemTools::vMemBit2u16Cpy(mpui8Sprite, muixBitPosSprite, (uint16*)mpui8Dest, mui32Col, muixXCnt);
 302:	f8b0 8030 	ldrh.w	r8, [r0, #48]	; 0x30
 306:	4674      	mov	r4, lr
 308:	f04f 0980 	mov.w	r9, #128	; 0x80
 30c:	469e      	mov	lr, r3
 30e:	fa49 f306 	asr.w	r3, r9, r6
 312:	b2db      	uxtb	r3, r3

    while (luixSize > 0)
 314:	b19a      	cbz	r2, 33e <cRes8b_Bpp1_1G_SpriteEngine_Bpp16_5R6G5B::i8BitCpyRaw(short, short)+0x17e>
 316:	46a4      	mov	ip, r4
 318:	46ba      	mov	sl, r7
    {
      if (*lpui8Source & lui8BitMskSource)
 31a:	f89a 1000 	ldrb.w	r1, [sl]
 31e:	4019      	ands	r1, r3
      {
        *lpui16Dest = lui16Value;
 320:	bf14      	ite	ne
 322:	f8ac 8000 	strhne.w	r8, [ip]
      }
      else
      {
        *lpui16Dest = 0;
 326:	f8ac 1000 	strheq.w	r1, [ip]
  static inline void  vBitIncPos(u8* &pui8Ptr, u8 &ui8Mask)                                 {if ((ui8Mask) > 1) {ui8Mask >>= 1;} else {ui8Mask = 128; pui8Ptr++;}}
 32a:	2b01      	cmp	r3, #1
 32c:	bf12      	itee	ne
 32e:	085b      	lsrne	r3, r3, #1
 330:	2380      	moveq	r3, #128	; 0x80
 332:	f10a 0a01 	addeq.w	sl, sl, #1
    while (luixSize > 0)
 336:	3a01      	subs	r2, #1
      }

      vBitIncPos(lpui8Source, lui8BitMskSource);
      lpui16Dest++;
 338:	f10c 0c02 	add.w	ip, ip, #2
    while (luixSize > 0)
 33c:	d1ed      	bne.n	31a <cRes8b_Bpp1_1G_SpriteEngine_Bpp16_5R6G5B::i8BitCpyRaw(short, short)+0x15a>
        muixYCnt--;
 33e:	8d83      	ldrh	r3, [r0, #44]	; 0x2c
    muixBitPosSprite += mpcSprite->miGfxWidth;
 340:	f9be 2004 	ldrsh.w	r2, [lr, #4]
    mpui8Dest += BM_BPP16_5R6G5B_PXLIDX2BYTEPOS(mpcScreenDest->mpcBm->miGfxWidth);
 344:	f9b5 1004 	ldrsh.w	r1, [r5, #4]
        muixYCnt--;
 348:	3b01      	subs	r3, #1
    muixBitPosSprite += mpcSprite->miGfxWidth;
 34a:	4416      	add	r6, r2
        muixYCnt--;
 34c:	b21b      	sxth	r3, r3
    mpui8Sprite += BM_BPP1_1G_PXLIDX2BYTEPOS(muixBitPosSprite);
 34e:	eb07 07d6 	add.w	r7, r7, r6, lsr #3
    mpui8Dest += BM_BPP16_5R6G5B_PXLIDX2BYTEPOS(mpcScreenDest->mpcBm->miGfxWidth);
 352:	eb04 0441 	add.w	r4, r4, r1, lsl #1
    muixBitPosSprite = BM_BPP1_1G_PXLIDX2BITPOS(muixBitPosSprite);
 356:	f006 0607 	and.w	r6, r6, #7
      while (muixYCnt > 0)
 35a:	2b00      	cmp	r3, #0
    mpui8Sprite += BM_BPP1_1G_PXLIDX2BYTEPOS(muixBitPosSprite);
 35c:	6187      	str	r7, [r0, #24]
    muixBitPosSprite = BM_BPP1_1G_PXLIDX2BITPOS(muixBitPosSprite);
 35e:	6386      	str	r6, [r0, #56]	; 0x38
        muixYCnt--;
 360:	8583      	strh	r3, [r0, #44]	; 0x2c
    mpui8Dest += BM_BPP16_5R6G5B_PXLIDX2BYTEPOS(mpcScreenDest->mpcBm->miGfxWidth);
 362:	6284      	str	r4, [r0, #40]	; 0x28
      while (muixYCnt > 0)
 364:	dd02      	ble.n	36c <cRes8b_Bpp1_1G_SpriteEngine_Bpp16_5R6G5B::i8BitCpyRaw(short, short)+0x1ac>
 366:	f9b0 202e 	ldrsh.w	r2, [r0, #46]	; 0x2e
 36a:	e7d0      	b.n	30e <cRes8b_Bpp1_1G_SpriteEngine_Bpp16_5R6G5B::i8BitCpyRaw(short, short)+0x14e>
  }
 36c:	2000      	movs	r0, #0
 36e:	b007      	add	sp, #28
 370:	e8bd 8ff0 	ldmia.w	sp!, {r4, r5, r6, r7, r8, r9, sl, fp, pc}
        if (miGfxDestY1 < mpcScreenDest->miGfxClipPosy1) { miGfxSpriteY1 = mpcScreenDest->miGfxClipPosy1 - miGfxDestY1; miGfxDestY1 = mpcScreenDest->miGfxClipPosy1; }
 374:	2200      	movs	r2, #0
 376:	e78e      	b.n	296 <cRes8b_Bpp1_1G_SpriteEngine_Bpp16_5R6G5B::i8BitCpyRaw(short, short)+0xd6>
        if (miGfxDestX1 < mpcScreenDest->miGfxClipPosx1) { miGfxSpriteX1 = mpcScreenDest->miGfxClipPosx1 - miGfxDestX1; miGfxDestX1 = mpcScreenDest->miGfxClipPosx1; }
 378:	f8cd c00c 	str.w	ip, [sp, #12]
 37c:	e77e      	b.n	27c <cRes8b_Bpp1_1G_SpriteEngine_Bpp16_5R6G5B::i8BitCpyRaw(short, short)+0xbc>
 37e:	bf00      	nop

Disassembly of section .text._ZN40cRes8b_Bpp1_1G_SpriteEngine_Bpp16_5R6G5B11i8BitXorRawEss:

00000000 <non-virtual thunk to cRes8b_Bpp1_1G_SpriteEngine_Bpp16_5R6G5B::i8BitXorRaw(short, short)>:
   0:	e92d 4ff0 	stmdb	sp!, {r4, r5, r6, r7, r8, r9, sl, fp, lr}
   4:	6985      	ldr	r5, [r0, #24]
   6:	6884      	ldr	r4, [r0, #8]
   8:	88af      	ldrh	r7, [r5, #4]
   a:	88ee      	ldrh	r6, [r5, #6]
   c:	f9b4 8004 	ldrsh.w	r8, [r4, #4]
  10:	88e3      	ldrh	r3, [r4, #6]
  12:	f895 9010 	ldrb.w	r9, [r5, #16]
  16:	4439      	add	r1, r7
  18:	4432      	add	r2, r6
  1a:	f108 3cff 	add.w	ip, r8, #4294967295
  1e:	3b01      	subs	r3, #1
  20:	b289      	uxth	r1, r1
  22:	b292      	uxth	r2, r2
  24:	b29b      	uxth	r3, r3
  26:	fa1f fc8c 	uxth.w	ip, ip
  2a:	b087      	sub	sp, #28
  2c:	eb0c 0601 	add.w	r6, ip, r1
  30:	18d7      	adds	r7, r2, r3
  32:	b236      	sxth	r6, r6
  34:	b23f      	sxth	r7, r7
  36:	fa0f fa81 	sxth.w	sl, r1
  3a:	fa0f fe82 	sxth.w	lr, r2
  3e:	9301      	str	r3, [sp, #4]
  40:	8406      	strh	r6, [r0, #32]
  42:	8447      	strh	r7, [r0, #34]	; 0x22
  44:	f8a0 a01c 	strh.w	sl, [r0, #28]
  48:	f8a0 e01e 	strh.w	lr, [r0, #30]
  4c:	f1b9 0f00 	cmp.w	r9, #0
  50:	f000 80ae 	beq.w	1b0 <non-virtual thunk to cRes8b_Bpp1_1G_SpriteEngine_Bpp16_5R6G5B::i8BitXorRaw(short, short)+0x1b0>
  54:	f9b5 900c 	ldrsh.w	r9, [r5, #12]
  58:	45ca      	cmp	sl, r9
  5a:	f300 80a9 	bgt.w	1b0 <non-virtual thunk to cRes8b_Bpp1_1G_SpriteEngine_Bpp16_5R6G5B::i8BitXorRaw(short, short)+0x1b0>
  5e:	f9b5 b00e 	ldrsh.w	fp, [r5, #14]
  62:	45de      	cmp	lr, fp
  64:	f300 80a4 	bgt.w	1b0 <non-virtual thunk to cRes8b_Bpp1_1G_SpriteEngine_Bpp16_5R6G5B::i8BitXorRaw(short, short)+0x1b0>
  68:	f9b5 3008 	ldrsh.w	r3, [r5, #8]
  6c:	9303      	str	r3, [sp, #12]
  6e:	429e      	cmp	r6, r3
  70:	f2c0 809e 	blt.w	1b0 <non-virtual thunk to cRes8b_Bpp1_1G_SpriteEngine_Bpp16_5R6G5B::i8BitXorRaw(short, short)+0x1b0>
  74:	f9b5 300a 	ldrsh.w	r3, [r5, #10]
  78:	9304      	str	r3, [sp, #16]
  7a:	429f      	cmp	r7, r3
  7c:	f2c0 8098 	blt.w	1b0 <non-virtual thunk to cRes8b_Bpp1_1G_SpriteEngine_Bpp16_5R6G5B::i8BitXorRaw(short, short)+0x1b0>
  80:	fa0f fc8c 	sxth.w	ip, ip
  84:	f8cd c014 	str.w	ip, [sp, #20]
  88:	f9bd 3004 	ldrsh.w	r3, [sp, #4]
  8c:	9301      	str	r3, [sp, #4]
  8e:	9b05      	ldr	r3, [sp, #20]
  90:	8203      	strh	r3, [r0, #16]
  92:	9b01      	ldr	r3, [sp, #4]
  94:	8243      	strh	r3, [r0, #18]
  96:	9b03      	ldr	r3, [sp, #12]
  98:	f8cd c008 	str.w	ip, [sp, #8]
  9c:	459a      	cmp	sl, r3
  9e:	f04f 0c00 	mov.w	ip, #0
  a2:	f8c0 c00c 	str.w	ip, [r0, #12]
  a6:	f280 8089 	bge.w	1bc <non-virtual thunk to cRes8b_Bpp1_1G_SpriteEngine_Bpp16_5R6G5B::i8BitXorRaw(short, short)+0x1bc>
  aa:	1a59      	subs	r1, r3, r1
  ac:	b289      	uxth	r1, r1
  ae:	fa0f fc81 	sxth.w	ip, r1
  b2:	9103      	str	r1, [sp, #12]
  b4:	8383      	strh	r3, [r0, #28]
  b6:	469a      	mov	sl, r3
  b8:	f8a0 c00c 	strh.w	ip, [r0, #12]
  bc:	9b04      	ldr	r3, [sp, #16]
  be:	459e      	cmp	lr, r3
  c0:	da7a      	bge.n	1b8 <non-virtual thunk to cRes8b_Bpp1_1G_SpriteEngine_Bpp16_5R6G5B::i8BitXorRaw(short, short)+0x1b8>
  c2:	1a9a      	subs	r2, r3, r2
  c4:	b292      	uxth	r2, r2
  c6:	b211      	sxth	r1, r2
  c8:	9104      	str	r1, [sp, #16]
  ca:	83c3      	strh	r3, [r0, #30]
  cc:	469e      	mov	lr, r3
  ce:	9b04      	ldr	r3, [sp, #16]
  d0:	81c3      	strh	r3, [r0, #14]
  d2:	fb03 cc08 	mla	ip, r3, r8, ip
  d6:	454e      	cmp	r6, r9
  d8:	dd07      	ble.n	ea <non-virtual thunk to cRes8b_Bpp1_1G_SpriteEngine_Bpp16_5R6G5B::i8BitXorRaw(short, short)+0xea>
  da:	9b03      	ldr	r3, [sp, #12]
  dc:	eb03 0609 	add.w	r6, r3, r9
  e0:	eba6 060a 	sub.w	r6, r6, sl
  e4:	b233      	sxth	r3, r6
  e6:	9302      	str	r3, [sp, #8]
  e8:	8203      	strh	r3, [r0, #16]
  ea:	455f      	cmp	r7, fp
  ec:	dd06      	ble.n	fc <non-virtual thunk to cRes8b_Bpp1_1G_SpriteEngine_Bpp16_5R6G5B::i8BitXorRaw(short, short)+0xfc>
  ee:	eb02 030b 	add.w	r3, r2, fp
  f2:	eba3 030e 	sub.w	r3, r3, lr
  f6:	b21b      	sxth	r3, r3
  f8:	9301      	str	r3, [sp, #4]
  fa:	8243      	strh	r3, [r0, #18]
  fc:	9b03      	ldr	r3, [sp, #12]
  fe:	696d      	ldr	r5, [r5, #20]
 100:	6827      	ldr	r7, [r4, #0]
 102:	f8b5 8004 	ldrh.w	r8, [r5, #4]
 106:	682e      	ldr	r6, [r5, #0]
 108:	f8c0 c030 	str.w	ip, [r0, #48]	; 0x30
 10c:	f1c3 0101 	rsb	r1, r3, #1
 110:	9b01      	ldr	r3, [sp, #4]
 112:	f1c2 0201 	rsb	r2, r2, #1
 116:	4413      	add	r3, r2
 118:	9a02      	ldr	r2, [sp, #8]
 11a:	fb1e aa08 	smlabb	sl, lr, r8, sl
 11e:	b21b      	sxth	r3, r3
 120:	440a      	add	r2, r1
 122:	eb07 0edc 	add.w	lr, r7, ip, lsr #3
 126:	b212      	sxth	r2, r2
 128:	eb06 0a4a 	add.w	sl, r6, sl, lsl #1
 12c:	f00c 0707 	and.w	r7, ip, #7
 130:	2b00      	cmp	r3, #0
 132:	f8c0 a024 	str.w	sl, [r0, #36]	; 0x24
 136:	8503      	strh	r3, [r0, #40]	; 0x28
 138:	8542      	strh	r2, [r0, #42]	; 0x2a
 13a:	f8c0 e014 	str.w	lr, [r0, #20]
 13e:	6347      	str	r7, [r0, #52]	; 0x34
 140:	dd36      	ble.n	1b0 <non-virtual thunk to cRes8b_Bpp1_1G_SpriteEngine_Bpp16_5R6G5B::i8BitXorRaw(short, short)+0x1b0>
 142:	f8b0 802c 	ldrh.w	r8, [r0, #44]	; 0x2c
 146:	46a4      	mov	ip, r4
 148:	f04f 0980 	mov.w	r9, #128	; 0x80
 14c:	4674      	mov	r4, lr
 14e:	46ae      	mov	lr, r5
 150:	4655      	mov	r5, sl
 152:	fa49 f307 	asr.w	r3, r9, r7
 156:	b2db      	uxtb	r3, r3
 158:	b19a      	cbz	r2, 182 <non-virtual thunk to cRes8b_Bpp1_1G_SpriteEngine_Bpp16_5R6G5B::i8BitXorRaw(short, short)+0x182>
 15a:	462e      	mov	r6, r5
 15c:	46a2      	mov	sl, r4
 15e:	f89a 1000 	ldrb.w	r1, [sl]
 162:	4019      	ands	r1, r3
 164:	bf1c      	itt	ne
 166:	8831      	ldrhne	r1, [r6, #0]
 168:	ea88 0101 	eorne.w	r1, r8, r1
 16c:	2b01      	cmp	r3, #1
 16e:	bf12      	itee	ne
 170:	085b      	lsrne	r3, r3, #1
 172:	2380      	moveq	r3, #128	; 0x80
 174:	f10a 0a01 	addeq.w	sl, sl, #1
 178:	3a01      	subs	r2, #1
 17a:	8031      	strh	r1, [r6, #0]
 17c:	f106 0602 	add.w	r6, r6, #2
 180:	d1ed      	bne.n	15e <non-virtual thunk to cRes8b_Bpp1_1G_SpriteEngine_Bpp16_5R6G5B::i8BitXorRaw(short, short)+0x15e>
 182:	8d03      	ldrh	r3, [r0, #40]	; 0x28
 184:	f9bc 2004 	ldrsh.w	r2, [ip, #4]
 188:	f9be 1004 	ldrsh.w	r1, [lr, #4]
 18c:	3b01      	subs	r3, #1
 18e:	4417      	add	r7, r2
 190:	b21b      	sxth	r3, r3
 192:	eb04 04d7 	add.w	r4, r4, r7, lsr #3
 196:	eb05 0541 	add.w	r5, r5, r1, lsl #1
 19a:	f007 0707 	and.w	r7, r7, #7
 19e:	2b00      	cmp	r3, #0
 1a0:	6144      	str	r4, [r0, #20]
 1a2:	6347      	str	r7, [r0, #52]	; 0x34
 1a4:	8503      	strh	r3, [r0, #40]	; 0x28
 1a6:	6245      	str	r5, [r0, #36]	; 0x24
 1a8:	dd02      	ble.n	1b0 <non-virtual thunk to cRes8b_Bpp1_1G_SpriteEngine_Bpp16_5R6G5B::i8BitXorRaw(short, short)+0x1b0>
 1aa:	f9b0 202a 	ldrsh.w	r2, [r0, #42]	; 0x2a
 1ae:	e7d0      	b.n	152 <non-virtual thunk to cRes8b_Bpp1_1G_SpriteEngine_Bpp16_5R6G5B::i8BitXorRaw(short, short)+0x152>
 1b0:	2000      	movs	r0, #0
 1b2:	b007      	add	sp, #28
 1b4:	e8bd 8ff0 	ldmia.w	sp!, {r4, r5, r6, r7, r8, r9, sl, fp, pc}
 1b8:	2200      	movs	r2, #0
 1ba:	e78c      	b.n	d6 <non-virtual thunk to cRes8b_Bpp1_1G_SpriteEngine_Bpp16_5R6G5B::i8BitXorRaw(short, short)+0xd6>
 1bc:	f8cd c00c 	str.w	ip, [sp, #12]
 1c0:	e77c      	b.n	bc <non-virtual thunk to cRes8b_Bpp1_1G_SpriteEngine_Bpp16_5R6G5B::i8BitXorRaw(short, short)+0xbc>
 1c2:	bf00      	nop

000001c4 <cRes8b_Bpp1_1G_SpriteEngine_Bpp16_5R6G5B::i8BitXorRaw(short, short)>:
  FRet i8BitXorRaw(GfxInt lixDestX, GfxInt lixDestY)
 1c4:	e92d 4ff0 	stmdb	sp!, {r4, r5, r6, r7, r8, r9, sl, fp, lr}
    mpcScreenDest->vRel2Abs(lixDestX, lixDestY);
 1c8:	69c5      	ldr	r5, [r0, #28]
      miGfxDestX2 = miGfxDestX1 + mpcSprite->miGfxWidth - 1;
 1ca:	68c4      	ldr	r4, [r0, #12]
  SCREEN_INLINE void vRel2AbsX(GfxInt &liGfxX) { liGfxX += miGfxRefPosx1; }
 1cc:	88af      	ldrh	r7, [r5, #4]
  SCREEN_INLINE void vRel2AbsY(GfxInt &liGfxY) { liGfxY += miGfxRefPosy1; }
 1ce:	88ee      	ldrh	r6, [r5, #6]
 1d0:	f9b4 8004 	ldrsh.w	r8, [r4, #4]
 1d4:	88e3      	ldrh	r3, [r4, #6]
                                                                       (liGfxX2 >= miGfxClipPosx1) && (liGfxY2 >= miGfxClipPosy1));}
 1d6:	f895 9010 	ldrb.w	r9, [r5, #16]
  SCREEN_INLINE void vRel2AbsX(GfxInt &liGfxX) { liGfxX += miGfxRefPosx1; }
 1da:	4439      	add	r1, r7
  SCREEN_INLINE void vRel2AbsY(GfxInt &liGfxY) { liGfxY += miGfxRefPosy1; }
 1dc:	4432      	add	r2, r6
 1de:	f108 3cff 	add.w	ip, r8, #4294967295
 1e2:	3b01      	subs	r3, #1
  SCREEN_INLINE void vRel2AbsX(GfxInt &liGfxX) { liGfxX += miGfxRefPosx1; }
 1e4:	b289      	uxth	r1, r1
  SCREEN_INLINE void vRel2AbsY(GfxInt &liGfxY) { liGfxY += miGfxRefPosy1; }
 1e6:	b292      	uxth	r2, r2
 1e8:	b29b      	uxth	r3, r3
 1ea:	fa1f fc8c 	uxth.w	ip, ip
  FRet i8BitXorRaw(GfxInt lixDestX, GfxInt lixDestY)
 1ee:	b087      	sub	sp, #28
 1f0:	eb01 060c 	add.w	r6, r1, ip
      miGfxDestY2 = miGfxDestY1 + mpcSprite->miGfxHeight - 1;
 1f4:	18d7      	adds	r7, r2, r3
      miGfxDestX2 = miGfxDestX1 + mpcSprite->miGfxWidth - 1;
 1f6:	b236      	sxth	r6, r6
      miGfxDestY2 = miGfxDestY1 + mpcSprite->miGfxHeight - 1;
 1f8:	b23f      	sxth	r7, r7
  SCREEN_INLINE void vRel2AbsX(GfxInt &liGfxX) { liGfxX += miGfxRefPosx1; }
 1fa:	fa0f fa81 	sxth.w	sl, r1
  SCREEN_INLINE void vRel2AbsY(GfxInt &liGfxY) { liGfxY += miGfxRefPosy1; }
 1fe:	fa0f fe82 	sxth.w	lr, r2
 202:	9301      	str	r3, [sp, #4]
      miGfxDestX2 = miGfxDestX1 + mpcSprite->miGfxWidth - 1;
 204:	8486      	strh	r6, [r0, #36]	; 0x24
      miGfxDestY2 = miGfxDestY1 + mpcSprite->miGfxHeight - 1;
 206:	84c7      	strh	r7, [r0, #38]	; 0x26
      miGfxDestX1 = liGfxDestX1;
 208:	f8a0 a020 	strh.w	sl, [r0, #32]
      miGfxDestY1 = liGfxDestY1;
 20c:	f8a0 e022 	strh.w	lr, [r0, #34]	; 0x22
                                                                       (liGfxX2 >= miGfxClipPosx1) && (liGfxY2 >= miGfxClipPosy1));}
 210:	f1b9 0f00 	cmp.w	r9, #0
 214:	f000 80ae 	beq.w	374 <cRes8b_Bpp1_1G_SpriteEngine_Bpp16_5R6G5B::i8BitXorRaw(short, short)+0x1b0>
                                                                       (liGfxX1 <= miGfxClipPosx2) && (liGfxY1 <= miGfxClipPosy2) &&
 218:	f9b5 900c 	ldrsh.w	r9, [r5, #12]
                             GfxInt liGfxX2, GfxInt liGfxY2) { return ((mbVisible) &&
 21c:	45ca      	cmp	sl, r9
 21e:	f300 80a9 	bgt.w	374 <cRes8b_Bpp1_1G_SpriteEngine_Bpp16_5R6G5B::i8BitXorRaw(short, short)+0x1b0>
                                                                       (liGfxX1 <= miGfxClipPosx2) && (liGfxY1 <= miGfxClipPosy2) &&
 222:	f9b5 b00e 	ldrsh.w	fp, [r5, #14]
 226:	45de      	cmp	lr, fp
 228:	f300 80a4 	bgt.w	374 <cRes8b_Bpp1_1G_SpriteEngine_Bpp16_5R6G5B::i8BitXorRaw(short, short)+0x1b0>
                                                                       (liGfxX2 >= miGfxClipPosx1) && (liGfxY2 >= miGfxClipPosy1));}
 22c:	f9b5 3008 	ldrsh.w	r3, [r5, #8]
                                                                       (liGfxX1 <= miGfxClipPosx2) && (liGfxY1 <= miGfxClipPosy2) &&
 230:	9303      	str	r3, [sp, #12]
 232:	429e      	cmp	r6, r3
 234:	f2c0 809e 	blt.w	374 <cRes8b_Bpp1_1G_SpriteEngine_Bpp16_5R6G5B::i8BitXorRaw(short, short)+0x1b0>
                                                                       (liGfxX2 >= miGfxClipPosx1) && (liGfxY2 >= miGfxClipPosy1));}
 238:	f9b5 300a 	ldrsh.w	r3, [r5, #10]
 23c:	9304      	str	r3, [sp, #16]
 23e:	429f      	cmp	r7, r3
 240:	f2c0 8098 	blt.w	374 <cRes8b_Bpp1_1G_SpriteEngine_Bpp16_5R6G5B::i8BitXorRaw(short, short)+0x1b0>
        miGfxSpriteX2 = mpcSprite->miGfxWidth - 1;
 244:	fa0f fc8c 	sxth.w	ip, ip
 248:	f8cd c014 	str.w	ip, [sp, #20]
        miGfxSpriteY2 = mpcSprite->miGfxHeight - 1;
 24c:	f9bd 3004 	ldrsh.w	r3, [sp, #4]
 250:	9301      	str	r3, [sp, #4]
        miGfxSpriteX2 = mpcSprite->miGfxWidth - 1;
 252:	9b05      	ldr	r3, [sp, #20]
 254:	8283      	strh	r3, [r0, #20]
        miGfxSpriteY2 = mpcSprite->miGfxHeight - 1;
 256:	9b01      	ldr	r3, [sp, #4]
 258:	82c3      	strh	r3, [r0, #22]
        if (miGfxDestX1 < mpcScreenDest->miGfxClipPosx1) { miGfxSpriteX1 = mpcScreenDest->miGfxClipPosx1 - miGfxDestX1; miGfxDestX1 = mpcScreenDest->miGfxClipPosx1; }
 25a:	9b03      	ldr	r3, [sp, #12]
        miGfxSpriteX2 = mpcSprite->miGfxWidth - 1;
 25c:	f8cd c008 	str.w	ip, [sp, #8]
        if (miGfxDestX1 < mpcScreenDest->miGfxClipPosx1) { miGfxSpriteX1 = mpcScreenDest->miGfxClipPosx1 - miGfxDestX1; miGfxDestX1 = mpcScreenDest->miGfxClipPosx1; }
 260:	459a      	cmp	sl, r3
        miGfxSpriteX1 = 0;
 262:	f04f 0c00 	mov.w	ip, #0
 266:	f8c0 c010 	str.w	ip, [r0, #16]
        if (miGfxDestX1 < mpcScreenDest->miGfxClipPosx1) { miGfxSpriteX1 = mpcScreenDest->miGfxClipPosx1 - miGfxDestX1; miGfxDestX1 = mpcScreenDest->miGfxClipPosx1; }
 26a:	f280 8089 	bge.w	380 <cRes8b_Bpp1_1G_SpriteEngine_Bpp16_5R6G5B::i8BitXorRaw(short, short)+0x1bc>
 26e:	1a59      	subs	r1, r3, r1
 270:	b289      	uxth	r1, r1
 272:	fa0f fc81 	sxth.w	ip, r1
 276:	9103      	str	r1, [sp, #12]
 278:	8403      	strh	r3, [r0, #32]
 27a:	469a      	mov	sl, r3
 27c:	f8a0 c010 	strh.w	ip, [r0, #16]
        if (miGfxDestY1 < mpcScreenDest->miGfxClipPosy1) { miGfxSpriteY1 = mpcScreenDest->miGfxClipPosy1 - miGfxDestY1; miGfxDestY1 = mpcScreenDest->miGfxClipPosy1; }
 280:	9b04      	ldr	r3, [sp, #16]
 282:	459e      	cmp	lr, r3
 284:	da7a      	bge.n	37c <cRes8b_Bpp1_1G_SpriteEngine_Bpp16_5R6G5B::i8BitXorRaw(short, short)+0x1b8>
 286:	1a9a      	subs	r2, r3, r2
 288:	b292      	uxth	r2, r2
 28a:	b211      	sxth	r1, r2
 28c:	9104      	str	r1, [sp, #16]
 28e:	8443      	strh	r3, [r0, #34]	; 0x22
 290:	469e      	mov	lr, r3
 292:	9b04      	ldr	r3, [sp, #16]
 294:	8243      	strh	r3, [r0, #18]
 296:	fb03 cc08 	mla	ip, r3, r8, ip
        if (miGfxDestX2 > mpcScreenDest->miGfxClipPosx2) miGfxSpriteX2 = miGfxSpriteX1 + mpcScreenDest->miGfxClipPosx2 - miGfxDestX1;
 29a:	454e      	cmp	r6, r9
 29c:	dd07      	ble.n	2ae <cRes8b_Bpp1_1G_SpriteEngine_Bpp16_5R6G5B::i8BitXorRaw(short, short)+0xea>
 29e:	9b03      	ldr	r3, [sp, #12]
 2a0:	eb03 0609 	add.w	r6, r3, r9
 2a4:	eba6 060a 	sub.w	r6, r6, sl
 2a8:	b233      	sxth	r3, r6
 2aa:	9302      	str	r3, [sp, #8]
 2ac:	8283      	strh	r3, [r0, #20]
        if (miGfxDestY2 > mpcScreenDest->miGfxClipPosy2) miGfxSpriteY2 = miGfxSpriteY1 + mpcScreenDest->miGfxClipPosy2 - miGfxDestY1;
 2ae:	455f      	cmp	r7, fp
 2b0:	dd06      	ble.n	2c0 <cRes8b_Bpp1_1G_SpriteEngine_Bpp16_5R6G5B::i8BitXorRaw(short, short)+0xfc>
 2b2:	eb02 030b 	add.w	r3, r2, fp
 2b6:	eba3 030e 	sub.w	r3, r3, lr
 2ba:	b21b      	sxth	r3, r3
 2bc:	9301      	str	r3, [sp, #4]
 2be:	82c3      	strh	r3, [r0, #22]
    muixXCnt = (miGfxSpriteX2 - miGfxSpriteX1) + 1;
 2c0:	9b03      	ldr	r3, [sp, #12]
    luixBytePosDest = (GfxImgSize)(miGfxDestY1 * mpcScreenDest->mpcBm->miGfxWidth + miGfxDestX1);
 2c2:	696d      	ldr	r5, [r5, #20]
    mpui8Sprite = mpcSprite->mpui8Data + BM_BPP1_1G_PXLIDX2BYTEPOS(muixBytePosSprite);
 2c4:	6827      	ldr	r7, [r4, #0]
    luixBytePosDest = (GfxImgSize)(miGfxDestY1 * mpcScreenDest->mpcBm->miGfxWidth + miGfxDestX1);
 2c6:	f8b5 8004 	ldrh.w	r8, [r5, #4]
    mpui8Dest = mpcScreenDest->mpcBm->mpui8Data + BM_BPP16_5R6G5B_PXLIDX2BYTEPOS(luixBytePosDest);
 2ca:	682e      	ldr	r6, [r5, #0]
    muixBytePosSprite = (GfxImgSize)(miGfxSpriteY1 * mpcSprite->miGfxWidth + miGfxSpriteX1);
 2cc:	f8c0 c034 	str.w	ip, [r0, #52]	; 0x34
    muixXCnt = (miGfxSpriteX2 - miGfxSpriteX1) + 1;
 2d0:	f1c3 0101 	rsb	r1, r3, #1
    muixYCnt = (miGfxSpriteY2 - miGfxSpriteY1) + 1;
 2d4:	9b01      	ldr	r3, [sp, #4]
 2d6:	f1c2 0201 	rsb	r2, r2, #1
 2da:	4413      	add	r3, r2
    muixXCnt = (miGfxSpriteX2 - miGfxSpriteX1) + 1;
 2dc:	9a02      	ldr	r2, [sp, #8]
    luixBytePosDest = (GfxImgSize)(miGfxDestY1 * mpcScreenDest->mpcBm->miGfxWidth + miGfxDestX1);
 2de:	fb1e aa08 	smlabb	sl, lr, r8, sl
    muixYCnt = (miGfxSpriteY2 - miGfxSpriteY1) + 1;
 2e2:	b21b      	sxth	r3, r3
    muixXCnt = (miGfxSpriteX2 - miGfxSpriteX1) + 1;
 2e4:	440a      	add	r2, r1
    mpui8Sprite = mpcSprite->mpui8Data + BM_BPP1_1G_PXLIDX2BYTEPOS(muixBytePosSprite);
 2e6:	eb07 0edc 	add.w	lr, r7, ip, lsr #3
    muixXCnt = (miGfxSpriteX2 - miGfxSpriteX1) + 1;
 2ea:	b212      	sxth	r2, r2
    mpui8Dest = mpcScreenDest->mpcBm->mpui8Data + BM_BPP16_5R6G5B_PXLIDX2BYTEPOS(luixBytePosDest);
 2ec:	eb06 0a4a 	add.w	sl, r6, sl, lsl #1
    muixBitPosSprite = BM_BPP1_1G_PXLIDX2BITPOS(muixBytePosSprite);
 2f0:	f00c 0707 	and.w	r7, ip, #7
      while (muixYCnt > 0)
 2f4:	2b00      	cmp	r3, #0
    mpui8Dest = mpcScreenDest->mpcBm->mpui8Data + BM_BPP16_5R6G5B_PXLIDX2BYTEPOS(luixBytePosDest);
 2f6:	f8c0 a028 	str.w	sl, [r0, #40]	; 0x28
    muixYCnt = (miGfxSpriteY2 - miGfxSpriteY1) + 1;
 2fa:	8583      	strh	r3, [r0, #44]	; 0x2c
    muixXCnt = (miGfxSpriteX2 - miGfxSpriteX1) + 1;
 2fc:	85c2      	strh	r2, [r0, #46]	; 0x2e
    mpui8Sprite = mpcSprite->mpui8Data + BM_BPP1_1G_PXLIDX2BYTEPOS(muixBytePosSprite);
 2fe:	f8c0 e018 	str.w	lr, [r0, #24]
    muixBitPosSprite = BM_BPP1_1G_PXLIDX2BITPOS(muixBytePosSprite);
 302:	6387      	str	r7, [r0, #56]	; 0x38
      while (muixYCnt > 0)
 304:	dd36      	ble.n	374 <cRes8b_Bpp1_1G_SpriteEngine_Bpp16_5R6G5B::i8BitXorRaw(short, short)+0x1b0>
        cMemTools::vMemBit2u16Xor(mpui8Sprite, muixBitPosSprite, (uint16*)mpui8Dest, mui32Col, muixXCnt);
 306:	f8b0 8030 	ldrh.w	r8, [r0, #48]	; 0x30

  static void vMemBit2u16Xor(uint8* lpui8Source, uint8  lui8SrcStartBitPos, uint16* lpui16Dest, uint16 lui16Value, uint32 luixSize)
  {
    uint8 lui8BitMskSource;

    lui8BitMskSource = 128 >> lui8SrcStartBitPos;
 30a:	46a4      	mov	ip, r4
 30c:	f04f 0980 	mov.w	r9, #128	; 0x80
 310:	4674      	mov	r4, lr
 312:	46ae      	mov	lr, r5
 314:	4655      	mov	r5, sl
 316:	fa49 f307 	asr.w	r3, r9, r7
 31a:	b2db      	uxtb	r3, r3

    while (luixSize > 0)
 31c:	b19a      	cbz	r2, 346 <cRes8b_Bpp1_1G_SpriteEngine_Bpp16_5R6G5B::i8BitXorRaw(short, short)+0x182>
 31e:	462e      	mov	r6, r5
 320:	46a2      	mov	sl, r4
    {
      if (*lpui8Source & lui8BitMskSource)
 322:	f89a 1000 	ldrb.w	r1, [sl]
 326:	4019      	ands	r1, r3
      {
        *lpui16Dest ^= lui16Value;
 328:	bf1c      	itt	ne
 32a:	8831      	ldrhne	r1, [r6, #0]
 32c:	ea88 0101 	eorne.w	r1, r8, r1
  static inline void  vBitIncPos(u8* &pui8Ptr, u8 &ui8Mask)                                 {if ((ui8Mask) > 1) {ui8Mask >>= 1;} else {ui8Mask = 128; pui8Ptr++;}}
 330:	2b01      	cmp	r3, #1
 332:	bf12      	itee	ne
 334:	085b      	lsrne	r3, r3, #1
 336:	2380      	moveq	r3, #128	; 0x80
 338:	f10a 0a01 	addeq.w	sl, sl, #1
    while (luixSize > 0)
 33c:	3a01      	subs	r2, #1
      }
      else
      {
        *lpui16Dest = 0;
 33e:	8031      	strh	r1, [r6, #0]
      }

      vBitIncPos(lpui8Source, lui8BitMskSource);
      lpui16Dest++;
 340:	f106 0602 	add.w	r6, r6, #2
    while (luixSize > 0)
 344:	d1ed      	bne.n	322 <cRes8b_Bpp1_1G_SpriteEngine_Bpp16_5R6G5B::i8BitXorRaw(short, short)+0x15e>
        muixYCnt--;
 346:	8d83      	ldrh	r3, [r0, #44]	; 0x2c
    muixBitPosSprite += mpcSprite->miGfxWidth;
 348:	f9bc 2004 	ldrsh.w	r2, [ip, #4]
    mpui8Dest += BM_BPP16_5R6G5B_PXLIDX2BYTEPOS(mpcScreenDest->mpcBm->miGfxWidth);
 34c:	f9be 1004 	ldrsh.w	r1, [lr, #4]
        muixYCnt--;
 350:	3b01      	subs	r3, #1
    muixBitPosSprite += mpcSprite->miGfxWidth;
 352:	4417      	add	r7, r2
        muixYCnt--;
 354:	b21b      	sxth	r3, r3
    mpui8Sprite += BM_BPP1_1G_PXLIDX2BYTEPOS(muixBitPosSprite);
 356:	eb04 04d7 	add.w	r4, r4, r7, lsr #3
    mpui8Dest += BM_BPP16_5R6G5B_PXLIDX2BYTEPOS(mpcScreenDest->mpcBm->miGfxWidth);
 35a:	eb05 0541 	add.w	r5, r5, r1, lsl #1
    muixBitPosSprite = BM_BPP1_1G_PXLIDX2BITPOS(muixBitPosSprite);
 35e:	f007 0707 	and.w	r7, r7, #7
      while (muixYCnt > 0)
 362:	2b00      	cmp	r3, #0
    mpui8Sprite += BM_BPP1_1G_PXLIDX2BYTEPOS(muixBitPosSprite);
 364:	6184      	str	r4, [r0, #24]
    muixBitPosSprite = BM_BPP1_1G_PXLIDX2BITPOS(muixBitPosSprite);
 366:	6387      	str	r7, [r0, #56]	; 0x38
        muixYCnt--;
 368:	8583      	strh	r3, [r0, #44]	; 0x2c
    mpui8Dest += BM_BPP16_5R6G5B_PXLIDX2BYTEPOS(mpcScreenDest->mpcBm->miGfxWidth);
 36a:	6285      	str	r5, [r0, #40]	; 0x28
      while (muixYCnt > 0)
 36c:	dd02      	ble.n	374 <cRes8b_Bpp1_1G_SpriteEngine_Bpp16_5R6G5B::i8BitXorRaw(short, short)+0x1b0>
 36e:	f9b0 202e 	ldrsh.w	r2, [r0, #46]	; 0x2e
 372:	e7d0      	b.n	316 <cRes8b_Bpp1_1G_SpriteEngine_Bpp16_5R6G5B::i8BitXorRaw(short, short)+0x152>
  }
 374:	2000      	movs	r0, #0
 376:	b007      	add	sp, #28
 378:	e8bd 8ff0 	ldmia.w	sp!, {r4, r5, r6, r7, r8, r9, sl, fp, pc}
        if (miGfxDestY1 < mpcScreenDest->miGfxClipPosy1) { miGfxSpriteY1 = mpcScreenDest->miGfxClipPosy1 - miGfxDestY1; miGfxDestY1 = mpcScreenDest->miGfxClipPosy1; }
 37c:	2200      	movs	r2, #0
 37e:	e78c      	b.n	29a <cRes8b_Bpp1_1G_SpriteEngine_Bpp16_5R6G5B::i8BitXorRaw(short, short)+0xd6>
        if (miGfxDestX1 < mpcScreenDest->miGfxClipPosx1) { miGfxSpriteX1 = mpcScreenDest->miGfxClipPosx1 - miGfxDestX1; miGfxDestX1 = mpcScreenDest->miGfxClipPosx1; }
 380:	f8cd c00c 	str.w	ip, [sp, #12]
 384:	e77c      	b.n	280 <cRes8b_Bpp1_1G_SpriteEngine_Bpp16_5R6G5B::i8BitXorRaw(short, short)+0xbc>
 386:	bf00      	nop

Disassembly of section .text._ZN40cRes8b_Bpp1_1G_SpriteEngine_Bpp16_5R6G5B11i8BitAndRawEss:

00000000 <non-virtual thunk to cRes8b_Bpp1_1G_SpriteEngine_Bpp16_5R6G5B::i8BitAndRaw(short, short)>:
   0:	e92d 4ff0 	stmdb	sp!, {r4, r5, r6, r7, r8, r9, sl, fp, lr}
   4:	6985      	ldr	r5, [r0, #24]
   6:	6884      	ldr	r4, [r0, #8]
   8:	88af      	ldrh	r7, [r5, #4]
   a:	88ee      	ldrh	r6, [r5, #6]
   c:	f9b4 8004 	ldrsh.w	r8, [r4, #4]
  10:	88e3      	ldrh	r3, [r4, #6]
  12:	f895 9010 	ldrb.w	r9, [r5, #16]
  16:	4439      	add	r1, r7
  18:	4432      	add	r2, r6
  1a:	f108 3cff 	add.w	ip, r8, #4294967295
  1e:	3b01      	subs	r3, #1
  20:	b289      	uxth	r1, r1
  22:	b292      	uxth	r2, r2
  24:	b29b      	uxth	r3, r3
  26:	fa1f fc8c 	uxth.w	ip, ip
  2a:	b087      	sub	sp, #28
  2c:	eb0c 0601 	add.w	r6, ip, r1
  30:	18d7      	adds	r7, r2, r3
  32:	b236      	sxth	r6, r6
  34:	b23f      	sxth	r7, r7
  36:	fa0f fa81 	sxth.w	sl, r1
  3a:	fa0f fe82 	sxth.w	lr, r2
  3e:	9301      	str	r3, [sp, #4]
  40:	8406      	strh	r6, [r0, #32]
  42:	8447      	strh	r7, [r0, #34]	; 0x22
  44:	f8a0 a01c 	strh.w	sl, [r0, #28]
  48:	f8a0 e01e 	strh.w	lr, [r0, #30]
  4c:	f1b9 0f00 	cmp.w	r9, #0
  50:	f000 80ae 	beq.w	1b0 <non-virtual thunk to cRes8b_Bpp1_1G_SpriteEngine_Bpp16_5R6G5B::i8BitAndRaw(short, short)+0x1b0>
  54:	f9b5 900c 	ldrsh.w	r9, [r5, #12]
  58:	45ca      	cmp	sl, r9
  5a:	f300 80a9 	bgt.w	1b0 <non-virtual thunk to cRes8b_Bpp1_1G_SpriteEngine_Bpp16_5R6G5B::i8BitAndRaw(short, short)+0x1b0>
  5e:	f9b5 b00e 	ldrsh.w	fp, [r5, #14]
  62:	45de      	cmp	lr, fp
  64:	f300 80a4 	bgt.w	1b0 <non-virtual thunk to cRes8b_Bpp1_1G_SpriteEngine_Bpp16_5R6G5B::i8BitAndRaw(short, short)+0x1b0>
  68:	f9b5 3008 	ldrsh.w	r3, [r5, #8]
  6c:	9303      	str	r3, [sp, #12]
  6e:	429e      	cmp	r6, r3
  70:	f2c0 809e 	blt.w	1b0 <non-virtual thunk to cRes8b_Bpp1_1G_SpriteEngine_Bpp16_5R6G5B::i8BitAndRaw(short, short)+0x1b0>
  74:	f9b5 300a 	ldrsh.w	r3, [r5, #10]
  78:	9304      	str	r3, [sp, #16]
  7a:	429f      	cmp	r7, r3
  7c:	f2c0 8098 	blt.w	1b0 <non-virtual thunk to cRes8b_Bpp1_1G_SpriteEngine_Bpp16_5R6G5B::i8BitAndRaw(short, short)+0x1b0>
  80:	fa0f fc8c 	sxth.w	ip, ip
  84:	f8cd c014 	str.w	ip, [sp, #20]
  88:	f9bd 3004 	ldrsh.w	r3, [sp, #4]
  8c:	9301      	str	r3, [sp, #4]
  8e:	9b05      	ldr	r3, [sp, #20]
  90:	8203      	strh	r3, [r0, #16]
  92:	9b01      	ldr	r3, [sp, #4]
  94:	8243      	strh	r3, [r0, #18]
  96:	9b03      	ldr	r3, [sp, #12]
  98:	f8cd c008 	str.w	ip, [sp, #8]
  9c:	459a      	cmp	sl, r3
  9e:	f04f 0c00 	mov.w	ip, #0
  a2:	f8c0 c00c 	str.w	ip, [r0, #12]
  a6:	f280 8089 	bge.w	1bc <non-virtual thunk to cRes8b_Bpp1_1G_SpriteEngine_Bpp16_5R6G5B::i8BitAndRaw(short, short)+0x1bc>
  aa:	1a59      	subs	r1, r3, r1
  ac:	b289      	uxth	r1, r1
  ae:	fa0f fc81 	sxth.w	ip, r1
  b2:	9103      	str	r1, [sp, #12]
  b4:	8383      	strh	r3, [r0, #28]
  b6:	469a      	mov	sl, r3
  b8:	f8a0 c00c 	strh.w	ip, [r0, #12]
  bc:	9b04      	ldr	r3, [sp, #16]
  be:	459e      	cmp	lr, r3
  c0:	da7a      	bge.n	1b8 <non-virtual thunk to cRes8b_Bpp1_1G_SpriteEngine_Bpp16_5R6G5B::i8BitAndRaw(short, short)+0x1b8>
  c2:	1a9a      	subs	r2, r3, r2
  c4:	b292      	uxth	r2, r2
  c6:	b211      	sxth	r1, r2
  c8:	9104      	str	r1, [sp, #16]
  ca:	83c3      	strh	r3, [r0, #30]
  cc:	469e      	mov	lr, r3
  ce:	9b04      	ldr	r3, [sp, #16]
  d0:	81c3      	strh	r3, [r0, #14]
  d2:	fb03 cc08 	mla	ip, r3, r8, ip
  d6:	454e      	cmp	r6, r9
  d8:	dd07      	ble.n	ea <non-virtual thunk to cRes8b_Bpp1_1G_SpriteEngine_Bpp16_5R6G5B::i8BitAndRaw(short, short)+0xea>
  da:	9b03      	ldr	r3, [sp, #12]
  dc:	eb03 0609 	add.w	r6, r3, r9
  e0:	eba6 060a 	sub.w	r6, r6, sl
  e4:	b233      	sxth	r3, r6
  e6:	9302      	str	r3, [sp, #8]
  e8:	8203      	strh	r3, [r0, #16]
  ea:	455f      	cmp	r7, fp
  ec:	dd06      	ble.n	fc <non-virtual thunk to cRes8b_Bpp1_1G_SpriteEngine_Bpp16_5R6G5B::i8BitAndRaw(short, short)+0xfc>
  ee:	eb02 030b 	add.w	r3, r2, fp
  f2:	eba3 030e 	sub.w	r3, r3, lr
  f6:	b21b      	sxth	r3, r3
  f8:	9301      	str	r3, [sp, #4]
  fa:	8243      	strh	r3, [r0, #18]
  fc:	9b03      	ldr	r3, [sp, #12]
  fe:	696d      	ldr	r5, [r5, #20]
 100:	6827      	ldr	r7, [r4, #0]
 102:	f8b5 8004 	ldrh.w	r8, [r5, #4]
 106:	682e      	ldr	r6, [r5, #0]
 108:	f8c0 c030 	str.w	ip, [r0, #48]	; 0x30
 10c:	f1c3 0101 	rsb	r1, r3, #1
 110:	9b01      	ldr	r3, [sp, #4]
 112:	f1c2 0201 	rsb	r2, r2, #1
 116:	4413      	add	r3, r2
 118:	9a02      	ldr	r2, [sp, #8]
 11a:	fb1e aa08 	smlabb	sl, lr, r8, sl
 11e:	b21b      	sxth	r3, r3
 120:	440a      	add	r2, r1
 122:	eb07 0edc 	add.w	lr, r7, ip, lsr #3
 126:	b212      	sxth	r2, r2
 128:	eb06 0a4a 	add.w	sl, r6, sl, lsl #1
 12c:	f00c 0707 	and.w	r7, ip, #7
 130:	2b00      	cmp	r3, #0
 132:	f8c0 a024 	str.w	sl, [r0, #36]	; 0x24
 136:	8503      	strh	r3, [r0, #40]	; 0x28
 138:	8542      	strh	r2, [r0, #42]	; 0x2a
 13a:	f8c0 e014 	str.w	lr, [r0, #20]
 13e:	6347      	str	r7, [r0, #52]	; 0x34
 140:	dd36      	ble.n	1b0 <non-virtual thunk to cRes8b_Bpp1_1G_SpriteEngine_Bpp16_5R6G5B::i8BitAndRaw(short, short)+0x1b0>
 142:	f8b0 802c 	ldrh.w	r8, [r0, #44]	; 0x2c
 146:	46a4      	mov	ip, r4
 148:	f04f 0980 	mov.w	r9, #128	; 0x80
 14c:	4674      	mov	r4, lr
 14e:	46ae      	mov	lr, r5
 150:	4655      	mov	r5, sl
 152:	fa49 f307 	asr.w	r3, r9, r7
 156:	b2db      	uxtb	r3, r3
 158:	b19a      	cbz	r2, 182 <non-virtual thunk to cRes8b_Bpp1_1G_SpriteEngine_Bpp16_5R6G5B::i8BitAndRaw(short, short)+0x182>
 15a:	462e      	mov	r6, r5
 15c:	46a2      	mov	sl, r4
 15e:	f89a 1000 	ldrb.w	r1, [sl]
 162:	4019      	ands	r1, r3
 164:	bf1c      	itt	ne
 166:	8831      	ldrhne	r1, [r6, #0]
 168:	ea08 0101 	andne.w	r1, r8, r1
 16c:	2b01      	cmp	r3, #1
 16e:	bf12      	itee	ne
 170:	085b      	lsrne	r3, r3, #1
 172:	2380      	moveq	r3, #128	; 0x80
 174:	f10a 0a01 	addeq.w	sl, sl, #1
 178:	3a01      	subs	r2, #1
 17a:	8031      	strh	r1, [r6, #0]
 17c:	f106 0602 	add.w	r6, r6, #2
 180:	d1ed      	bne.n	15e <non-virtual thunk to cRes8b_Bpp1_1G_SpriteEngine_Bpp16_5R6G5B::i8BitAndRaw(short, short)+0x15e>
 182:	8d03      	ldrh	r3, [r0, #40]	; 0x28
 184:	f9bc 2004 	ldrsh.w	r2, [ip, #4]
 188:	f9be 1004 	ldrsh.w	r1, [lr, #4]
 18c:	3b01      	subs	r3, #1
 18e:	4417      	add	r7, r2
 190:	b21b      	sxth	r3, r3
 192:	eb04 04d7 	add.w	r4, r4, r7, lsr #3
 196:	eb05 0541 	add.w	r5, r5, r1, lsl #1
 19a:	f007 0707 	and.w	r7, r7, #7
 19e:	2b00      	cmp	r3, #0
 1a0:	6144      	str	r4, [r0, #20]
 1a2:	6347      	str	r7, [r0, #52]	; 0x34
 1a4:	8503      	strh	r3, [r0, #40]	; 0x28
 1a6:	6245      	str	r5, [r0, #36]	; 0x24
 1a8:	dd02      	ble.n	1b0 <non-virtual thunk to cRes8b_Bpp1_1G_SpriteEngine_Bpp16_5R6G5B::i8BitAndRaw(short, short)+0x1b0>
 1aa:	f9b0 202a 	ldrsh.w	r2, [r0, #42]	; 0x2a
 1ae:	e7d0      	b.n	152 <non-virtual thunk to cRes8b_Bpp1_1G_SpriteEngine_Bpp16_5R6G5B::i8BitAndRaw(short, short)+0x152>
 1b0:	2000      	movs	r0, #0
 1b2:	b007      	add	sp, #28
 1b4:	e8bd 8ff0 	ldmia.w	sp!, {r4, r5, r6, r7, r8, r9, sl, fp, pc}
 1b8:	2200      	movs	r2, #0
 1ba:	e78c      	b.n	d6 <non-virtual thunk to cRes8b_Bpp1_1G_SpriteEngine_Bpp16_5R6G5B::i8BitAndRaw(short, short)+0xd6>
 1bc:	f8cd c00c 	str.w	ip, [sp, #12]
 1c0:	e77c      	b.n	bc <non-virtual thunk to cRes8b_Bpp1_1G_SpriteEngine_Bpp16_5R6G5B::i8BitAndRaw(short, short)+0xbc>
 1c2:	bf00      	nop

000001c4 <cRes8b_Bpp1_1G_SpriteEngine_Bpp16_5R6G5B::i8BitAndRaw(short, short)>:
  FRet i8BitAndRaw(GfxInt lixDestX, GfxInt lixDestY)
 1c4:	e92d 4ff0 	stmdb	sp!, {r4, r5, r6, r7, r8, r9, sl, fp, lr}
    mpcScreenDest->vRel2Abs(lixDestX, lixDestY);
 1c8:	69c5      	ldr	r5, [r0, #28]
      miGfxDestX2 = miGfxDestX1 + mpcSprite->miGfxWidth - 1;
 1ca:	68c4      	ldr	r4, [r0, #12]
  SCREEN_INLINE void vRel2AbsX(GfxInt &liGfxX) { liGfxX += miGfxRefPosx1; }
 1cc:	88af      	ldrh	r7, [r5, #4]
  SCREEN_INLINE void vRel2AbsY(GfxInt &liGfxY) { liGfxY += miGfxRefPosy1; }
 1ce:	88ee      	ldrh	r6, [r5, #6]
 1d0:	f9b4 8004 	ldrsh.w	r8, [r4, #4]
 1d4:	88e3      	ldrh	r3, [r4, #6]
                                                                       (liGfxX2 >= miGfxClipPosx1) && (liGfxY2 >= miGfxClipPosy1));}
 1d6:	f895 9010 	ldrb.w	r9, [r5, #16]
  SCREEN_INLINE void vRel2AbsX(GfxInt &liGfxX) { liGfxX += miGfxRefPosx1; }
 1da:	4439      	add	r1, r7
  SCREEN_INLINE void vRel2AbsY(GfxInt &liGfxY) { liGfxY += miGfxRefPosy1; }
 1dc:	4432      	add	r2, r6
 1de:	f108 3cff 	add.w	ip, r8, #4294967295
 1e2:	3b01      	subs	r3, #1
  SCREEN_INLINE void vRel2AbsX(GfxInt &liGfxX) { liGfxX += miGfxRefPosx1; }
 1e4:	b289      	uxth	r1, r1
  SCREEN_INLINE void vRel2AbsY(GfxInt &liGfxY) { liGfxY += miGfxRefPosy1; }
 1e6:	b292      	uxth	r2, r2
 1e8:	b29b      	uxth	r3, r3
 1ea:	fa1f fc8c 	uxth.w	ip, ip
  FRet i8BitAndRaw(GfxInt lixDestX, GfxInt lixDestY)
 1ee:	b087      	sub	sp, #28
 1f0:	eb01 060c 	add.w	r6, r1, ip
      miGfxDestY2 = miGfxDestY1 + mpcSprite->miGfxHeight - 1;
 1f4:	18d7      	adds	r7, r2, r3
      miGfxDestX2 = miGfxDestX1 + mpcSprite->miGfxWidth - 1;
 1f6:	b236      	sxth	r6, r6
      miGfxDestY2 = miGfxDestY1 + mpcSprite->miGfxHeight - 1;
 1f8:	b23f      	sxth	r7, r7
  SCREEN_INLINE void vRel2AbsX(GfxInt &liGfxX) { liGfxX += miGfxRefPosx1; }
 1fa:	fa0f fa81 	sxth.w	sl, r1
  SCREEN_INLINE void vRel2AbsY(GfxInt &liGfxY) { liGfxY += miGfxRefPosy1; }
 1fe:	fa0f fe82 	sxth.w	lr, r2
 202:	9301      	str	r3, [sp, #4]
      miGfxDestX2 = miGfxDestX1 + mpcSprite->miGfxWidth - 1;
 204:	8486      	strh	r6, [r0, #36]	; 0x24
      miGfxDestY2 = miGfxDestY1 + mpcSprite->miGfxHeight - 1;
 206:	84c7      	strh	r7, [r0, #38]	; 0x26
      miGfxDestX1 = liGfxDestX1;
 208:	f8a0 a020 	strh.w	sl, [r0, #32]
      miGfxDestY1 = liGfxDestY1;
 20c:	f8a0 e022 	strh.w	lr, [r0, #34]	; 0x22
                                                                       (liGfxX2 >= miGfxClipPosx1) && (liGfxY2 >= miGfxClipPosy1));}
 210:	f1b9 0f00 	cmp.w	r9, #0
 214:	f000 80ae 	beq.w	374 <cRes8b_Bpp1_1G_SpriteEngine_Bpp16_5R6G5B::i8BitAndRaw(short, short)+0x1b0>
                                                                       (liGfxX1 <= miGfxClipPosx2) && (liGfxY1 <= miGfxClipPosy2) &&
 218:	f9b5 900c 	ldrsh.w	r9, [r5, #12]
                             GfxInt liGfxX2, GfxInt liGfxY2) { return ((mbVisible) &&
 21c:	45ca      	cmp	sl, r9
 21e:	f300 80a9 	bgt.w	374 <cRes8b_Bpp1_1G_SpriteEngine_Bpp16_5R6G5B::i8BitAndRaw(short, short)+0x1b0>
                                                                       (liGfxX1 <= miGfxClipPosx2) && (liGfxY1 <= miGfxClipPosy2) &&
 222:	f9b5 b00e 	ldrsh.w	fp, [r5, #14]
 226:	45de      	cmp	lr, fp
 228:	f300 80a4 	bgt.w	374 <cRes8b_Bpp1_1G_SpriteEngine_Bpp16_5R6G5B::i8BitAndRaw(short, short)+0x1b0>
                                                                       (liGfxX2 >= miGfxClipPosx1) && (liGfxY2 >= miGfxClipPosy1));}
 22c:	f9b5 3008 	ldrsh.w	r3, [r5, #8]
                                                                       (liGfxX1 <= miGfxClipPosx2) && (liGfxY1 <= miGfxClipPosy2) &&
 230:	9303      	str	r3, [sp, #12]
 232:	429e      	cmp	r6, r3
 234:	f2c0 809e 	blt.w	374 <cRes8b_Bpp1_1G_SpriteEngine_Bpp16_5R6G5B::i8BitAndRaw(short, short)+0x1b0>
                                                                       (liGfxX2 >= miGfxClipPosx1) && (liGfxY2 >= miGfxClipPosy1));}
 238:	f9b5 300a 	ldrsh.w	r3, [r5, #10]
 23c:	9304      	str	r3, [sp, #16]
 23e:	429f      	cmp	r7, r3
 240:	f2c0 8098 	blt.w	374 <cRes8b_Bpp1_1G_SpriteEngine_Bpp16_5R6G5B::i8BitAndRaw(short, short)+0x1b0>
        miGfxSpriteX2 = mpcSprite->miGfxWidth - 1;
 244:	fa0f fc8c 	sxth.w	ip, ip
 248:	f8cd c014 	str.w	ip, [sp, #20]
        miGfxSpriteY2 = mpcSprite->miGfxHeight - 1;
 24c:	f9bd 3004 	ldrsh.w	r3, [sp, #4]
 250:	9301      	str	r3, [sp, #4]
        miGfxSpriteX2 = mpcSprite->miGfxWidth - 1;
 252:	9b05      	ldr	r3, [sp, #20]
 254:	8283      	strh	r3, [r0, #20]
        miGfxSpriteY2 = mpcSprite->miGfxHeight - 1;
 256:	9b01      	ldr	r3, [sp, #4]
 258:	82c3      	strh	r3, [r0, #22]
        if (miGfxDestX1 < mpcScreenDest->miGfxClipPosx1) { miGfxSpriteX1 = mpcScreenDest->miGfxClipPosx1 - miGfxDestX1; miGfxDestX1 = mpcScreenDest->miGfxClipPosx1; }
 25a:	9b03      	ldr	r3, [sp, #12]
        miGfxSpriteX2 = mpcSprite->miGfxWidth - 1;
 25c:	f8cd c008 	str.w	ip, [sp, #8]
        if (miGfxDestX1 < mpcScreenDest->miGfxClipPosx1) { miGfxSpriteX1 = mpcScreenDest->miGfxClipPosx1 - miGfxDestX1; miGfxDestX1 = mpcScreenDest->miGfxClipPosx1; }
 260:	459a      	cmp	sl, r3
        miGfxSpriteX1 = 0;
 262:	f04f 0c00 	mov.w	ip, #0
 266:	f8c0 c010 	str.w	ip, [r0, #16]
        if (miGfxDestX1 < mpcScreenDest->miGfxClipPosx1) { miGfxSpriteX1 = mpcScreenDest->miGfxClipPosx1 - miGfxDestX1; miGfxDestX1 = mpcScreenDest->miGfxClipPosx1; }
 26a:	f280 8089 	bge.w	380 <cRes8b_Bpp1_1G_SpriteEngine_Bpp16_5R6G5B::i8BitAndRaw(short, short)+0x1bc>
 26e:	1a59      	subs	r1, r3, r1
 270:	b289      	uxth	r1, r1
 272:	fa0f fc81 	sxth.w	ip, r1
 276:	9103      	str	r1, [sp, #12]
 278:	8403      	strh	r3, [r0, #32]
 27a:	469a      	mov	sl, r3
 27c:	f8a0 c010 	strh.w	ip, [r0, #16]
        if (miGfxDestY1 < mpcScreenDest->miGfxClipPosy1) { miGfxSpriteY1 = mpcScreenDest->miGfxClipPosy1 - miGfxDestY1; miGfxDestY1 = mpcScreenDest->miGfxClipPosy1; }
 280:	9b04      	ldr	r3, [sp, #16]
 282:	459e      	cmp	lr, r3
 284:	da7a      	bge.n	37c <cRes8b_Bpp1_1G_SpriteEngine_Bpp16_5R6G5B::i8BitAndRaw(short, short)+0x1b8>
 286:	1a9a      	subs	r2, r3, r2
 288:	b292      	uxth	r2, r2
 28a:	b211      	sxth	r1, r2
 28c:	9104      	str	r1, [sp, #16]
 28e:	8443      	strh	r3, [r0, #34]	; 0x22
 290:	469e      	mov	lr, r3
 292:	9b04      	ldr	r3, [sp, #16]
 294:	8243      	strh	r3, [r0, #18]
 296:	fb03 cc08 	mla	ip, r3, r8, ip
        if (miGfxDestX2 > mpcScreenDest->miGfxClipPosx2) miGfxSpriteX2 = miGfxSpriteX1 + mpcScreenDest->miGfxClipPosx2 - miGfxDestX1;
 29a:	454e      	cmp	r6, r9
 29c:	dd07      	ble.n	2ae <cRes8b_Bpp1_1G_SpriteEngine_Bpp16_5R6G5B::i8BitAndRaw(short, short)+0xea>
 29e:	9b03      	ldr	r3, [sp, #12]
 2a0:	eb03 0609 	add.w	r6, r3, r9
 2a4:	eba6 060a 	sub.w	r6, r6, sl
 2a8:	b233      	sxth	r3, r6
 2aa:	9302      	str	r3, [sp, #8]
 2ac:	8283      	strh	r3, [r0, #20]
        if (miGfxDestY2 > mpcScreenDest->miGfxClipPosy2) miGfxSpriteY2 = miGfxSpriteY1 + mpcScreenDest->miGfxClipPosy2 - miGfxDestY1;
 2ae:	455f      	cmp	r7, fp
 2b0:	dd06      	ble.n	2c0 <cRes8b_Bpp1_1G_SpriteEngine_Bpp16_5R6G5B::i8BitAndRaw(short, short)+0xfc>
 2b2:	eb02 030b 	add.w	r3, r2, fp
 2b6:	eba3 030e 	sub.w	r3, r3, lr
 2ba:	b21b      	sxth	r3, r3
 2bc:	9301      	str	r3, [sp, #4]
 2be:	82c3      	strh	r3, [r0, #22]
    muixXCnt = (miGfxSpriteX2 - miGfxSpriteX1) + 1;
 2c0:	9b03      	ldr	r3, [sp, #12]
    luixBytePosDest = (GfxImgSize)(miGfxDestY1 * mpcScreenDest->mpcBm->miGfxWidth + miGfxDestX1);
 2c2:	696d      	ldr	r5, [r5, #20]
    mpui8Sprite = mpcSprite->mpui8Data + BM_BPP1_1G_PXLIDX2BYTEPOS(muixBytePosSprite);
 2c4:	6827      	ldr	r7, [r4, #0]
    luixBytePosDest = (GfxImgSize)(miGfxDestY1 * mpcScreenDest->mpcBm->miGfxWidth + miGfxDestX1);
 2c6:	f8b5 8004 	ldrh.w	r8, [r5, #4]
    mpui8Dest = mpcScreenDest->mpcBm->mpui8Data + BM_BPP16_5R6G5B_PXLIDX2BYTEPOS(luixBytePosDest);
 2ca:	682e      	ldr	r6, [r5, #0]
    muixBytePosSprite = (GfxImgSize)(miGfxSpriteY1 * mpcSprite->miGfxWidth + miGfxSpriteX1);
 2cc:	f8c0 c034 	str.w	ip, [r0, #52]	; 0x34
    muixXCnt = (miGfxSpriteX2 - miGfxSpriteX1) + 1;
 2d0:	f1c3 0101 	rsb	r1, r3, #1
    muixYCnt = (miGfxSpriteY2 - miGfxSpriteY1) + 1;
 2d4:	9b01      	ldr	r3, [sp, #4]
 2d6:	f1c2 0201 	rsb	r2, r2, #1
 2da:	4413      	add	r3, r2
    muixXCnt = (miGfxSpriteX2 - miGfxSpriteX1) + 1;
 2dc:	9a02      	ldr	r2, [sp, #8]
    luixBytePosDest = (GfxImgSize)(miGfxDestY1 * mpcScreenDest->mpcBm->miGfxWidth + miGfxDestX1);
 2de:	fb1e aa08 	smlabb	sl, lr, r8, sl
    muixYCnt = (miGfxSpriteY2 - miGfxSpriteY1) + 1;
 2e2:	b21b      	sxth	r3, r3
    muixXCnt = (miGfxSpriteX2 - miGfxSpriteX1) + 1;
 2e4:	440a      	add	r2, r1
    mpui8Sprite = mpcSprite->mpui8Data + BM_BPP1_1G_PXLIDX2BYTEPOS(muixBytePosSprite);
 2e6:	eb07 0edc 	add.w	lr, r7, ip, lsr #3
    muixXCnt = (miGfxSpriteX2 - miGfxSpriteX1) + 1;
 2ea:	b212      	sxth	r2, r2
    mpui8Dest = mpcScreenDest->mpcBm->mpui8Data + BM_BPP16_5R6G5B_PXLIDX2BYTEPOS(luixBytePosDest);
 2ec:	eb06 0a4a 	add.w	sl, r6, sl, lsl #1
    muixBitPosSprite = BM_BPP1_1G_PXLIDX2BITPOS(muixBytePosSprite);
 2f0:	f00c 0707 	and.w	r7, ip, #7
      while (muixYCnt > 0)
 2f4:	2b00      	cmp	r3, #0
    mpui8Dest = mpcScreenDest->mpcBm->mpui8Data + BM_BPP16_5R6G5B_PXLIDX2BYTEPOS(luixBytePosDest);
 2f6:	f8c0 a028 	str.w	sl, [r0, #40]	; 0x28
    muixYCnt = (miGfxSpriteY2 - miGfxSpriteY1) + 1;
 2fa:	8583      	strh	r3, [r0, #44]	; 0x2c
    muixXCnt = (miGfxSpriteX2 - miGfxSpriteX1) + 1;
 2fc:	85c2      	strh	r2, [r0, #46]	; 0x2e
    mpui8Sprite = mpcSprite->mpui8Data + BM_BPP1_1G_PXLIDX2BYTEPOS(muixBytePosSprite);
 2fe:	f8c0 e018 	str.w	lr, [r0, #24]
    muixBitPosSprite = BM_BPP1_1G_PXLIDX2BITPOS(muixBytePosSprite);
 302:	6387      	str	r7, [r0, #56]	; 0x38
      while (muixYCnt > 0)
 304:	dd36      	ble.n	374 <cRes8b_Bpp1_1G_SpriteEngine_Bpp16_5R6G5B::i8BitAndRaw(short, short)+0x1b0>
        cMemTools::vMemBit2u16And(mpui8Sprite, muixBitPosSprite, (uint16*)mpui8Dest, mui32Col, muixXCnt);
 306:	f8b0 8030 	ldrh.w	r8, [r0, #48]	; 0x30
    lui8BitMskSource = 128 >> lui8SrcStartBitPos;
 30a:	46a4      	mov	ip, r4
 30c:	f04f 0980 	mov.w	r9, #128	; 0x80
 310:	4674      	mov	r4, lr
 312:	46ae      	mov	lr, r5
 314:	4655      	mov	r5, sl
 316:	fa49 f307 	asr.w	r3, r9, r7
 31a:	b2db      	uxtb	r3, r3
    while (luixSize > 0)
 31c:	b19a      	cbz	r2, 346 <cRes8b_Bpp1_1G_SpriteEngine_Bpp16_5R6G5B::i8BitAndRaw(short, short)+0x182>
 31e:	462e      	mov	r6, r5
 320:	46a2      	mov	sl, r4
      if (*lpui8Source & lui8BitMskSource)
 322:	f89a 1000 	ldrb.w	r1, [sl]
 326:	4019      	ands	r1, r3
        *lpui16Dest &= lui16Value;
 328:	bf1c      	itt	ne
 32a:	8831      	ldrhne	r1, [r6, #0]
 32c:	ea08 0101 	andne.w	r1, r8, r1
  static inline void  vBitIncPos(u8* &pui8Ptr, u8 &ui8Mask)                                 {if ((ui8Mask) > 1) {ui8Mask >>= 1;} else {ui8Mask = 128; pui8Ptr++;}}
 330:	2b01      	cmp	r3, #1
 332:	bf12      	itee	ne
 334:	085b      	lsrne	r3, r3, #1
 336:	2380      	moveq	r3, #128	; 0x80
 338:	f10a 0a01 	addeq.w	sl, sl, #1
    while (luixSize > 0)
 33c:	3a01      	subs	r2, #1
        *lpui16Dest = 0;
 33e:	8031      	strh	r1, [r6, #0]
      lpui16Dest++;
 340:	f106 0602 	add.w	r6, r6, #2
    while (luixSize > 0)
 344:	d1ed      	bne.n	322 <cRes8b_Bpp1_1G_SpriteEngine_Bpp16_5R6G5B::i8BitAndRaw(short, short)+0x15e>
        muixYCnt--;
 346:	8d83      	ldrh	r3, [r0, #44]	; 0x2c
    muixBitPosSprite += mpcSprite->miGfxWidth;
 348:	f9bc 2004 	ldrsh.w	r2, [ip, #4]
    mpui8Dest += BM_BPP16_5R6G5B_PXLIDX2BYTEPOS(mpcScreenDest->mpcBm->miGfxWidth);
 34c:	f9be 1004 	ldrsh.w	r1, [lr, #4]
        muixYCnt--;
 350:	3b01      	subs	r3, #1
    muixBitPosSprite += mpcSprite->miGfxWidth;
 352:	4417      	add	r7, r2
        muixYCnt--;
 354:	b21b      	sxth	r3, r3
    mpui8Sprite += BM_BPP1_1G_PXLIDX2BYTEPOS(muixBitPosSprite);
 356:	eb04 04d7 	add.w	r4, r4, r7, lsr #3
    mpui8Dest += BM_BPP16_5R6G5B_PXLIDX2BYTEPOS(mpcScreenDest->mpcBm->miGfxWidth);
 35a:	eb05 0541 	add.w	r5, r5, r1, lsl #1
    muixBitPosSprite = BM_BPP1_1G_PXLIDX2BITPOS(muixBitPosSprite);
 35e:	f007 0707 	and.w	r7, r7, #7
      while (muixYCnt > 0)
 362:	2b00      	cmp	r3, #0
    mpui8Sprite += BM_BPP1_1G_PXLIDX2BYTEPOS(muixBitPosSprite);
 364:	6184      	str	r4, [r0, #24]
    muixBitPosSprite = BM_BPP1_1G_PXLIDX2BITPOS(muixBitPosSprite);
 366:	6387      	str	r7, [r0, #56]	; 0x38
        muixYCnt--;
 368:	8583      	strh	r3, [r0, #44]	; 0x2c
    mpui8Dest += BM_BPP16_5R6G5B_PXLIDX2BYTEPOS(mpcScreenDest->mpcBm->miGfxWidth);
 36a:	6285      	str	r5, [r0, #40]	; 0x28
      while (muixYCnt > 0)
 36c:	dd02      	ble.n	374 <cRes8b_Bpp1_1G_SpriteEngine_Bpp16_5R6G5B::i8BitAndRaw(short, short)+0x1b0>
 36e:	f9b0 202e 	ldrsh.w	r2, [r0, #46]	; 0x2e
 372:	e7d0      	b.n	316 <cRes8b_Bpp1_1G_SpriteEngine_Bpp16_5R6G5B::i8BitAndRaw(short, short)+0x152>
  }
 374:	2000      	movs	r0, #0
 376:	b007      	add	sp, #28
 378:	e8bd 8ff0 	ldmia.w	sp!, {r4, r5, r6, r7, r8, r9, sl, fp, pc}
        if (miGfxDestY1 < mpcScreenDest->miGfxClipPosy1) { miGfxSpriteY1 = mpcScreenDest->miGfxClipPosy1 - miGfxDestY1; miGfxDestY1 = mpcScreenDest->miGfxClipPosy1; }
 37c:	2200      	movs	r2, #0
 37e:	e78c      	b.n	29a <cRes8b_Bpp1_1G_SpriteEngine_Bpp16_5R6G5B::i8BitAndRaw(short, short)+0xd6>
        if (miGfxDestX1 < mpcScreenDest->miGfxClipPosx1) { miGfxSpriteX1 = mpcScreenDest->miGfxClipPosx1 - miGfxDestX1; miGfxDestX1 = mpcScreenDest->miGfxClipPosx1; }
 380:	f8cd c00c 	str.w	ip, [sp, #12]
 384:	e77c      	b.n	280 <cRes8b_Bpp1_1G_SpriteEngine_Bpp16_5R6G5B::i8BitAndRaw(short, short)+0xbc>
 386:	bf00      	nop

Disassembly of section .text._ZN40cRes8b_Bpp1_1G_SpriteEngine_Bpp16_5R6G5B11i8BitXorRleEss:

00000000 <non-virtual thunk to cRes8b_Bpp1_1G_SpriteEngine_Bpp16_5R6G5B::i8BitXorRle(short, short)>:
   0:	e92d 4ff0 	stmdb	sp!, {r4, r5, r6, r7, r8, r9, sl, fp, lr}
   4:	6985      	ldr	r5, [r0, #24]
   6:	6886      	ldr	r6, [r0, #8]
   8:	88af      	ldrh	r7, [r5, #4]
   a:	88eb      	ldrh	r3, [r5, #6]
   c:	f9b6 8004 	ldrsh.w	r8, [r6, #4]
  10:	88f4      	ldrh	r4, [r6, #6]
  12:	f895 9010 	ldrb.w	r9, [r5, #16]
  16:	4439      	add	r1, r7
  18:	441a      	add	r2, r3
  1a:	f108 3eff 	add.w	lr, r8, #4294967295
  1e:	3c01      	subs	r4, #1
  20:	b2a3      	uxth	r3, r4
  22:	b289      	uxth	r1, r1
  24:	b292      	uxth	r2, r2
  26:	b087      	sub	sp, #28
  28:	fa1f fe8e 	uxth.w	lr, lr
  2c:	eb02 0c03 	add.w	ip, r2, r3
  30:	eb0e 0701 	add.w	r7, lr, r1
  34:	9301      	str	r3, [sp, #4]
  36:	b23f      	sxth	r7, r7
  38:	fa0f fc8c 	sxth.w	ip, ip
  3c:	fa0f fa81 	sxth.w	sl, r1
  40:	b213      	sxth	r3, r2
  42:	8407      	strh	r7, [r0, #32]
  44:	f8a0 c022 	strh.w	ip, [r0, #34]	; 0x22
  48:	f8a0 a01c 	strh.w	sl, [r0, #28]
  4c:	83c3      	strh	r3, [r0, #30]
  4e:	f1b9 0f00 	cmp.w	r9, #0
  52:	f000 80c3 	beq.w	1dc <non-virtual thunk to cRes8b_Bpp1_1G_SpriteEngine_Bpp16_5R6G5B::i8BitXorRle(short, short)+0x1dc>
  56:	f9b5 900c 	ldrsh.w	r9, [r5, #12]
  5a:	45ca      	cmp	sl, r9
  5c:	f300 80be 	bgt.w	1dc <non-virtual thunk to cRes8b_Bpp1_1G_SpriteEngine_Bpp16_5R6G5B::i8BitXorRle(short, short)+0x1dc>
  60:	f9b5 b00e 	ldrsh.w	fp, [r5, #14]
  64:	455b      	cmp	r3, fp
  66:	f300 80b9 	bgt.w	1dc <non-virtual thunk to cRes8b_Bpp1_1G_SpriteEngine_Bpp16_5R6G5B::i8BitXorRle(short, short)+0x1dc>
  6a:	f9b5 4008 	ldrsh.w	r4, [r5, #8]
  6e:	9403      	str	r4, [sp, #12]
  70:	42a7      	cmp	r7, r4
  72:	f2c0 80b3 	blt.w	1dc <non-virtual thunk to cRes8b_Bpp1_1G_SpriteEngine_Bpp16_5R6G5B::i8BitXorRle(short, short)+0x1dc>
  76:	f9b5 400a 	ldrsh.w	r4, [r5, #10]
  7a:	9405      	str	r4, [sp, #20]
  7c:	45a4      	cmp	ip, r4
  7e:	f2c0 80ad 	blt.w	1dc <non-virtual thunk to cRes8b_Bpp1_1G_SpriteEngine_Bpp16_5R6G5B::i8BitXorRle(short, short)+0x1dc>
  82:	fa0f fe8e 	sxth.w	lr, lr
  86:	f8cd e010 	str.w	lr, [sp, #16]
  8a:	f9bd 4004 	ldrsh.w	r4, [sp, #4]
  8e:	9401      	str	r4, [sp, #4]
  90:	9c04      	ldr	r4, [sp, #16]
  92:	8204      	strh	r4, [r0, #16]
  94:	9c01      	ldr	r4, [sp, #4]
  96:	8244      	strh	r4, [r0, #18]
  98:	9c03      	ldr	r4, [sp, #12]
  9a:	f8cd e008 	str.w	lr, [sp, #8]
  9e:	45a2      	cmp	sl, r4
  a0:	f04f 0e00 	mov.w	lr, #0
  a4:	f8c0 e00c 	str.w	lr, [r0, #12]
  a8:	f280 80d8 	bge.w	25c <non-virtual thunk to cRes8b_Bpp1_1G_SpriteEngine_Bpp16_5R6G5B::i8BitXorRle(short, short)+0x25c>
  ac:	1a61      	subs	r1, r4, r1
  ae:	b289      	uxth	r1, r1
  b0:	fa0f fe81 	sxth.w	lr, r1
  b4:	9103      	str	r1, [sp, #12]
  b6:	8384      	strh	r4, [r0, #28]
  b8:	46a2      	mov	sl, r4
  ba:	f8a0 e00c 	strh.w	lr, [r0, #12]
  be:	9905      	ldr	r1, [sp, #20]
  c0:	428b      	cmp	r3, r1
  c2:	460c      	mov	r4, r1
  c4:	f280 80c8 	bge.w	258 <non-virtual thunk to cRes8b_Bpp1_1G_SpriteEngine_Bpp16_5R6G5B::i8BitXorRle(short, short)+0x258>
  c8:	1a8a      	subs	r2, r1, r2
  ca:	b292      	uxth	r2, r2
  cc:	460b      	mov	r3, r1
  ce:	b211      	sxth	r1, r2
  d0:	83c4      	strh	r4, [r0, #30]
  d2:	81c1      	strh	r1, [r0, #14]
  d4:	fb01 ee08 	mla	lr, r1, r8, lr
  d8:	454f      	cmp	r7, r9
  da:	dd07      	ble.n	ec <non-virtual thunk to cRes8b_Bpp1_1G_SpriteEngine_Bpp16_5R6G5B::i8BitXorRle(short, short)+0xec>
  dc:	9903      	ldr	r1, [sp, #12]
  de:	eb01 0709 	add.w	r7, r1, r9
  e2:	eba7 070a 	sub.w	r7, r7, sl
  e6:	b239      	sxth	r1, r7
  e8:	9102      	str	r1, [sp, #8]
  ea:	8201      	strh	r1, [r0, #16]
  ec:	45dc      	cmp	ip, fp
  ee:	dd05      	ble.n	fc <non-virtual thunk to cRes8b_Bpp1_1G_SpriteEngine_Bpp16_5R6G5B::i8BitXorRle(short, short)+0xfc>
  f0:	eb02 040b 	add.w	r4, r2, fp
  f4:	1ae4      	subs	r4, r4, r3
  f6:	b221      	sxth	r1, r4
  f8:	9101      	str	r1, [sp, #4]
  fa:	8241      	strh	r1, [r0, #18]
  fc:	6947      	ldr	r7, [r0, #20]
  fe:	f897 c000 	ldrb.w	ip, [r7]
 102:	f02c 0c7f 	bic.w	ip, ip, #127	; 0x7f
 106:	f880 c039 	strb.w	ip, [r0, #57]	; 0x39
 10a:	f897 c000 	ldrb.w	ip, [r7]
 10e:	4671      	mov	r1, lr
 110:	f00c 0c7f 	and.w	ip, ip, #127	; 0x7f
 114:	f880 c038 	strb.w	ip, [r0, #56]	; 0x38
 118:	b1d1      	cbz	r1, 150 <non-virtual thunk to cRes8b_Bpp1_1G_SpriteEngine_Bpp16_5R6G5B::i8BitXorRle(short, short)+0x150>
 11a:	45e6      	cmp	lr, ip
 11c:	f0c0 8097 	bcc.w	24e <non-virtual thunk to cRes8b_Bpp1_1G_SpriteEngine_Bpp16_5R6G5B::i8BitXorRle(short, short)+0x24e>
 120:	9c01      	ldr	r4, [sp, #4]
 122:	e002      	b.n	12a <non-virtual thunk to cRes8b_Bpp1_1G_SpriteEngine_Bpp16_5R6G5B::i8BitXorRle(short, short)+0x12a>
 124:	458c      	cmp	ip, r1
 126:	f200 8091 	bhi.w	24c <non-virtual thunk to cRes8b_Bpp1_1G_SpriteEngine_Bpp16_5R6G5B::i8BitXorRle(short, short)+0x24c>
 12a:	3701      	adds	r7, #1
 12c:	6147      	str	r7, [r0, #20]
 12e:	f897 e000 	ldrb.w	lr, [r7]
 132:	f02e 0e7f 	bic.w	lr, lr, #127	; 0x7f
 136:	f880 e039 	strb.w	lr, [r0, #57]	; 0x39
 13a:	f897 e000 	ldrb.w	lr, [r7]
 13e:	eba1 010c 	sub.w	r1, r1, ip
 142:	f00e 0c7f 	and.w	ip, lr, #127	; 0x7f
 146:	f880 c038 	strb.w	ip, [r0, #56]	; 0x38
 14a:	2900      	cmp	r1, #0
 14c:	d1ea      	bne.n	124 <non-virtual thunk to cRes8b_Bpp1_1G_SpriteEngine_Bpp16_5R6G5B::i8BitXorRle(short, short)+0x124>
 14e:	9401      	str	r4, [sp, #4]
 150:	9903      	ldr	r1, [sp, #12]
 152:	696f      	ldr	r7, [r5, #20]
 154:	f1c1 0e01 	rsb	lr, r1, #1
 158:	9901      	ldr	r1, [sp, #4]
 15a:	f8b7 c004 	ldrh.w	ip, [r7, #4]
 15e:	683d      	ldr	r5, [r7, #0]
 160:	f1c2 0201 	rsb	r2, r2, #1
 164:	4411      	add	r1, r2
 166:	9a02      	ldr	r2, [sp, #8]
 168:	b20c      	sxth	r4, r1
 16a:	4496      	add	lr, r2
 16c:	fb13 a30c 	smlabb	r3, r3, ip, sl
 170:	fa0f fe8e 	sxth.w	lr, lr
 174:	eb05 0543 	add.w	r5, r5, r3, lsl #1
 178:	2c00      	cmp	r4, #0
 17a:	6245      	str	r5, [r0, #36]	; 0x24
 17c:	8504      	strh	r4, [r0, #40]	; 0x28
 17e:	f8a0 e02a 	strh.w	lr, [r0, #42]	; 0x2a
 182:	dd2b      	ble.n	1dc <non-virtual thunk to cRes8b_Bpp1_1G_SpriteEngine_Bpp16_5R6G5B::i8BitXorRle(short, short)+0x1dc>
 184:	f1be 0f00 	cmp.w	lr, #0
 188:	dd2c      	ble.n	1e4 <non-virtual thunk to cRes8b_Bpp1_1G_SpriteEngine_Bpp16_5R6G5B::i8BitXorRle(short, short)+0x1e4>
 18a:	f10e 31ff 	add.w	r1, lr, #4294967295
 18e:	b289      	uxth	r1, r1
 190:	3101      	adds	r1, #1
 192:	eb05 0141 	add.w	r1, r5, r1, lsl #1
 196:	462a      	mov	r2, r5
 198:	e01a      	b.n	1d0 <non-virtual thunk to cRes8b_Bpp1_1G_SpriteEngine_Bpp16_5R6G5B::i8BitXorRle(short, short)+0x1d0>
 19a:	6ac3      	ldr	r3, [r0, #44]	; 0x2c
 19c:	8814      	ldrh	r4, [r2, #0]
 19e:	4063      	eors	r3, r4
 1a0:	8013      	strh	r3, [r2, #0]
 1a2:	f890 3038 	ldrb.w	r3, [r0, #56]	; 0x38
 1a6:	3b01      	subs	r3, #1
 1a8:	b2db      	uxtb	r3, r3
 1aa:	3202      	adds	r2, #2
 1ac:	f880 3038 	strb.w	r3, [r0, #56]	; 0x38
 1b0:	b963      	cbnz	r3, 1cc <non-virtual thunk to cRes8b_Bpp1_1G_SpriteEngine_Bpp16_5R6G5B::i8BitXorRle(short, short)+0x1cc>
 1b2:	6943      	ldr	r3, [r0, #20]
 1b4:	1c5c      	adds	r4, r3, #1
 1b6:	6144      	str	r4, [r0, #20]
 1b8:	785c      	ldrb	r4, [r3, #1]
 1ba:	f024 047f 	bic.w	r4, r4, #127	; 0x7f
 1be:	f880 4039 	strb.w	r4, [r0, #57]	; 0x39
 1c2:	785b      	ldrb	r3, [r3, #1]
 1c4:	f003 037f 	and.w	r3, r3, #127	; 0x7f
 1c8:	f880 3038 	strb.w	r3, [r0, #56]	; 0x38
 1cc:	428a      	cmp	r2, r1
 1ce:	d009      	beq.n	1e4 <non-virtual thunk to cRes8b_Bpp1_1G_SpriteEngine_Bpp16_5R6G5B::i8BitXorRle(short, short)+0x1e4>
 1d0:	f890 3039 	ldrb.w	r3, [r0, #57]	; 0x39
 1d4:	2b00      	cmp	r3, #0
 1d6:	d1e0      	bne.n	19a <non-virtual thunk to cRes8b_Bpp1_1G_SpriteEngine_Bpp16_5R6G5B::i8BitXorRle(short, short)+0x19a>
 1d8:	8013      	strh	r3, [r2, #0]
 1da:	e7e2      	b.n	1a2 <non-virtual thunk to cRes8b_Bpp1_1G_SpriteEngine_Bpp16_5R6G5B::i8BitXorRle(short, short)+0x1a2>
 1dc:	2000      	movs	r0, #0
 1de:	b007      	add	sp, #28
 1e0:	e8bd 8ff0 	ldmia.w	sp!, {r4, r5, r6, r7, r8, r9, sl, fp, pc}
 1e4:	f9b0 2010 	ldrsh.w	r2, [r0, #16]
 1e8:	f9b6 3004 	ldrsh.w	r3, [r6, #4]
 1ec:	f9b0 100c 	ldrsh.w	r1, [r0, #12]
 1f0:	3201      	adds	r2, #1
 1f2:	1a9b      	subs	r3, r3, r2
 1f4:	185a      	adds	r2, r3, r1
 1f6:	d017      	beq.n	228 <non-virtual thunk to cRes8b_Bpp1_1G_SpriteEngine_Bpp16_5R6G5B::i8BitXorRle(short, short)+0x228>
 1f8:	f890 4038 	ldrb.w	r4, [r0, #56]	; 0x38
 1fc:	4294      	cmp	r4, r2
 1fe:	4623      	mov	r3, r4
 200:	d820      	bhi.n	244 <non-virtual thunk to cRes8b_Bpp1_1G_SpriteEngine_Bpp16_5R6G5B::i8BitXorRle(short, short)+0x244>
 202:	6941      	ldr	r1, [r0, #20]
 204:	e001      	b.n	20a <non-virtual thunk to cRes8b_Bpp1_1G_SpriteEngine_Bpp16_5R6G5B::i8BitXorRle(short, short)+0x20a>
 206:	4294      	cmp	r4, r2
 208:	d81c      	bhi.n	244 <non-virtual thunk to cRes8b_Bpp1_1G_SpriteEngine_Bpp16_5R6G5B::i8BitXorRle(short, short)+0x244>
 20a:	3101      	adds	r1, #1
 20c:	6141      	str	r1, [r0, #20]
 20e:	780b      	ldrb	r3, [r1, #0]
 210:	f023 037f 	bic.w	r3, r3, #127	; 0x7f
 214:	f880 3039 	strb.w	r3, [r0, #57]	; 0x39
 218:	780b      	ldrb	r3, [r1, #0]
 21a:	1b12      	subs	r2, r2, r4
 21c:	f003 037f 	and.w	r3, r3, #127	; 0x7f
 220:	f880 3038 	strb.w	r3, [r0, #56]	; 0x38
 224:	461c      	mov	r4, r3
 226:	d1ee      	bne.n	206 <non-virtual thunk to cRes8b_Bpp1_1G_SpriteEngine_Bpp16_5R6G5B::i8BitXorRle(short, short)+0x206>
 228:	8d03      	ldrh	r3, [r0, #40]	; 0x28
 22a:	f9b7 2004 	ldrsh.w	r2, [r7, #4]
 22e:	3b01      	subs	r3, #1
 230:	b21b      	sxth	r3, r3
 232:	eb05 0542 	add.w	r5, r5, r2, lsl #1
 236:	2b00      	cmp	r3, #0
 238:	8503      	strh	r3, [r0, #40]	; 0x28
 23a:	6245      	str	r5, [r0, #36]	; 0x24
 23c:	ddce      	ble.n	1dc <non-virtual thunk to cRes8b_Bpp1_1G_SpriteEngine_Bpp16_5R6G5B::i8BitXorRle(short, short)+0x1dc>
 23e:	f9b0 e02a 	ldrsh.w	lr, [r0, #42]	; 0x2a
 242:	e79f      	b.n	184 <non-virtual thunk to cRes8b_Bpp1_1G_SpriteEngine_Bpp16_5R6G5B::i8BitXorRle(short, short)+0x184>
 244:	1a9b      	subs	r3, r3, r2
 246:	f880 3038 	strb.w	r3, [r0, #56]	; 0x38
 24a:	e7ed      	b.n	228 <non-virtual thunk to cRes8b_Bpp1_1G_SpriteEngine_Bpp16_5R6G5B::i8BitXorRle(short, short)+0x228>
 24c:	9401      	str	r4, [sp, #4]
 24e:	ebac 0c01 	sub.w	ip, ip, r1
 252:	f880 c038 	strb.w	ip, [r0, #56]	; 0x38
 256:	e77b      	b.n	150 <non-virtual thunk to cRes8b_Bpp1_1G_SpriteEngine_Bpp16_5R6G5B::i8BitXorRle(short, short)+0x150>
 258:	2200      	movs	r2, #0
 25a:	e73d      	b.n	d8 <non-virtual thunk to cRes8b_Bpp1_1G_SpriteEngine_Bpp16_5R6G5B::i8BitXorRle(short, short)+0xd8>
 25c:	f8cd e00c 	str.w	lr, [sp, #12]
 260:	e72d      	b.n	be <non-virtual thunk to cRes8b_Bpp1_1G_SpriteEngine_Bpp16_5R6G5B::i8BitXorRle(short, short)+0xbe>
 262:	bf00      	nop

00000264 <cRes8b_Bpp1_1G_SpriteEngine_Bpp16_5R6G5B::i8BitXorRle(short, short)>:
  FRet i8BitXorRle(GfxInt lixDestX, GfxInt lixDestY)
 264:	e92d 4ff0 	stmdb	sp!, {r4, r5, r6, r7, r8, r9, sl, fp, lr}
    mpcScreenDest->vRel2Abs(lixDestX, lixDestY);
 268:	69c5      	ldr	r5, [r0, #28]
      miGfxDestX2 = miGfxDestX1 + mpcSprite->miGfxWidth - 1;
 26a:	68c6      	ldr	r6, [r0, #12]
  SCREEN_INLINE void vRel2AbsX(GfxInt &liGfxX) { liGfxX += miGfxRefPosx1; }
 26c:	88af      	ldrh	r7, [r5, #4]
  SCREEN_INLINE void vRel2AbsY(GfxInt &liGfxY) { liGfxY += miGfxRefPosy1; }
 26e:	88eb      	ldrh	r3, [r5, #6]
 270:	f9b6 8004 	ldrsh.w	r8, [r6, #4]
 274:	88f4      	ldrh	r4, [r6, #6]
                                                                       (liGfxX2 >= miGfxClipPosx1) && (liGfxY2 >= miGfxClipPosy1));}
 276:	f895 9010 	ldrb.w	r9, [r5, #16]
  SCREEN_INLINE void vRel2AbsX(GfxInt &liGfxX) { liGfxX += miGfxRefPosx1; }
 27a:	4439      	add	r1, r7
  SCREEN_INLINE void vRel2AbsY(GfxInt &liGfxY) { liGfxY += miGfxRefPosy1; }
 27c:	441a      	add	r2, r3
 27e:	f108 3eff 	add.w	lr, r8, #4294967295
 282:	3c01      	subs	r4, #1
 284:	b2a3      	uxth	r3, r4
  SCREEN_INLINE void vRel2AbsX(GfxInt &liGfxX) { liGfxX += miGfxRefPosx1; }
 286:	b289      	uxth	r1, r1
  SCREEN_INLINE void vRel2AbsY(GfxInt &liGfxY) { liGfxY += miGfxRefPosy1; }
 288:	b292      	uxth	r2, r2
  FRet i8BitXorRle(GfxInt lixDestX, GfxInt lixDestY)
 28a:	b087      	sub	sp, #28
 28c:	fa1f fe8e 	uxth.w	lr, lr
      miGfxDestY2 = miGfxDestY1 + mpcSprite->miGfxHeight - 1;
 290:	eb03 0c02 	add.w	ip, r3, r2
      miGfxDestX2 = miGfxDestX1 + mpcSprite->miGfxWidth - 1;
 294:	eb01 070e 	add.w	r7, r1, lr
      miGfxDestY2 = miGfxDestY1 + mpcSprite->miGfxHeight - 1;
 298:	9301      	str	r3, [sp, #4]
      miGfxDestX2 = miGfxDestX1 + mpcSprite->miGfxWidth - 1;
 29a:	b23f      	sxth	r7, r7
      miGfxDestY2 = miGfxDestY1 + mpcSprite->miGfxHeight - 1;
 29c:	fa0f fc8c 	sxth.w	ip, ip
  SCREEN_INLINE void vRel2AbsX(GfxInt &liGfxX) { liGfxX += miGfxRefPosx1; }
 2a0:	fa0f fa81 	sxth.w	sl, r1
  SCREEN_INLINE void vRel2AbsY(GfxInt &liGfxY) { liGfxY += miGfxRefPosy1; }
 2a4:	b213      	sxth	r3, r2
      miGfxDestX2 = miGfxDestX1 + mpcSprite->miGfxWidth - 1;
 2a6:	8487      	strh	r7, [r0, #36]	; 0x24
      miGfxDestY2 = miGfxDestY1 + mpcSprite->miGfxHeight - 1;
 2a8:	f8a0 c026 	strh.w	ip, [r0, #38]	; 0x26
      miGfxDestX1 = liGfxDestX1;
 2ac:	f8a0 a020 	strh.w	sl, [r0, #32]
      miGfxDestY1 = liGfxDestY1;
 2b0:	8443      	strh	r3, [r0, #34]	; 0x22
                                                                       (liGfxX2 >= miGfxClipPosx1) && (liGfxY2 >= miGfxClipPosy1));}
 2b2:	f1b9 0f00 	cmp.w	r9, #0
 2b6:	f000 80c3 	beq.w	440 <cRes8b_Bpp1_1G_SpriteEngine_Bpp16_5R6G5B::i8BitXorRle(short, short)+0x1dc>
                                                                       (liGfxX1 <= miGfxClipPosx2) && (liGfxY1 <= miGfxClipPosy2) &&
 2ba:	f9b5 900c 	ldrsh.w	r9, [r5, #12]
                             GfxInt liGfxX2, GfxInt liGfxY2) { return ((mbVisible) &&
 2be:	45ca      	cmp	sl, r9
 2c0:	f300 80be 	bgt.w	440 <cRes8b_Bpp1_1G_SpriteEngine_Bpp16_5R6G5B::i8BitXorRle(short, short)+0x1dc>
                                                                       (liGfxX1 <= miGfxClipPosx2) && (liGfxY1 <= miGfxClipPosy2) &&
 2c4:	f9b5 b00e 	ldrsh.w	fp, [r5, #14]
 2c8:	455b      	cmp	r3, fp
 2ca:	f300 80b9 	bgt.w	440 <cRes8b_Bpp1_1G_SpriteEngine_Bpp16_5R6G5B::i8BitXorRle(short, short)+0x1dc>
                                                                       (liGfxX2 >= miGfxClipPosx1) && (liGfxY2 >= miGfxClipPosy1));}
 2ce:	f9b5 4008 	ldrsh.w	r4, [r5, #8]
                                                                       (liGfxX1 <= miGfxClipPosx2) && (liGfxY1 <= miGfxClipPosy2) &&
 2d2:	9403      	str	r4, [sp, #12]
 2d4:	42a7      	cmp	r7, r4
 2d6:	f2c0 80b3 	blt.w	440 <cRes8b_Bpp1_1G_SpriteEngine_Bpp16_5R6G5B::i8BitXorRle(short, short)+0x1dc>
                                                                       (liGfxX2 >= miGfxClipPosx1) && (liGfxY2 >= miGfxClipPosy1));}
 2da:	f9b5 400a 	ldrsh.w	r4, [r5, #10]
 2de:	9405      	str	r4, [sp, #20]
 2e0:	45a4      	cmp	ip, r4
 2e2:	f2c0 80ad 	blt.w	440 <cRes8b_Bpp1_1G_SpriteEngine_Bpp16_5R6G5B::i8BitXorRle(short, short)+0x1dc>
        miGfxSpriteX2 = mpcSprite->miGfxWidth - 1;
 2e6:	fa0f fe8e 	sxth.w	lr, lr
 2ea:	f8cd e010 	str.w	lr, [sp, #16]
        miGfxSpriteY2 = mpcSprite->miGfxHeight - 1;
 2ee:	f9bd 4004 	ldrsh.w	r4, [sp, #4]
 2f2:	9401      	str	r4, [sp, #4]
        miGfxSpriteX2 = mpcSprite->miGfxWidth - 1;
 2f4:	9c04      	ldr	r4, [sp, #16]
 2f6:	8284      	strh	r4, [r0, #20]
        miGfxSpriteY2 = mpcSprite->miGfxHeight - 1;
 2f8:	9c01      	ldr	r4, [sp, #4]
 2fa:	82c4      	strh	r4, [r0, #22]
        if (miGfxDestX1 < mpcScreenDest->miGfxClipPosx1) { miGfxSpriteX1 = mpcScreenDest->miGfxClipPosx1 - miGfxDestX1; miGfxDestX1 = mpcScreenDest->miGfxClipPosx1; }
 2fc:	9c03      	ldr	r4, [sp, #12]
        miGfxSpriteX2 = mpcSprite->miGfxWidth - 1;
 2fe:	f8cd e008 	str.w	lr, [sp, #8]
        if (miGfxDestX1 < mpcScreenDest->miGfxClipPosx1) { miGfxSpriteX1 = mpcScreenDest->miGfxClipPosx1 - miGfxDestX1; miGfxDestX1 = mpcScreenDest->miGfxClipPosx1; }
 302:	45a2      	cmp	sl, r4
        miGfxSpriteX1 = 0;
 304:	f04f 0e00 	mov.w	lr, #0
 308:	f8c0 e010 	str.w	lr, [r0, #16]
        if (miGfxDestX1 < mpcScreenDest->miGfxClipPosx1) { miGfxSpriteX1 = mpcScreenDest->miGfxClipPosx1 - miGfxDestX1; miGfxDestX1 = mpcScreenDest->miGfxClipPosx1; }
 30c:	f280 80d8 	bge.w	4c0 <cRes8b_Bpp1_1G_SpriteEngine_Bpp16_5R6G5B::i8BitXorRle(short, short)+0x25c>
 310:	1a61      	subs	r1, r4, r1
 312:	b289      	uxth	r1, r1
 314:	fa0f fe81 	sxth.w	lr, r1
 318:	9103      	str	r1, [sp, #12]
 31a:	8404      	strh	r4, [r0, #32]
 31c:	46a2      	mov	sl, r4
 31e:	f8a0 e010 	strh.w	lr, [r0, #16]
        if (miGfxDestY1 < mpcScreenDest->miGfxClipPosy1) { miGfxSpriteY1 = mpcScreenDest->miGfxClipPosy1 - miGfxDestY1; miGfxDestY1 = mpcScreenDest->miGfxClipPosy1; }
 322:	9905      	ldr	r1, [sp, #20]
 324:	428b      	cmp	r3, r1
 326:	460c      	mov	r4, r1
 328:	f280 80c8 	bge.w	4bc <cRes8b_Bpp1_1G_SpriteEngine_Bpp16_5R6G5B::i8BitXorRle(short, short)+0x258>
 32c:	1a8a      	subs	r2, r1, r2
 32e:	b292      	uxth	r2, r2
 330:	460b      	mov	r3, r1
 332:	b211      	sxth	r1, r2
 334:	8444      	strh	r4, [r0, #34]	; 0x22
 336:	8241      	strh	r1, [r0, #18]
 338:	fb01 ee08 	mla	lr, r1, r8, lr
        if (miGfxDestX2 > mpcScreenDest->miGfxClipPosx2) miGfxSpriteX2 = miGfxSpriteX1 + mpcScreenDest->miGfxClipPosx2 - miGfxDestX1;
 33c:	454f      	cmp	r7, r9
 33e:	dd07      	ble.n	350 <cRes8b_Bpp1_1G_SpriteEngine_Bpp16_5R6G5B::i8BitXorRle(short, short)+0xec>
 340:	9903      	ldr	r1, [sp, #12]
 342:	eb01 0709 	add.w	r7, r1, r9
 346:	eba7 070a 	sub.w	r7, r7, sl
 34a:	b239      	sxth	r1, r7
 34c:	9102      	str	r1, [sp, #8]
 34e:	8281      	strh	r1, [r0, #20]
        if (miGfxDestY2 > mpcScreenDest->miGfxClipPosy2) miGfxSpriteY2 = miGfxSpriteY1 + mpcScreenDest->miGfxClipPosy2 - miGfxDestY1;
 350:	45dc      	cmp	ip, fp
 352:	dd05      	ble.n	360 <cRes8b_Bpp1_1G_SpriteEngine_Bpp16_5R6G5B::i8BitXorRle(short, short)+0xfc>
 354:	eb02 040b 	add.w	r4, r2, fp
 358:	1ae4      	subs	r4, r4, r3
 35a:	b221      	sxth	r1, r4
 35c:	9101      	str	r1, [sp, #4]
 35e:	82c1      	strh	r1, [r0, #22]
    mui8SpriteRleValue = ((*mpui8Sprite) & 128);
 360:	6987      	ldr	r7, [r0, #24]
 362:	f897 c000 	ldrb.w	ip, [r7]
 366:	f02c 0c7f 	bic.w	ip, ip, #127	; 0x7f
 36a:	f880 c03d 	strb.w	ip, [r0, #61]	; 0x3d
    mui8SpriteRleCnt = ((*mpui8Sprite) & 127);
 36e:	f897 c000 	ldrb.w	ip, [r7]
    while (muixPxlCnt > 0)
 372:	4671      	mov	r1, lr
    mui8SpriteRleCnt = ((*mpui8Sprite) & 127);
 374:	f00c 0c7f 	and.w	ip, ip, #127	; 0x7f
 378:	f880 c03c 	strb.w	ip, [r0, #60]	; 0x3c
    while (muixPxlCnt > 0)
 37c:	b1d1      	cbz	r1, 3b4 <cRes8b_Bpp1_1G_SpriteEngine_Bpp16_5R6G5B::i8BitXorRle(short, short)+0x150>
      if (mui8SpriteRleCnt > muixPxlCnt)
 37e:	45e6      	cmp	lr, ip
 380:	f0c0 8097 	bcc.w	4b2 <cRes8b_Bpp1_1G_SpriteEngine_Bpp16_5R6G5B::i8BitXorRle(short, short)+0x24e>
 384:	9c01      	ldr	r4, [sp, #4]
 386:	e002      	b.n	38e <cRes8b_Bpp1_1G_SpriteEngine_Bpp16_5R6G5B::i8BitXorRle(short, short)+0x12a>
 388:	458c      	cmp	ip, r1
 38a:	f200 8091 	bhi.w	4b0 <cRes8b_Bpp1_1G_SpriteEngine_Bpp16_5R6G5B::i8BitXorRle(short, short)+0x24c>
        mpui8Sprite++;
 38e:	3701      	adds	r7, #1
 390:	6187      	str	r7, [r0, #24]
        mui8SpriteRleValue = ((*mpui8Sprite) & 128);
 392:	f897 e000 	ldrb.w	lr, [r7]
 396:	f02e 0e7f 	bic.w	lr, lr, #127	; 0x7f
 39a:	f880 e03d 	strb.w	lr, [r0, #61]	; 0x3d
        mui8SpriteRleCnt = ((*mpui8Sprite) & 127);
 39e:	f897 e000 	ldrb.w	lr, [r7]
        muixPxlCnt -= mui8SpriteRleCnt;
 3a2:	eba1 010c 	sub.w	r1, r1, ip
        mui8SpriteRleCnt = ((*mpui8Sprite) & 127);
 3a6:	f00e 0c7f 	and.w	ip, lr, #127	; 0x7f
 3aa:	f880 c03c 	strb.w	ip, [r0, #60]	; 0x3c
    while (muixPxlCnt > 0)
 3ae:	2900      	cmp	r1, #0
 3b0:	d1ea      	bne.n	388 <cRes8b_Bpp1_1G_SpriteEngine_Bpp16_5R6G5B::i8BitXorRle(short, short)+0x124>
 3b2:	9401      	str	r4, [sp, #4]
    muixXCnt = (miGfxSpriteX2 - miGfxSpriteX1) + 1;
 3b4:	9903      	ldr	r1, [sp, #12]
    luixBytePosDest = (GfxImgSize)(miGfxDestY1 * mpcScreenDest->mpcBm->miGfxWidth + miGfxDestX1);
 3b6:	696f      	ldr	r7, [r5, #20]
    muixXCnt = (miGfxSpriteX2 - miGfxSpriteX1) + 1;
 3b8:	f1c1 0e01 	rsb	lr, r1, #1
    muixYCnt = (miGfxSpriteY2 - miGfxSpriteY1) + 1;
 3bc:	9901      	ldr	r1, [sp, #4]
    luixBytePosDest = (GfxImgSize)(miGfxDestY1 * mpcScreenDest->mpcBm->miGfxWidth + miGfxDestX1);
 3be:	f8b7 c004 	ldrh.w	ip, [r7, #4]
    mpui8Dest = mpcScreenDest->mpcBm->mpui8Data + BM_BPP16_5R6G5B_PXLIDX2BYTEPOS(luixBytePosDest);
 3c2:	683d      	ldr	r5, [r7, #0]
    muixYCnt = (miGfxSpriteY2 - miGfxSpriteY1) + 1;
 3c4:	f1c2 0201 	rsb	r2, r2, #1
 3c8:	4411      	add	r1, r2
    muixXCnt = (miGfxSpriteX2 - miGfxSpriteX1) + 1;
 3ca:	9a02      	ldr	r2, [sp, #8]
    muixYCnt = (miGfxSpriteY2 - miGfxSpriteY1) + 1;
 3cc:	b20c      	sxth	r4, r1
    muixXCnt = (miGfxSpriteX2 - miGfxSpriteX1) + 1;
 3ce:	4496      	add	lr, r2
    luixBytePosDest = (GfxImgSize)(miGfxDestY1 * mpcScreenDest->mpcBm->miGfxWidth + miGfxDestX1);
 3d0:	fb13 a30c 	smlabb	r3, r3, ip, sl
    muixXCnt = (miGfxSpriteX2 - miGfxSpriteX1) + 1;
 3d4:	fa0f fe8e 	sxth.w	lr, lr
    mpui8Dest = mpcScreenDest->mpcBm->mpui8Data + BM_BPP16_5R6G5B_PXLIDX2BYTEPOS(luixBytePosDest);
 3d8:	eb05 0543 	add.w	r5, r5, r3, lsl #1
      while (muixYCnt > 0)
 3dc:	2c00      	cmp	r4, #0
    mpui8Dest = mpcScreenDest->mpcBm->mpui8Data + BM_BPP16_5R6G5B_PXLIDX2BYTEPOS(luixBytePosDest);
 3de:	6285      	str	r5, [r0, #40]	; 0x28
    muixYCnt = (miGfxSpriteY2 - miGfxSpriteY1) + 1;
 3e0:	8584      	strh	r4, [r0, #44]	; 0x2c
    muixXCnt = (miGfxSpriteX2 - miGfxSpriteX1) + 1;
 3e2:	f8a0 e02e 	strh.w	lr, [r0, #46]	; 0x2e
      while (muixYCnt > 0)
 3e6:	dd2b      	ble.n	440 <cRes8b_Bpp1_1G_SpriteEngine_Bpp16_5R6G5B::i8BitXorRle(short, short)+0x1dc>
        while (luixXCnt > 0)
 3e8:	f1be 0f00 	cmp.w	lr, #0
 3ec:	dd2c      	ble.n	448 <cRes8b_Bpp1_1G_SpriteEngine_Bpp16_5R6G5B::i8BitXorRle(short, short)+0x1e4>
 3ee:	f10e 31ff 	add.w	r1, lr, #4294967295
 3f2:	b289      	uxth	r1, r1
 3f4:	3101      	adds	r1, #1
 3f6:	eb05 0141 	add.w	r1, r5, r1, lsl #1
        lpui16Dest = (uint16*)mpui8Dest;
 3fa:	462a      	mov	r2, r5
 3fc:	e01a      	b.n	434 <cRes8b_Bpp1_1G_SpriteEngine_Bpp16_5R6G5B::i8BitXorRle(short, short)+0x1d0>
            *lpui16Dest ^= mui32Col;
 3fe:	6b03      	ldr	r3, [r0, #48]	; 0x30
 400:	8814      	ldrh	r4, [r2, #0]
 402:	4063      	eors	r3, r4
 404:	8013      	strh	r3, [r2, #0]
          mui8SpriteRleCnt--;
 406:	f890 303c 	ldrb.w	r3, [r0, #60]	; 0x3c
 40a:	3b01      	subs	r3, #1
 40c:	b2db      	uxtb	r3, r3
          lpui16Dest++;
 40e:	3202      	adds	r2, #2
          mui8SpriteRleCnt--;
 410:	f880 303c 	strb.w	r3, [r0, #60]	; 0x3c
          if (mui8SpriteRleCnt == 0)
 414:	b963      	cbnz	r3, 430 <cRes8b_Bpp1_1G_SpriteEngine_Bpp16_5R6G5B::i8BitXorRle(short, short)+0x1cc>
            mpui8Sprite++;
 416:	6983      	ldr	r3, [r0, #24]
 418:	1c5c      	adds	r4, r3, #1
 41a:	6184      	str	r4, [r0, #24]
            mui8SpriteRleValue = ((*mpui8Sprite) & 128);
 41c:	785c      	ldrb	r4, [r3, #1]
 41e:	f024 047f 	bic.w	r4, r4, #127	; 0x7f
 422:	f880 403d 	strb.w	r4, [r0, #61]	; 0x3d
            mui8SpriteRleCnt = ((*mpui8Sprite) & 127);
 426:	785b      	ldrb	r3, [r3, #1]
 428:	f003 037f 	and.w	r3, r3, #127	; 0x7f
 42c:	f880 303c 	strb.w	r3, [r0, #60]	; 0x3c
        while (luixXCnt > 0)
 430:	428a      	cmp	r2, r1
 432:	d009      	beq.n	448 <cRes8b_Bpp1_1G_SpriteEngine_Bpp16_5R6G5B::i8BitXorRle(short, short)+0x1e4>
          if (mui8SpriteRleValue)
 434:	f890 303d 	ldrb.w	r3, [r0, #61]	; 0x3d
 438:	2b00      	cmp	r3, #0
 43a:	d1e0      	bne.n	3fe <cRes8b_Bpp1_1G_SpriteEngine_Bpp16_5R6G5B::i8BitXorRle(short, short)+0x19a>
            *lpui16Dest = 0;
 43c:	8013      	strh	r3, [r2, #0]
 43e:	e7e2      	b.n	406 <cRes8b_Bpp1_1G_SpriteEngine_Bpp16_5R6G5B::i8BitXorRle(short, short)+0x1a2>
  }
 440:	2000      	movs	r0, #0
 442:	b007      	add	sp, #28
 444:	e8bd 8ff0 	ldmia.w	sp!, {r4, r5, r6, r7, r8, r9, sl, fp, pc}
        vGoPxlRle(miGfxSpriteX1 + (mpcSprite->miGfxWidth - (miGfxSpriteX2 + 1)));
 448:	f9b0 2014 	ldrsh.w	r2, [r0, #20]
 44c:	f9b6 3004 	ldrsh.w	r3, [r6, #4]
 450:	f9b0 1010 	ldrsh.w	r1, [r0, #16]
 454:	3201      	adds	r2, #1
 456:	1a9b      	subs	r3, r3, r2
    while (muixPxlCnt > 0)
 458:	185a      	adds	r2, r3, r1
 45a:	d017      	beq.n	48c <cRes8b_Bpp1_1G_SpriteEngine_Bpp16_5R6G5B::i8BitXorRle(short, short)+0x228>
      if (mui8SpriteRleCnt > muixPxlCnt)
 45c:	f890 403c 	ldrb.w	r4, [r0, #60]	; 0x3c
 460:	42a2      	cmp	r2, r4
 462:	4623      	mov	r3, r4
 464:	d320      	bcc.n	4a8 <cRes8b_Bpp1_1G_SpriteEngine_Bpp16_5R6G5B::i8BitXorRle(short, short)+0x244>
 466:	6981      	ldr	r1, [r0, #24]
 468:	e001      	b.n	46e <cRes8b_Bpp1_1G_SpriteEngine_Bpp16_5R6G5B::i8BitXorRle(short, short)+0x20a>
 46a:	4294      	cmp	r4, r2
 46c:	d81c      	bhi.n	4a8 <cRes8b_Bpp1_1G_SpriteEngine_Bpp16_5R6G5B::i8BitXorRle(short, short)+0x244>
        mpui8Sprite++;
 46e:	3101      	adds	r1, #1
 470:	6181      	str	r1, [r0, #24]
        mui8SpriteRleValue = ((*mpui8Sprite) & 128);
 472:	780b      	ldrb	r3, [r1, #0]
 474:	f023 037f 	bic.w	r3, r3, #127	; 0x7f
 478:	f880 303d 	strb.w	r3, [r0, #61]	; 0x3d
        mui8SpriteRleCnt = ((*mpui8Sprite) & 127);
 47c:	780b      	ldrb	r3, [r1, #0]
    while (muixPxlCnt > 0)
 47e:	1b12      	subs	r2, r2, r4
        mui8SpriteRleCnt = ((*mpui8Sprite) & 127);
 480:	f003 037f 	and.w	r3, r3, #127	; 0x7f
 484:	f880 303c 	strb.w	r3, [r0, #60]	; 0x3c
      if (mui8SpriteRleCnt > muixPxlCnt)
 488:	461c      	mov	r4, r3
    while (muixPxlCnt > 0)
 48a:	d1ee      	bne.n	46a <cRes8b_Bpp1_1G_SpriteEngine_Bpp16_5R6G5B::i8BitXorRle(short, short)+0x206>
        muixYCnt--;
 48c:	8d83      	ldrh	r3, [r0, #44]	; 0x2c
        mpui8Dest += BM_BPP16_5R6G5B_PXLIDX2BYTEPOS(mpcScreenDest->mpcBm->miGfxWidth);
 48e:	f9b7 2004 	ldrsh.w	r2, [r7, #4]
        muixYCnt--;
 492:	3b01      	subs	r3, #1
 494:	b21b      	sxth	r3, r3
        mpui8Dest += BM_BPP16_5R6G5B_PXLIDX2BYTEPOS(mpcScreenDest->mpcBm->miGfxWidth);
 496:	eb05 0542 	add.w	r5, r5, r2, lsl #1
      while (muixYCnt > 0)
 49a:	2b00      	cmp	r3, #0
        muixYCnt--;
 49c:	8583      	strh	r3, [r0, #44]	; 0x2c
        mpui8Dest += BM_BPP16_5R6G5B_PXLIDX2BYTEPOS(mpcScreenDest->mpcBm->miGfxWidth);
 49e:	6285      	str	r5, [r0, #40]	; 0x28
      while (muixYCnt > 0)
 4a0:	ddce      	ble.n	440 <cRes8b_Bpp1_1G_SpriteEngine_Bpp16_5R6G5B::i8BitXorRle(short, short)+0x1dc>
 4a2:	f9b0 e02e 	ldrsh.w	lr, [r0, #46]	; 0x2e
 4a6:	e79f      	b.n	3e8 <cRes8b_Bpp1_1G_SpriteEngine_Bpp16_5R6G5B::i8BitXorRle(short, short)+0x184>
        mui8SpriteRleCnt -= muixPxlCnt;
 4a8:	1a9b      	subs	r3, r3, r2
 4aa:	f880 303c 	strb.w	r3, [r0, #60]	; 0x3c
 4ae:	e7ed      	b.n	48c <cRes8b_Bpp1_1G_SpriteEngine_Bpp16_5R6G5B::i8BitXorRle(short, short)+0x228>
 4b0:	9401      	str	r4, [sp, #4]
 4b2:	ebac 0c01 	sub.w	ip, ip, r1
 4b6:	f880 c03c 	strb.w	ip, [r0, #60]	; 0x3c
 4ba:	e77b      	b.n	3b4 <cRes8b_Bpp1_1G_SpriteEngine_Bpp16_5R6G5B::i8BitXorRle(short, short)+0x150>
        if (miGfxDestY1 < mpcScreenDest->miGfxClipPosy1) { miGfxSpriteY1 = mpcScreenDest->miGfxClipPosy1 - miGfxDestY1; miGfxDestY1 = mpcScreenDest->miGfxClipPosy1; }
 4bc:	2200      	movs	r2, #0
 4be:	e73d      	b.n	33c <cRes8b_Bpp1_1G_SpriteEngine_Bpp16_5R6G5B::i8BitXorRle(short, short)+0xd8>
        if (miGfxDestX1 < mpcScreenDest->miGfxClipPosx1) { miGfxSpriteX1 = mpcScreenDest->miGfxClipPosx1 - miGfxDestX1; miGfxDestX1 = mpcScreenDest->miGfxClipPosx1; }
 4c0:	f8cd e00c 	str.w	lr, [sp, #12]
 4c4:	e72d      	b.n	322 <cRes8b_Bpp1_1G_SpriteEngine_Bpp16_5R6G5B::i8BitXorRle(short, short)+0xbe>
 4c6:	bf00      	nop

Disassembly of section .text._ZN40cRes8b_Bpp1_1G_SpriteEngine_Bpp16_5R6G5B10i8BitOrRawEss:

00000000 <non-virtual thunk to cRes8b_Bpp1_1G_SpriteEngine_Bpp16_5R6G5B::i8BitOrRaw(short, short)>:
   0:	e92d 4ff0 	stmdb	sp!, {r4, r5, r6, r7, r8, r9, sl, fp, lr}
   4:	6985      	ldr	r5, [r0, #24]
   6:	6884      	ldr	r4, [r0, #8]
   8:	88af      	ldrh	r7, [r5, #4]
   a:	88ee      	ldrh	r6, [r5, #6]
   c:	f9b4 8004 	ldrsh.w	r8, [r4, #4]
  10:	88e3      	ldrh	r3, [r4, #6]
  12:	f895 9010 	ldrb.w	r9, [r5, #16]
  16:	4439      	add	r1, r7
  18:	4432      	add	r2, r6
  1a:	f108 3cff 	add.w	ip, r8, #4294967295
  1e:	3b01      	subs	r3, #1
  20:	b289      	uxth	r1, r1
  22:	b292      	uxth	r2, r2
  24:	b29b      	uxth	r3, r3
  26:	fa1f fc8c 	uxth.w	ip, ip
  2a:	b087      	sub	sp, #28
  2c:	eb0c 0601 	add.w	r6, ip, r1
  30:	18d7      	adds	r7, r2, r3
  32:	b236      	sxth	r6, r6
  34:	b23f      	sxth	r7, r7
  36:	fa0f fa81 	sxth.w	sl, r1
  3a:	fa0f fe82 	sxth.w	lr, r2
  3e:	9301      	str	r3, [sp, #4]
  40:	8406      	strh	r6, [r0, #32]
  42:	8447      	strh	r7, [r0, #34]	; 0x22
  44:	f8a0 a01c 	strh.w	sl, [r0, #28]
  48:	f8a0 e01e 	strh.w	lr, [r0, #30]
  4c:	f1b9 0f00 	cmp.w	r9, #0
  50:	f000 80ae 	beq.w	1b0 <non-virtual thunk to cRes8b_Bpp1_1G_SpriteEngine_Bpp16_5R6G5B::i8BitOrRaw(short, short)+0x1b0>
  54:	f9b5 900c 	ldrsh.w	r9, [r5, #12]
  58:	45ca      	cmp	sl, r9
  5a:	f300 80a9 	bgt.w	1b0 <non-virtual thunk to cRes8b_Bpp1_1G_SpriteEngine_Bpp16_5R6G5B::i8BitOrRaw(short, short)+0x1b0>
  5e:	f9b5 b00e 	ldrsh.w	fp, [r5, #14]
  62:	45de      	cmp	lr, fp
  64:	f300 80a4 	bgt.w	1b0 <non-virtual thunk to cRes8b_Bpp1_1G_SpriteEngine_Bpp16_5R6G5B::i8BitOrRaw(short, short)+0x1b0>
  68:	f9b5 3008 	ldrsh.w	r3, [r5, #8]
  6c:	9303      	str	r3, [sp, #12]
  6e:	429e      	cmp	r6, r3
  70:	f2c0 809e 	blt.w	1b0 <non-virtual thunk to cRes8b_Bpp1_1G_SpriteEngine_Bpp16_5R6G5B::i8BitOrRaw(short, short)+0x1b0>
  74:	f9b5 300a 	ldrsh.w	r3, [r5, #10]
  78:	9304      	str	r3, [sp, #16]
  7a:	429f      	cmp	r7, r3
  7c:	f2c0 8098 	blt.w	1b0 <non-virtual thunk to cRes8b_Bpp1_1G_SpriteEngine_Bpp16_5R6G5B::i8BitOrRaw(short, short)+0x1b0>
  80:	fa0f fc8c 	sxth.w	ip, ip
  84:	f8cd c014 	str.w	ip, [sp, #20]
  88:	f9bd 3004 	ldrsh.w	r3, [sp, #4]
  8c:	9301      	str	r3, [sp, #4]
  8e:	9b05      	ldr	r3, [sp, #20]
  90:	8203      	strh	r3, [r0, #16]
  92:	9b01      	ldr	r3, [sp, #4]
  94:	8243      	strh	r3, [r0, #18]
  96:	9b03      	ldr	r3, [sp, #12]
  98:	f8cd c008 	str.w	ip, [sp, #8]
  9c:	459a      	cmp	sl, r3
  9e:	f04f 0c00 	mov.w	ip, #0
  a2:	f8c0 c00c 	str.w	ip, [r0, #12]
  a6:	f280 8089 	bge.w	1bc <non-virtual thunk to cRes8b_Bpp1_1G_SpriteEngine_Bpp16_5R6G5B::i8BitOrRaw(short, short)+0x1bc>
  aa:	1a59      	subs	r1, r3, r1
  ac:	b289      	uxth	r1, r1
  ae:	fa0f fc81 	sxth.w	ip, r1
  b2:	9103      	str	r1, [sp, #12]
  b4:	8383      	strh	r3, [r0, #28]
  b6:	469a      	mov	sl, r3
  b8:	f8a0 c00c 	strh.w	ip, [r0, #12]
  bc:	9b04      	ldr	r3, [sp, #16]
  be:	459e      	cmp	lr, r3
  c0:	da7a      	bge.n	1b8 <non-virtual thunk to cRes8b_Bpp1_1G_SpriteEngine_Bpp16_5R6G5B::i8BitOrRaw(short, short)+0x1b8>
  c2:	1a9a      	subs	r2, r3, r2
  c4:	b292      	uxth	r2, r2
  c6:	b211      	sxth	r1, r2
  c8:	9104      	str	r1, [sp, #16]
  ca:	83c3      	strh	r3, [r0, #30]
  cc:	469e      	mov	lr, r3
  ce:	9b04      	ldr	r3, [sp, #16]
  d0:	81c3      	strh	r3, [r0, #14]
  d2:	fb03 cc08 	mla	ip, r3, r8, ip
  d6:	454e      	cmp	r6, r9
  d8:	dd07      	ble.n	ea <non-virtual thunk to cRes8b_Bpp1_1G_SpriteEngine_Bpp16_5R6G5B::i8BitOrRaw(short, short)+0xea>
  da:	9b03      	ldr	r3, [sp, #12]
  dc:	eb03 0609 	add.w	r6, r3, r9
  e0:	eba6 060a 	sub.w	r6, r6, sl
  e4:	b233      	sxth	r3, r6
  e6:	9302      	str	r3, [sp, #8]
  e8:	8203      	strh	r3, [r0, #16]
  ea:	455f      	cmp	r7, fp
  ec:	dd06      	ble.n	fc <non-virtual thunk to cRes8b_Bpp1_1G_SpriteEngine_Bpp16_5R6G5B::i8BitOrRaw(short, short)+0xfc>
  ee:	eb02 030b 	add.w	r3, r2, fp
  f2:	eba3 030e 	sub.w	r3, r3, lr
  f6:	b21b      	sxth	r3, r3
  f8:	9301      	str	r3, [sp, #4]
  fa:	8243      	strh	r3, [r0, #18]
  fc:	9b03      	ldr	r3, [sp, #12]
  fe:	696d      	ldr	r5, [r5, #20]
 100:	6827      	ldr	r7, [r4, #0]
 102:	f8b5 8004 	ldrh.w	r8, [r5, #4]
 106:	682e      	ldr	r6, [r5, #0]
 108:	f8c0 c030 	str.w	ip, [r0, #48]	; 0x30
 10c:	f1c3 0101 	rsb	r1, r3, #1
 110:	9b01      	ldr	r3, [sp, #4]
 112:	f1c2 0201 	rsb	r2, r2, #1
 116:	4413      	add	r3, r2
 118:	9a02      	ldr	r2, [sp, #8]
 11a:	fb1e aa08 	smlabb	sl, lr, r8, sl
 11e:	b21b      	sxth	r3, r3
 120:	440a      	add	r2, r1
 122:	eb07 0edc 	add.w	lr, r7, ip, lsr #3
 126:	b212      	sxth	r2, r2
 128:	eb06 0a4a 	add.w	sl, r6, sl, lsl #1
 12c:	f00c 0707 	and.w	r7, ip, #7
 130:	2b00      	cmp	r3, #0
 132:	f8c0 a024 	str.w	sl, [r0, #36]	; 0x24
 136:	8503      	strh	r3, [r0, #40]	; 0x28
 138:	8542      	strh	r2, [r0, #42]	; 0x2a
 13a:	f8c0 e014 	str.w	lr, [r0, #20]
 13e:	6347      	str	r7, [r0, #52]	; 0x34
 140:	dd36      	ble.n	1b0 <non-virtual thunk to cRes8b_Bpp1_1G_SpriteEngine_Bpp16_5R6G5B::i8BitOrRaw(short, short)+0x1b0>
 142:	f8b0 802c 	ldrh.w	r8, [r0, #44]	; 0x2c
 146:	46a4      	mov	ip, r4
 148:	f04f 0980 	mov.w	r9, #128	; 0x80
 14c:	4674      	mov	r4, lr
 14e:	46ae      	mov	lr, r5
 150:	4655      	mov	r5, sl
 152:	fa49 f307 	asr.w	r3, r9, r7
 156:	b2db      	uxtb	r3, r3
 158:	b19a      	cbz	r2, 182 <non-virtual thunk to cRes8b_Bpp1_1G_SpriteEngine_Bpp16_5R6G5B::i8BitOrRaw(short, short)+0x182>
 15a:	4629      	mov	r1, r5
 15c:	46a2      	mov	sl, r4
 15e:	f89a 6000 	ldrb.w	r6, [sl]
 162:	4233      	tst	r3, r6
 164:	d003      	beq.n	16e <non-virtual thunk to cRes8b_Bpp1_1G_SpriteEngine_Bpp16_5R6G5B::i8BitOrRaw(short, short)+0x16e>
 166:	880e      	ldrh	r6, [r1, #0]
 168:	ea48 0606 	orr.w	r6, r8, r6
 16c:	800e      	strh	r6, [r1, #0]
 16e:	2b01      	cmp	r3, #1
 170:	bf12      	itee	ne
 172:	085b      	lsrne	r3, r3, #1
 174:	f10a 0a01 	addeq.w	sl, sl, #1
 178:	2380      	moveq	r3, #128	; 0x80
 17a:	3a01      	subs	r2, #1
 17c:	f101 0102 	add.w	r1, r1, #2
 180:	d1ed      	bne.n	15e <non-virtual thunk to cRes8b_Bpp1_1G_SpriteEngine_Bpp16_5R6G5B::i8BitOrRaw(short, short)+0x15e>
 182:	8d03      	ldrh	r3, [r0, #40]	; 0x28
 184:	f9bc 2004 	ldrsh.w	r2, [ip, #4]
 188:	f9be 1004 	ldrsh.w	r1, [lr, #4]
 18c:	3b01      	subs	r3, #1
 18e:	4417      	add	r7, r2
 190:	b21b      	sxth	r3, r3
 192:	eb04 04d7 	add.w	r4, r4, r7, lsr #3
 196:	eb05 0541 	add.w	r5, r5, r1, lsl #1
 19a:	f007 0707 	and.w	r7, r7, #7
 19e:	2b00      	cmp	r3, #0
 1a0:	6144      	str	r4, [r0, #20]
 1a2:	6347      	str	r7, [r0, #52]	; 0x34
 1a4:	8503      	strh	r3, [r0, #40]	; 0x28
 1a6:	6245      	str	r5, [r0, #36]	; 0x24
 1a8:	dd02      	ble.n	1b0 <non-virtual thunk to cRes8b_Bpp1_1G_SpriteEngine_Bpp16_5R6G5B::i8BitOrRaw(short, short)+0x1b0>
 1aa:	f9b0 202a 	ldrsh.w	r2, [r0, #42]	; 0x2a
 1ae:	e7d0      	b.n	152 <non-virtual thunk to cRes8b_Bpp1_1G_SpriteEngine_Bpp16_5R6G5B::i8BitOrRaw(short, short)+0x152>
 1b0:	2000      	movs	r0, #0
 1b2:	b007      	add	sp, #28
 1b4:	e8bd 8ff0 	ldmia.w	sp!, {r4, r5, r6, r7, r8, r9, sl, fp, pc}
 1b8:	2200      	movs	r2, #0
 1ba:	e78c      	b.n	d6 <non-virtual thunk to cRes8b_Bpp1_1G_SpriteEngine_Bpp16_5R6G5B::i8BitOrRaw(short, short)+0xd6>
 1bc:	f8cd c00c 	str.w	ip, [sp, #12]
 1c0:	e77c      	b.n	bc <non-virtual thunk to cRes8b_Bpp1_1G_SpriteEngine_Bpp16_5R6G5B::i8BitOrRaw(short, short)+0xbc>
 1c2:	bf00      	nop

000001c4 <cRes8b_Bpp1_1G_SpriteEngine_Bpp16_5R6G5B::i8BitOrRaw(short, short)>:
  FRet i8BitOrRaw(GfxInt lixDestX, GfxInt lixDestY)
 1c4:	e92d 4ff0 	stmdb	sp!, {r4, r5, r6, r7, r8, r9, sl, fp, lr}
    mpcScreenDest->vRel2Abs(lixDestX, lixDestY);
 1c8:	69c5      	ldr	r5, [r0, #28]
      miGfxDestX2 = miGfxDestX1 + mpcSprite->miGfxWidth - 1;
 1ca:	68c4      	ldr	r4, [r0, #12]
  SCREEN_INLINE void vRel2AbsX(GfxInt &liGfxX) { liGfxX += miGfxRefPosx1; }
 1cc:	88af      	ldrh	r7, [r5, #4]
  SCREEN_INLINE void vRel2AbsY(GfxInt &liGfxY) { liGfxY += miGfxRefPosy1; }
 1ce:	88ee      	ldrh	r6, [r5, #6]
 1d0:	f9b4 8004 	ldrsh.w	r8, [r4, #4]
 1d4:	88e3      	ldrh	r3, [r4, #6]
                                                                       (liGfxX2 >= miGfxClipPosx1) && (liGfxY2 >= miGfxClipPosy1));}
 1d6:	f895 9010 	ldrb.w	r9, [r5, #16]
  SCREEN_INLINE void vRel2AbsX(GfxInt &liGfxX) { liGfxX += miGfxRefPosx1; }
 1da:	4439      	add	r1, r7
  SCREEN_INLINE void vRel2AbsY(GfxInt &liGfxY) { liGfxY += miGfxRefPosy1; }
 1dc:	4432      	add	r2, r6
 1de:	f108 3cff 	add.w	ip, r8, #4294967295
 1e2:	3b01      	subs	r3, #1
  SCREEN_INLINE void vRel2AbsX(GfxInt &liGfxX) { liGfxX += miGfxRefPosx1; }
 1e4:	b289      	uxth	r1, r1
  SCREEN_INLINE void vRel2AbsY(GfxInt &liGfxY) { liGfxY += miGfxRefPosy1; }
 1e6:	b292      	uxth	r2, r2
 1e8:	b29b      	uxth	r3, r3
 1ea:	fa1f fc8c 	uxth.w	ip, ip
  FRet i8BitOrRaw(GfxInt lixDestX, GfxInt lixDestY)
 1ee:	b087      	sub	sp, #28
 1f0:	eb01 060c 	add.w	r6, r1, ip
      miGfxDestY2 = miGfxDestY1 + mpcSprite->miGfxHeight - 1;
 1f4:	18d7      	adds	r7, r2, r3
      miGfxDestX2 = miGfxDestX1 + mpcSprite->miGfxWidth - 1;
 1f6:	b236      	sxth	r6, r6
      miGfxDestY2 = miGfxDestY1 + mpcSprite->miGfxHeight - 1;
 1f8:	b23f      	sxth	r7, r7
  SCREEN_INLINE void vRel2AbsX(GfxInt &liGfxX) { liGfxX += miGfxRefPosx1; }
 1fa:	fa0f fa81 	sxth.w	sl, r1
  SCREEN_INLINE void vRel2AbsY(GfxInt &liGfxY) { liGfxY += miGfxRefPosy1; }
 1fe:	fa0f fe82 	sxth.w	lr, r2
 202:	9301      	str	r3, [sp, #4]
      miGfxDestX2 = miGfxDestX1 + mpcSprite->miGfxWidth - 1;
 204:	8486      	strh	r6, [r0, #36]	; 0x24
      miGfxDestY2 = miGfxDestY1 + mpcSprite->miGfxHeight - 1;
 206:	84c7      	strh	r7, [r0, #38]	; 0x26
      miGfxDestX1 = liGfxDestX1;
 208:	f8a0 a020 	strh.w	sl, [r0, #32]
      miGfxDestY1 = liGfxDestY1;
 20c:	f8a0 e022 	strh.w	lr, [r0, #34]	; 0x22
                                                                       (liGfxX2 >= miGfxClipPosx1) && (liGfxY2 >= miGfxClipPosy1));}
 210:	f1b9 0f00 	cmp.w	r9, #0
 214:	f000 80ae 	beq.w	374 <cRes8b_Bpp1_1G_SpriteEngine_Bpp16_5R6G5B::i8BitOrRaw(short, short)+0x1b0>
                                                                       (liGfxX1 <= miGfxClipPosx2) && (liGfxY1 <= miGfxClipPosy2) &&
 218:	f9b5 900c 	ldrsh.w	r9, [r5, #12]
                             GfxInt liGfxX2, GfxInt liGfxY2) { return ((mbVisible) &&
 21c:	45ca      	cmp	sl, r9
 21e:	f300 80a9 	bgt.w	374 <cRes8b_Bpp1_1G_SpriteEngine_Bpp16_5R6G5B::i8BitOrRaw(short, short)+0x1b0>
                                                                       (liGfxX1 <= miGfxClipPosx2) && (liGfxY1 <= miGfxClipPosy2) &&
 222:	f9b5 b00e 	ldrsh.w	fp, [r5, #14]
 226:	45de      	cmp	lr, fp
 228:	f300 80a4 	bgt.w	374 <cRes8b_Bpp1_1G_SpriteEngine_Bpp16_5R6G5B::i8BitOrRaw(short, short)+0x1b0>
                                                                       (liGfxX2 >= miGfxClipPosx1) && (liGfxY2 >= miGfxClipPosy1));}
 22c:	f9b5 3008 	ldrsh.w	r3, [r5, #8]
                                                                       (liGfxX1 <= miGfxClipPosx2) && (liGfxY1 <= miGfxClipPosy2) &&
 230:	9303      	str	r3, [sp, #12]
 232:	429e      	cmp	r6, r3
 234:	f2c0 809e 	blt.w	374 <cRes8b_Bpp1_1G_SpriteEngine_Bpp16_5R6G5B::i8BitOrRaw(short, short)+0x1b0>
                                                                       (liGfxX2 >= miGfxClipPosx1) && (liGfxY2 >= miGfxClipPosy1));}
 238:	f9b5 300a 	ldrsh.w	r3, [r5, #10]
 23c:	9304      	str	r3, [sp, #16]
 23e:	429f      	cmp	r7, r3
 240:	f2c0 8098 	blt.w	374 <cRes8b_Bpp1_1G_SpriteEngine_Bpp16_5R6G5B::i8BitOrRaw(short, short)+0x1b0>
        miGfxSpriteX2 = mpcSprite->miGfxWidth - 1;
 244:	fa0f fc8c 	sxth.w	ip, ip
 248:	f8cd c014 	str.w	ip, [sp, #20]
        miGfxSpriteY2 = mpcSprite->miGfxHeight - 1;
 24c:	f9bd 3004 	ldrsh.w	r3, [sp, #4]
 250:	9301      	str	r3, [sp, #4]
        miGfxSpriteX2 = mpcSprite->miGfxWidth - 1;
 252:	9b05      	ldr	r3, [sp, #20]
 254:	8283      	strh	r3, [r0, #20]
        miGfxSpriteY2 = mpcSprite->miGfxHeight - 1;
 256:	9b01      	ldr	r3, [sp, #4]
 258:	82c3      	strh	r3, [r0, #22]
        if (miGfxDestX1 < mpcScreenDest->miGfxClipPosx1) { miGfxSpriteX1 = mpcScreenDest->miGfxClipPosx1 - miGfxDestX1; miGfxDestX1 = mpcScreenDest->miGfxClipPosx1; }
 25a:	9b03      	ldr	r3, [sp, #12]
        miGfxSpriteX2 = mpcSprite->miGfxWidth - 1;
 25c:	f8cd c008 	str.w	ip, [sp, #8]
        if (miGfxDestX1 < mpcScreenDest->miGfxClipPosx1) { miGfxSpriteX1 = mpcScreenDest->miGfxClipPosx1 - miGfxDestX1; miGfxDestX1 = mpcScreenDest->miGfxClipPosx1; }
 260:	459a      	cmp	sl, r3
        miGfxSpriteX1 = 0;
 262:	f04f 0c00 	mov.w	ip, #0
 266:	f8c0 c010 	str.w	ip, [r0, #16]
        if (miGfxDestX1 < mpcScreenDest->miGfxClipPosx1) { miGfxSpriteX1 = mpcScreenDest->miGfxClipPosx1 - miGfxDestX1; miGfxDestX1 = mpcScreenDest->miGfxClipPosx1; }
 26a:	f280 8089 	bge.w	380 <cRes8b_Bpp1_1G_SpriteEngine_Bpp16_5R6G5B::i8BitOrRaw(short, short)+0x1bc>
 26e:	1a59      	subs	r1, r3, r1
 270:	b289      	uxth	r1, r1
 272:	fa0f fc81 	sxth.w	ip, r1
 276:	9103      	str	r1, [sp, #12]
 278:	8403      	strh	r3, [r0, #32]
 27a:	469a      	mov	sl, r3
 27c:	f8a0 c010 	strh.w	ip, [r0, #16]
        if (miGfxDestY1 < mpcScreenDest->miGfxClipPosy1) { miGfxSpriteY1 = mpcScreenDest->miGfxClipPosy1 - miGfxDestY1; miGfxDestY1 = mpcScreenDest->miGfxClipPosy1; }
 280:	9b04      	ldr	r3, [sp, #16]
 282:	459e      	cmp	lr, r3
 284:	da7a      	bge.n	37c <cRes8b_Bpp1_1G_SpriteEngine_Bpp16_5R6G5B::i8BitOrRaw(short, short)+0x1b8>
 286:	1a9a      	subs	r2, r3, r2
 288:	b292      	uxth	r2, r2
 28a:	b211      	sxth	r1, r2
 28c:	9104      	str	r1, [sp, #16]
 28e:	8443      	strh	r3, [r0, #34]	; 0x22
 290:	469e      	mov	lr, r3
 292:	9b04      	ldr	r3, [sp, #16]
 294:	8243      	strh	r3, [r0, #18]
 296:	fb03 cc08 	mla	ip, r3, r8, ip
        if (miGfxDestX2 > mpcScreenDest->miGfxClipPosx2) miGfxSpriteX2 = miGfxSpriteX1 + mpcScreenDest->miGfxClipPosx2 - miGfxDestX1;
 29a:	454e      	cmp	r6, r9
 29c:	dd07      	ble.n	2ae <cRes8b_Bpp1_1G_SpriteEngine_Bpp16_5R6G5B::i8BitOrRaw(short, short)+0xea>
 29e:	9b03      	ldr	r3, [sp, #12]
 2a0:	eb03 0609 	add.w	r6, r3, r9
 2a4:	eba6 060a 	sub.w	r6, r6, sl
 2a8:	b233      	sxth	r3, r6
 2aa:	9302      	str	r3, [sp, #8]
 2ac:	8283      	strh	r3, [r0, #20]
        if (miGfxDestY2 > mpcScreenDest->miGfxClipPosy2) miGfxSpriteY2 = miGfxSpriteY1 + mpcScreenDest->miGfxClipPosy2 - miGfxDestY1;
 2ae:	455f      	cmp	r7, fp
 2b0:	dd06      	ble.n	2c0 <cRes8b_Bpp1_1G_SpriteEngine_Bpp16_5R6G5B::i8BitOrRaw(short, short)+0xfc>
 2b2:	eb02 030b 	add.w	r3, r2, fp
 2b6:	eba3 030e 	sub.w	r3, r3, lr
 2ba:	b21b      	sxth	r3, r3
 2bc:	9301      	str	r3, [sp, #4]
 2be:	82c3      	strh	r3, [r0, #22]
    muixXCnt = (miGfxSpriteX2 - miGfxSpriteX1) + 1;
 2c0:	9b03      	ldr	r3, [sp, #12]
    luixBytePosDest = (GfxImgSize)(miGfxDestY1 * mpcScreenDest->mpcBm->miGfxWidth + miGfxDestX1);
 2c2:	696d      	ldr	r5, [r5, #20]
    mpui8Sprite = mpcSprite->mpui8Data + BM_BPP1_1G_PXLIDX2BYTEPOS(muixBytePosSprite);
 2c4:	6827      	ldr	r7, [r4, #0]
    luixBytePosDest = (GfxImgSize)(miGfxDestY1 * mpcScreenDest->mpcBm->miGfxWidth + miGfxDestX1);
 2c6:	f8b5 8004 	ldrh.w	r8, [r5, #4]
    mpui8Dest = mpcScreenDest->mpcBm->mpui8Data + BM_BPP16_5R6G5B_PXLIDX2BYTEPOS(luixBytePosDest);
 2ca:	682e      	ldr	r6, [r5, #0]
    muixBytePosSprite = (GfxImgSize)(miGfxSpriteY1 * mpcSprite->miGfxWidth + miGfxSpriteX1);
 2cc:	f8c0 c034 	str.w	ip, [r0, #52]	; 0x34
    muixXCnt = (miGfxSpriteX2 - miGfxSpriteX1) + 1;
 2d0:	f1c3 0101 	rsb	r1, r3, #1
    muixYCnt = (miGfxSpriteY2 - miGfxSpriteY1) + 1;
 2d4:	9b01      	ldr	r3, [sp, #4]
 2d6:	f1c2 0201 	rsb	r2, r2, #1
 2da:	4413      	add	r3, r2
    muixXCnt = (miGfxSpriteX2 - miGfxSpriteX1) + 1;
 2dc:	9a02      	ldr	r2, [sp, #8]
    luixBytePosDest = (GfxImgSize)(miGfxDestY1 * mpcScreenDest->mpcBm->miGfxWidth + miGfxDestX1);
 2de:	fb1e aa08 	smlabb	sl, lr, r8, sl
    muixYCnt = (miGfxSpriteY2 - miGfxSpriteY1) + 1;
 2e2:	b21b      	sxth	r3, r3
    muixXCnt = (miGfxSpriteX2 - miGfxSpriteX1) + 1;
 2e4:	440a      	add	r2, r1
    mpui8Sprite = mpcSprite->mpui8Data + BM_BPP1_1G_PXLIDX2BYTEPOS(muixBytePosSprite);
 2e6:	eb07 0edc 	add.w	lr, r7, ip, lsr #3
    muixXCnt = (miGfxSpriteX2 - miGfxSpriteX1) + 1;
 2ea:	b212      	sxth	r2, r2
    mpui8Dest = mpcScreenDest->mpcBm->mpui8Data + BM_BPP16_5R6G5B_PXLIDX2BYTEPOS(luixBytePosDest);
 2ec:	eb06 0a4a 	add.w	sl, r6, sl, lsl #1
    muixBitPosSprite = BM_BPP1_1G_PXLIDX2BITPOS(muixBytePosSprite);
 2f0:	f00c 0707 	and.w	r7, ip, #7
      while (muixYCnt > 0)
 2f4:	2b00      	cmp	r3, #0
    mpui8Dest = mpcScreenDest->mpcBm->mpui8Data + BM_BPP16_5R6G5B_PXLIDX2BYTEPOS(luixBytePosDest);
 2f6:	f8c0 a028 	str.w	sl, [r0, #40]	; 0x28
    muixYCnt = (miGfxSpriteY2 - miGfxSpriteY1) + 1;
 2fa:	8583      	strh	r3, [r0, #44]	; 0x2c
    muixXCnt = (miGfxSpriteX2 - miGfxSpriteX1) + 1;
 2fc:	85c2      	strh	r2, [r0, #46]	; 0x2e
    mpui8Sprite = mpcSprite->mpui8Data + BM_BPP1_1G_PXLIDX2BYTEPOS(muixBytePosSprite);
 2fe:	f8c0 e018 	str.w	lr, [r0, #24]
    muixBitPosSprite = BM_BPP1_1G_PXLIDX2BITPOS(muixBytePosSprite);
 302:	6387      	str	r7, [r0, #56]	; 0x38
      while (muixYCnt > 0)
 304:	dd36      	ble.n	374 <cRes8b_Bpp1_1G_SpriteEngine_Bpp16_5R6G5B::i8BitOrRaw(short, short)+0x1b0>
        cMemTools::vMemBit2u16Or(mpui8Sprite, muixBitPosSprite, (uint16*)mpui8Dest, mui32Col, muixXCnt);
 306:	f8b0 8030 	ldrh.w	r8, [r0, #48]	; 0x30
    lui8BitMskSource = 128 >> lui8SrcStartBitPos;
 30a:	46a4      	mov	ip, r4
 30c:	f04f 0980 	mov.w	r9, #128	; 0x80
 310:	4674      	mov	r4, lr
 312:	46ae      	mov	lr, r5
 314:	4655      	mov	r5, sl
 316:	fa49 f307 	asr.w	r3, r9, r7
 31a:	b2db      	uxtb	r3, r3
    while (luixSize > 0)
 31c:	b19a      	cbz	r2, 346 <cRes8b_Bpp1_1G_SpriteEngine_Bpp16_5R6G5B::i8BitOrRaw(short, short)+0x182>
 31e:	4629      	mov	r1, r5
 320:	46a2      	mov	sl, r4
      if (*lpui8Source & lui8BitMskSource)
 322:	f89a 6000 	ldrb.w	r6, [sl]
 326:	4233      	tst	r3, r6
 328:	d003      	beq.n	332 <cRes8b_Bpp1_1G_SpriteEngine_Bpp16_5R6G5B::i8BitOrRaw(short, short)+0x16e>
        *lpui16Dest |= lui16Value;
 32a:	880e      	ldrh	r6, [r1, #0]
 32c:	ea48 0606 	orr.w	r6, r8, r6
 330:	800e      	strh	r6, [r1, #0]
  static inline void  vBitIncPos(u8* &pui8Ptr, u8 &ui8Mask)                                 {if ((ui8Mask) > 1) {ui8Mask >>= 1;} else {ui8Mask = 128; pui8Ptr++;}}
 332:	2b01      	cmp	r3, #1
 334:	bf12      	itee	ne
 336:	085b      	lsrne	r3, r3, #1
 338:	f10a 0a01 	addeq.w	sl, sl, #1
 33c:	2380      	moveq	r3, #128	; 0x80
    while (luixSize > 0)
 33e:	3a01      	subs	r2, #1
      lpui16Dest++;
 340:	f101 0102 	add.w	r1, r1, #2
    while (luixSize > 0)
 344:	d1ed      	bne.n	322 <cRes8b_Bpp1_1G_SpriteEngine_Bpp16_5R6G5B::i8BitOrRaw(short, short)+0x15e>
        muixYCnt--;
 346:	8d83      	ldrh	r3, [r0, #44]	; 0x2c
    muixBitPosSprite += mpcSprite->miGfxWidth;
 348:	f9bc 2004 	ldrsh.w	r2, [ip, #4]
    mpui8Dest += BM_BPP16_5R6G5B_PXLIDX2BYTEPOS(mpcScreenDest->mpcBm->miGfxWidth);
 34c:	f9be 1004 	ldrsh.w	r1, [lr, #4]
        muixYCnt--;
 350:	3b01      	subs	r3, #1
    muixBitPosSprite += mpcSprite->miGfxWidth;
 352:	4417      	add	r7, r2
        muixYCnt--;
 354:	b21b      	sxth	r3, r3
    mpui8Sprite += BM_BPP1_1G_PXLIDX2BYTEPOS(muixBitPosSprite);
 356:	eb04 04d7 	add.w	r4, r4, r7, lsr #3
    mpui8Dest += BM_BPP16_5R6G5B_PXLIDX2BYTEPOS(mpcScreenDest->mpcBm->miGfxWidth);
 35a:	eb05 0541 	add.w	r5, r5, r1, lsl #1
    muixBitPosSprite = BM_BPP1_1G_PXLIDX2BITPOS(muixBitPosSprite);
 35e:	f007 0707 	and.w	r7, r7, #7
      while (muixYCnt > 0)
 362:	2b00      	cmp	r3, #0
    mpui8Sprite += BM_BPP1_1G_PXLIDX2BYTEPOS(muixBitPosSprite);
 364:	6184      	str	r4, [r0, #24]
    muixBitPosSprite = BM_BPP1_1G_PXLIDX2BITPOS(muixBitPosSprite);
 366:	6387      	str	r7, [r0, #56]	; 0x38
        muixYCnt--;
 368:	8583      	strh	r3, [r0, #44]	; 0x2c
    mpui8Dest += BM_BPP16_5R6G5B_PXLIDX2BYTEPOS(mpcScreenDest->mpcBm->miGfxWidth);
 36a:	6285      	str	r5, [r0, #40]	; 0x28
      while (muixYCnt > 0)
 36c:	dd02      	ble.n	374 <cRes8b_Bpp1_1G_SpriteEngine_Bpp16_5R6G5B::i8BitOrRaw(short, short)+0x1b0>
 36e:	f9b0 202e 	ldrsh.w	r2, [r0, #46]	; 0x2e
 372:	e7d0      	b.n	316 <cRes8b_Bpp1_1G_SpriteEngine_Bpp16_5R6G5B::i8BitOrRaw(short, short)+0x152>
  }
 374:	2000      	movs	r0, #0
 376:	b007      	add	sp, #28
 378:	e8bd 8ff0 	ldmia.w	sp!, {r4, r5, r6, r7, r8, r9, sl, fp, pc}
        if (miGfxDestY1 < mpcScreenDest->miGfxClipPosy1) { miGfxSpriteY1 = mpcScreenDest->miGfxClipPosy1 - miGfxDestY1; miGfxDestY1 = mpcScreenDest->miGfxClipPosy1; }
 37c:	2200      	movs	r2, #0
 37e:	e78c      	b.n	29a <cRes8b_Bpp1_1G_SpriteEngine_Bpp16_5R6G5B::i8BitOrRaw(short, short)+0xd6>
        if (miGfxDestX1 < mpcScreenDest->miGfxClipPosx1) { miGfxSpriteX1 = mpcScreenDest->miGfxClipPosx1 - miGfxDestX1; miGfxDestX1 = mpcScreenDest->miGfxClipPosx1; }
 380:	f8cd c00c 	str.w	ip, [sp, #12]
 384:	e77c      	b.n	280 <cRes8b_Bpp1_1G_SpriteEngine_Bpp16_5R6G5B::i8BitOrRaw(short, short)+0xbc>
 386:	bf00      	nop

Disassembly of section .text._ZN40cRes8b_Bpp1_1G_SpriteEngine_Bpp16_5R6G5B10i8BitOrRleEss:

00000000 <non-virtual thunk to cRes8b_Bpp1_1G_SpriteEngine_Bpp16_5R6G5B::i8BitOrRle(short, short)>:
   0:	e92d 4ff0 	stmdb	sp!, {r4, r5, r6, r7, r8, r9, sl, fp, lr}
   4:	6985      	ldr	r5, [r0, #24]
   6:	6886      	ldr	r6, [r0, #8]
   8:	88af      	ldrh	r7, [r5, #4]
   a:	88eb      	ldrh	r3, [r5, #6]
   c:	f9b6 8004 	ldrsh.w	r8, [r6, #4]
  10:	88f4      	ldrh	r4, [r6, #6]
  12:	f895 9010 	ldrb.w	r9, [r5, #16]
  16:	4439      	add	r1, r7
  18:	441a      	add	r2, r3
  1a:	f108 3eff 	add.w	lr, r8, #4294967295
  1e:	3c01      	subs	r4, #1
  20:	b2a3      	uxth	r3, r4
  22:	b289      	uxth	r1, r1
  24:	b292      	uxth	r2, r2
  26:	b087      	sub	sp, #28
  28:	fa1f fe8e 	uxth.w	lr, lr
  2c:	eb02 0c03 	add.w	ip, r2, r3
  30:	eb0e 0701 	add.w	r7, lr, r1
  34:	9301      	str	r3, [sp, #4]
  36:	b23f      	sxth	r7, r7
  38:	fa0f fc8c 	sxth.w	ip, ip
  3c:	fa0f fa81 	sxth.w	sl, r1
  40:	b213      	sxth	r3, r2
  42:	8407      	strh	r7, [r0, #32]
  44:	f8a0 c022 	strh.w	ip, [r0, #34]	; 0x22
  48:	f8a0 a01c 	strh.w	sl, [r0, #28]
  4c:	83c3      	strh	r3, [r0, #30]
  4e:	f1b9 0f00 	cmp.w	r9, #0
  52:	f000 80c3 	beq.w	1dc <non-virtual thunk to cRes8b_Bpp1_1G_SpriteEngine_Bpp16_5R6G5B::i8BitOrRle(short, short)+0x1dc>
  56:	f9b5 900c 	ldrsh.w	r9, [r5, #12]
  5a:	45ca      	cmp	sl, r9
  5c:	f300 80be 	bgt.w	1dc <non-virtual thunk to cRes8b_Bpp1_1G_SpriteEngine_Bpp16_5R6G5B::i8BitOrRle(short, short)+0x1dc>
  60:	f9b5 b00e 	ldrsh.w	fp, [r5, #14]
  64:	455b      	cmp	r3, fp
  66:	f300 80b9 	bgt.w	1dc <non-virtual thunk to cRes8b_Bpp1_1G_SpriteEngine_Bpp16_5R6G5B::i8BitOrRle(short, short)+0x1dc>
  6a:	f9b5 4008 	ldrsh.w	r4, [r5, #8]
  6e:	9403      	str	r4, [sp, #12]
  70:	42a7      	cmp	r7, r4
  72:	f2c0 80b3 	blt.w	1dc <non-virtual thunk to cRes8b_Bpp1_1G_SpriteEngine_Bpp16_5R6G5B::i8BitOrRle(short, short)+0x1dc>
  76:	f9b5 400a 	ldrsh.w	r4, [r5, #10]
  7a:	9405      	str	r4, [sp, #20]
  7c:	45a4      	cmp	ip, r4
  7e:	f2c0 80ad 	blt.w	1dc <non-virtual thunk to cRes8b_Bpp1_1G_SpriteEngine_Bpp16_5R6G5B::i8BitOrRle(short, short)+0x1dc>
  82:	fa0f fe8e 	sxth.w	lr, lr
  86:	f8cd e010 	str.w	lr, [sp, #16]
  8a:	f9bd 4004 	ldrsh.w	r4, [sp, #4]
  8e:	9401      	str	r4, [sp, #4]
  90:	9c04      	ldr	r4, [sp, #16]
  92:	8204      	strh	r4, [r0, #16]
  94:	9c01      	ldr	r4, [sp, #4]
  96:	8244      	strh	r4, [r0, #18]
  98:	9c03      	ldr	r4, [sp, #12]
  9a:	f8cd e008 	str.w	lr, [sp, #8]
  9e:	45a2      	cmp	sl, r4
  a0:	f04f 0e00 	mov.w	lr, #0
  a4:	f8c0 e00c 	str.w	lr, [r0, #12]
  a8:	f280 80d8 	bge.w	25c <non-virtual thunk to cRes8b_Bpp1_1G_SpriteEngine_Bpp16_5R6G5B::i8BitOrRle(short, short)+0x25c>
  ac:	1a61      	subs	r1, r4, r1
  ae:	b289      	uxth	r1, r1
  b0:	fa0f fe81 	sxth.w	lr, r1
  b4:	9103      	str	r1, [sp, #12]
  b6:	8384      	strh	r4, [r0, #28]
  b8:	46a2      	mov	sl, r4
  ba:	f8a0 e00c 	strh.w	lr, [r0, #12]
  be:	9905      	ldr	r1, [sp, #20]
  c0:	428b      	cmp	r3, r1
  c2:	460c      	mov	r4, r1
  c4:	f280 80c8 	bge.w	258 <non-virtual thunk to cRes8b_Bpp1_1G_SpriteEngine_Bpp16_5R6G5B::i8BitOrRle(short, short)+0x258>
  c8:	1a8a      	subs	r2, r1, r2
  ca:	b292      	uxth	r2, r2
  cc:	460b      	mov	r3, r1
  ce:	b211      	sxth	r1, r2
  d0:	83c4      	strh	r4, [r0, #30]
  d2:	81c1      	strh	r1, [r0, #14]
  d4:	fb01 ee08 	mla	lr, r1, r8, lr
  d8:	454f      	cmp	r7, r9
  da:	dd07      	ble.n	ec <non-virtual thunk to cRes8b_Bpp1_1G_SpriteEngine_Bpp16_5R6G5B::i8BitOrRle(short, short)+0xec>
  dc:	9903      	ldr	r1, [sp, #12]
  de:	eb01 0709 	add.w	r7, r1, r9
  e2:	eba7 070a 	sub.w	r7, r7, sl
  e6:	b239      	sxth	r1, r7
  e8:	9102      	str	r1, [sp, #8]
  ea:	8201      	strh	r1, [r0, #16]
  ec:	45dc      	cmp	ip, fp
  ee:	dd05      	ble.n	fc <non-virtual thunk to cRes8b_Bpp1_1G_SpriteEngine_Bpp16_5R6G5B::i8BitOrRle(short, short)+0xfc>
  f0:	eb02 040b 	add.w	r4, r2, fp
  f4:	1ae4      	subs	r4, r4, r3
  f6:	b221      	sxth	r1, r4
  f8:	9101      	str	r1, [sp, #4]
  fa:	8241      	strh	r1, [r0, #18]
  fc:	6947      	ldr	r7, [r0, #20]
  fe:	f897 c000 	ldrb.w	ip, [r7]
 102:	f02c 0c7f 	bic.w	ip, ip, #127	; 0x7f
 106:	f880 c039 	strb.w	ip, [r0, #57]	; 0x39
 10a:	f897 c000 	ldrb.w	ip, [r7]
 10e:	4671      	mov	r1, lr
 110:	f00c 0c7f 	and.w	ip, ip, #127	; 0x7f
 114:	f880 c038 	strb.w	ip, [r0, #56]	; 0x38
 118:	b1d1      	cbz	r1, 150 <non-virtual thunk to cRes8b_Bpp1_1G_SpriteEngine_Bpp16_5R6G5B::i8BitOrRle(short, short)+0x150>
 11a:	45e6      	cmp	lr, ip
 11c:	f0c0 8097 	bcc.w	24e <non-virtual thunk to cRes8b_Bpp1_1G_SpriteEngine_Bpp16_5R6G5B::i8BitOrRle(short, short)+0x24e>
 120:	9c01      	ldr	r4, [sp, #4]
 122:	e002      	b.n	12a <non-virtual thunk to cRes8b_Bpp1_1G_SpriteEngine_Bpp16_5R6G5B::i8BitOrRle(short, short)+0x12a>
 124:	458c      	cmp	ip, r1
 126:	f200 8091 	bhi.w	24c <non-virtual thunk to cRes8b_Bpp1_1G_SpriteEngine_Bpp16_5R6G5B::i8BitOrRle(short, short)+0x24c>
 12a:	3701      	adds	r7, #1
 12c:	6147      	str	r7, [r0, #20]
 12e:	f897 e000 	ldrb.w	lr, [r7]
 132:	f02e 0e7f 	bic.w	lr, lr, #127	; 0x7f
 136:	f880 e039 	strb.w	lr, [r0, #57]	; 0x39
 13a:	f897 e000 	ldrb.w	lr, [r7]
 13e:	eba1 010c 	sub.w	r1, r1, ip
 142:	f00e 0c7f 	and.w	ip, lr, #127	; 0x7f
 146:	f880 c038 	strb.w	ip, [r0, #56]	; 0x38
 14a:	2900      	cmp	r1, #0
 14c:	d1ea      	bne.n	124 <non-virtual thunk to cRes8b_Bpp1_1G_SpriteEngine_Bpp16_5R6G5B::i8BitOrRle(short, short)+0x124>
 14e:	9401      	str	r4, [sp, #4]
 150:	9903      	ldr	r1, [sp, #12]
 152:	696f      	ldr	r7, [r5, #20]
 154:	f1c1 0e01 	rsb	lr, r1, #1
 158:	9901      	ldr	r1, [sp, #4]
 15a:	f8b7 c004 	ldrh.w	ip, [r7, #4]
 15e:	683d      	ldr	r5, [r7, #0]
 160:	f1c2 0201 	rsb	r2, r2, #1
 164:	4411      	add	r1, r2
 166:	9a02      	ldr	r2, [sp, #8]
 168:	b20c      	sxth	r4, r1
 16a:	4496      	add	lr, r2
 16c:	fb13 a30c 	smlabb	r3, r3, ip, sl
 170:	fa0f fe8e 	sxth.w	lr, lr
 174:	eb05 0543 	add.w	r5, r5, r3, lsl #1
 178:	2c00      	cmp	r4, #0
 17a:	6245      	str	r5, [r0, #36]	; 0x24
 17c:	8504      	strh	r4, [r0, #40]	; 0x28
 17e:	f8a0 e02a 	strh.w	lr, [r0, #42]	; 0x2a
 182:	dd2b      	ble.n	1dc <non-virtual thunk to cRes8b_Bpp1_1G_SpriteEngine_Bpp16_5R6G5B::i8BitOrRle(short, short)+0x1dc>
 184:	f1be 0f00 	cmp.w	lr, #0
 188:	dd2c      	ble.n	1e4 <non-virtual thunk to cRes8b_Bpp1_1G_SpriteEngine_Bpp16_5R6G5B::i8BitOrRle(short, short)+0x1e4>
 18a:	f10e 31ff 	add.w	r1, lr, #4294967295
 18e:	b289      	uxth	r1, r1
 190:	3101      	adds	r1, #1
 192:	eb05 0141 	add.w	r1, r5, r1, lsl #1
 196:	462a      	mov	r2, r5
 198:	e01a      	b.n	1d0 <non-virtual thunk to cRes8b_Bpp1_1G_SpriteEngine_Bpp16_5R6G5B::i8BitOrRle(short, short)+0x1d0>
 19a:	6ac3      	ldr	r3, [r0, #44]	; 0x2c
 19c:	8814      	ldrh	r4, [r2, #0]
 19e:	4323      	orrs	r3, r4
 1a0:	8013      	strh	r3, [r2, #0]
 1a2:	f890 3038 	ldrb.w	r3, [r0, #56]	; 0x38
 1a6:	3b01      	subs	r3, #1
 1a8:	b2db      	uxtb	r3, r3
 1aa:	3202      	adds	r2, #2
 1ac:	f880 3038 	strb.w	r3, [r0, #56]	; 0x38
 1b0:	b963      	cbnz	r3, 1cc <non-virtual thunk to cRes8b_Bpp1_1G_SpriteEngine_Bpp16_5R6G5B::i8BitOrRle(short, short)+0x1cc>
 1b2:	6943      	ldr	r3, [r0, #20]
 1b4:	1c5c      	adds	r4, r3, #1
 1b6:	6144      	str	r4, [r0, #20]
 1b8:	785c      	ldrb	r4, [r3, #1]
 1ba:	f024 047f 	bic.w	r4, r4, #127	; 0x7f
 1be:	f880 4039 	strb.w	r4, [r0, #57]	; 0x39
 1c2:	785b      	ldrb	r3, [r3, #1]
 1c4:	f003 037f 	and.w	r3, r3, #127	; 0x7f
 1c8:	f880 3038 	strb.w	r3, [r0, #56]	; 0x38
 1cc:	428a      	cmp	r2, r1
 1ce:	d009      	beq.n	1e4 <non-virtual thunk to cRes8b_Bpp1_1G_SpriteEngine_Bpp16_5R6G5B::i8BitOrRle(short, short)+0x1e4>
 1d0:	f890 3039 	ldrb.w	r3, [r0, #57]	; 0x39
 1d4:	2b00      	cmp	r3, #0
 1d6:	d1e0      	bne.n	19a <non-virtual thunk to cRes8b_Bpp1_1G_SpriteEngine_Bpp16_5R6G5B::i8BitOrRle(short, short)+0x19a>
 1d8:	8013      	strh	r3, [r2, #0]
 1da:	e7e2      	b.n	1a2 <non-virtual thunk to cRes8b_Bpp1_1G_SpriteEngine_Bpp16_5R6G5B::i8BitOrRle(short, short)+0x1a2>
 1dc:	2000      	movs	r0, #0
 1de:	b007      	add	sp, #28
 1e0:	e8bd 8ff0 	ldmia.w	sp!, {r4, r5, r6, r7, r8, r9, sl, fp, pc}
 1e4:	f9b0 2010 	ldrsh.w	r2, [r0, #16]
 1e8:	f9b6 3004 	ldrsh.w	r3, [r6, #4]
 1ec:	f9b0 100c 	ldrsh.w	r1, [r0, #12]
 1f0:	3201      	adds	r2, #1
 1f2:	1a9b      	subs	r3, r3, r2
 1f4:	185a      	adds	r2, r3, r1
 1f6:	d017      	beq.n	228 <non-virtual thunk to cRes8b_Bpp1_1G_SpriteEngine_Bpp16_5R6G5B::i8BitOrRle(short, short)+0x228>
 1f8:	f890 4038 	ldrb.w	r4, [r0, #56]	; 0x38
 1fc:	4294      	cmp	r4, r2
 1fe:	4623      	mov	r3, r4
 200:	d820      	bhi.n	244 <non-virtual thunk to cRes8b_Bpp1_1G_SpriteEngine_Bpp16_5R6G5B::i8BitOrRle(short, short)+0x244>
 202:	6941      	ldr	r1, [r0, #20]
 204:	e001      	b.n	20a <non-virtual thunk to cRes8b_Bpp1_1G_SpriteEngine_Bpp16_5R6G5B::i8BitOrRle(short, short)+0x20a>
 206:	4294      	cmp	r4, r2
 208:	d81c      	bhi.n	244 <non-virtual thunk to cRes8b_Bpp1_1G_SpriteEngine_Bpp16_5R6G5B::i8BitOrRle(short, short)+0x244>
 20a:	3101      	adds	r1, #1
 20c:	6141      	str	r1, [r0, #20]
 20e:	780b      	ldrb	r3, [r1, #0]
 210:	f023 037f 	bic.w	r3, r3, #127	; 0x7f
 214:	f880 3039 	strb.w	r3, [r0, #57]	; 0x39
 218:	780b      	ldrb	r3, [r1, #0]
 21a:	1b12      	subs	r2, r2, r4
 21c:	f003 037f 	and.w	r3, r3, #127	; 0x7f
 220:	f880 3038 	strb.w	r3, [r0, #56]	; 0x38
 224:	461c      	mov	r4, r3
 226:	d1ee      	bne.n	206 <non-virtual thunk to cRes8b_Bpp1_1G_SpriteEngine_Bpp16_5R6G5B::i8BitOrRle(short, short)+0x206>
 228:	8d03      	ldrh	r3, [r0, #40]	; 0x28
 22a:	f9b7 2004 	ldrsh.w	r2, [r7, #4]
 22e:	3b01      	subs	r3, #1
 230:	b21b      	sxth	r3, r3
 232:	eb05 0542 	add.w	r5, r5, r2, lsl #1
 236:	2b00      	cmp	r3, #0
 238:	8503      	strh	r3, [r0, #40]	; 0x28
 23a:	6245      	str	r5, [r0, #36]	; 0x24
 23c:	ddce      	ble.n	1dc <non-virtual thunk to cRes8b_Bpp1_1G_SpriteEngine_Bpp16_5R6G5B::i8BitOrRle(short, short)+0x1dc>
 23e:	f9b0 e02a 	ldrsh.w	lr, [r0, #42]	; 0x2a
 242:	e79f      	b.n	184 <non-virtual thunk to cRes8b_Bpp1_1G_SpriteEngine_Bpp16_5R6G5B::i8BitOrRle(short, short)+0x184>
 244:	1a9b      	subs	r3, r3, r2
 246:	f880 3038 	strb.w	r3, [r0, #56]	; 0x38
 24a:	e7ed      	b.n	228 <non-virtual thunk to cRes8b_Bpp1_1G_SpriteEngine_Bpp16_5R6G5B::i8BitOrRle(short, short)+0x228>
 24c:	9401      	str	r4, [sp, #4]
 24e:	ebac 0c01 	sub.w	ip, ip, r1
 252:	f880 c038 	strb.w	ip, [r0, #56]	; 0x38
 256:	e77b      	b.n	150 <non-virtual thunk to cRes8b_Bpp1_1G_SpriteEngine_Bpp16_5R6G5B::i8BitOrRle(short, short)+0x150>
 258:	2200      	movs	r2, #0
 25a:	e73d      	b.n	d8 <non-virtual thunk to cRes8b_Bpp1_1G_SpriteEngine_Bpp16_5R6G5B::i8BitOrRle(short, short)+0xd8>
 25c:	f8cd e00c 	str.w	lr, [sp, #12]
 260:	e72d      	b.n	be <non-virtual thunk to cRes8b_Bpp1_1G_SpriteEngine_Bpp16_5R6G5B::i8BitOrRle(short, short)+0xbe>
 262:	bf00      	nop

00000264 <cRes8b_Bpp1_1G_SpriteEngine_Bpp16_5R6G5B::i8BitOrRle(short, short)>:
  FRet i8BitOrRle(GfxInt lixDestX, GfxInt lixDestY)
 264:	e92d 4ff0 	stmdb	sp!, {r4, r5, r6, r7, r8, r9, sl, fp, lr}
    mpcScreenDest->vRel2Abs(lixDestX, lixDestY);
 268:	69c5      	ldr	r5, [r0, #28]
      miGfxDestX2 = miGfxDestX1 + mpcSprite->miGfxWidth - 1;
 26a:	68c6      	ldr	r6, [r0, #12]
  SCREEN_INLINE void vRel2AbsX(GfxInt &liGfxX) { liGfxX += miGfxRefPosx1; }
 26c:	88af      	ldrh	r7, [r5, #4]
  SCREEN_INLINE void vRel2AbsY(GfxInt &liGfxY) { liGfxY += miGfxRefPosy1; }
 26e:	88eb      	ldrh	r3, [r5, #6]
 270:	f9b6 8004 	ldrsh.w	r8, [r6, #4]
 274:	88f4      	ldrh	r4, [r6, #6]
                                                                       (liGfxX2 >= miGfxClipPosx1) && (liGfxY2 >= miGfxClipPosy1));}
 276:	f895 9010 	ldrb.w	r9, [r5, #16]
  SCREEN_INLINE void vRel2AbsX(GfxInt &liGfxX) { liGfxX += miGfxRefPosx1; }
 27a:	4439      	add	r1, r7
  SCREEN_INLINE void vRel2AbsY(GfxInt &liGfxY) { liGfxY += miGfxRefPosy1; }
 27c:	441a      	add	r2, r3
 27e:	f108 3eff 	add.w	lr, r8, #4294967295
 282:	3c01      	subs	r4, #1
 284:	b2a3      	uxth	r3, r4
  SCREEN_INLINE void vRel2AbsX(GfxInt &liGfxX) { liGfxX += miGfxRefPosx1; }
 286:	b289      	uxth	r1, r1
  SCREEN_INLINE void vRel2AbsY(GfxInt &liGfxY) { liGfxY += miGfxRefPosy1; }
 288:	b292      	uxth	r2, r2
  FRet i8BitOrRle(GfxInt lixDestX, GfxInt lixDestY)
 28a:	b087      	sub	sp, #28
 28c:	fa1f fe8e 	uxth.w	lr, lr
      miGfxDestY2 = miGfxDestY1 + mpcSprite->miGfxHeight - 1;
 290:	eb03 0c02 	add.w	ip, r3, r2
      miGfxDestX2 = miGfxDestX1 + mpcSprite->miGfxWidth - 1;
 294:	eb01 070e 	add.w	r7, r1, lr
      miGfxDestY2 = miGfxDestY1 + mpcSprite->miGfxHeight - 1;
 298:	9301      	str	r3, [sp, #4]
      miGfxDestX2 = miGfxDestX1 + mpcSprite->miGfxWidth - 1;
 29a:	b23f      	sxth	r7, r7
      miGfxDestY2 = miGfxDestY1 + mpcSprite->miGfxHeight - 1;
 29c:	fa0f fc8c 	sxth.w	ip, ip
  SCREEN_INLINE void vRel2AbsX(GfxInt &liGfxX) { liGfxX += miGfxRefPosx1; }
 2a0:	fa0f fa81 	sxth.w	sl, r1
  SCREEN_INLINE void vRel2AbsY(GfxInt &liGfxY) { liGfxY += miGfxRefPosy1; }
 2a4:	b213      	sxth	r3, r2
      miGfxDestX2 = miGfxDestX1 + mpcSprite->miGfxWidth - 1;
 2a6:	8487      	strh	r7, [r0, #36]	; 0x24
      miGfxDestY2 = miGfxDestY1 + mpcSprite->miGfxHeight - 1;
 2a8:	f8a0 c026 	strh.w	ip, [r0, #38]	; 0x26
      miGfxDestX1 = liGfxDestX1;
 2ac:	f8a0 a020 	strh.w	sl, [r0, #32]
      miGfxDestY1 = liGfxDestY1;
 2b0:	8443      	strh	r3, [r0, #34]	; 0x22
                                                                       (liGfxX2 >= miGfxClipPosx1) && (liGfxY2 >= miGfxClipPosy1));}
 2b2:	f1b9 0f00 	cmp.w	r9, #0
 2b6:	f000 80c3 	beq.w	440 <cRes8b_Bpp1_1G_SpriteEngine_Bpp16_5R6G5B::i8BitOrRle(short, short)+0x1dc>
                                                                       (liGfxX1 <= miGfxClipPosx2) && (liGfxY1 <= miGfxClipPosy2) &&
 2ba:	f9b5 900c 	ldrsh.w	r9, [r5, #12]
                             GfxInt liGfxX2, GfxInt liGfxY2) { return ((mbVisible) &&
 2be:	45ca      	cmp	sl, r9
 2c0:	f300 80be 	bgt.w	440 <cRes8b_Bpp1_1G_SpriteEngine_Bpp16_5R6G5B::i8BitOrRle(short, short)+0x1dc>
                                                                       (liGfxX1 <= miGfxClipPosx2) && (liGfxY1 <= miGfxClipPosy2) &&
 2c4:	f9b5 b00e 	ldrsh.w	fp, [r5, #14]
 2c8:	455b      	cmp	r3, fp
 2ca:	f300 80b9 	bgt.w	440 <cRes8b_Bpp1_1G_SpriteEngine_Bpp16_5R6G5B::i8BitOrRle(short, short)+0x1dc>
                                                                       (liGfxX2 >= miGfxClipPosx1) && (liGfxY2 >= miGfxClipPosy1));}
 2ce:	f9b5 4008 	ldrsh.w	r4, [r5, #8]
                                                                       (liGfxX1 <= miGfxClipPosx2) && (liGfxY1 <= miGfxClipPosy2) &&
 2d2:	9403      	str	r4, [sp, #12]
 2d4:	42a7      	cmp	r7, r4
 2d6:	f2c0 80b3 	blt.w	440 <cRes8b_Bpp1_1G_SpriteEngine_Bpp16_5R6G5B::i8BitOrRle(short, short)+0x1dc>
                                                                       (liGfxX2 >= miGfxClipPosx1) && (liGfxY2 >= miGfxClipPosy1));}
 2da:	f9b5 400a 	ldrsh.w	r4, [r5, #10]
 2de:	9405      	str	r4, [sp, #20]
 2e0:	45a4      	cmp	ip, r4
 2e2:	f2c0 80ad 	blt.w	440 <cRes8b_Bpp1_1G_SpriteEngine_Bpp16_5R6G5B::i8BitOrRle(short, short)+0x1dc>
        miGfxSpriteX2 = mpcSprite->miGfxWidth - 1;
 2e6:	fa0f fe8e 	sxth.w	lr, lr
 2ea:	f8cd e010 	str.w	lr, [sp, #16]
        miGfxSpriteY2 = mpcSprite->miGfxHeight - 1;
 2ee:	f9bd 4004 	ldrsh.w	r4, [sp, #4]
 2f2:	9401      	str	r4, [sp, #4]
        miGfxSpriteX2 = mpcSprite->miGfxWidth - 1;
 2f4:	9c04      	ldr	r4, [sp, #16]
 2f6:	8284      	strh	r4, [r0, #20]
        miGfxSpriteY2 = mpcSprite->miGfxHeight - 1;
 2f8:	9c01      	ldr	r4, [sp, #4]
 2fa:	82c4      	strh	r4, [r0, #22]
        if (miGfxDestX1 < mpcScreenDest->miGfxClipPosx1) { miGfxSpriteX1 = mpcScreenDest->miGfxClipPosx1 - miGfxDestX1; miGfxDestX1 = mpcScreenDest->miGfxClipPosx1; }
 2fc:	9c03      	ldr	r4, [sp, #12]
        miGfxSpriteX2 = mpcSprite->miGfxWidth - 1;
 2fe:	f8cd e008 	str.w	lr, [sp, #8]
        if (miGfxDestX1 < mpcScreenDest->miGfxClipPosx1) { miGfxSpriteX1 = mpcScreenDest->miGfxClipPosx1 - miGfxDestX1; miGfxDestX1 = mpcScreenDest->miGfxClipPosx1; }
 302:	45a2      	cmp	sl, r4
        miGfxSpriteX1 = 0;
 304:	f04f 0e00 	mov.w	lr, #0
 308:	f8c0 e010 	str.w	lr, [r0, #16]
        if (miGfxDestX1 < mpcScreenDest->miGfxClipPosx1) { miGfxSpriteX1 = mpcScreenDest->miGfxClipPosx1 - miGfxDestX1; miGfxDestX1 = mpcScreenDest->miGfxClipPosx1; }
 30c:	f280 80d8 	bge.w	4c0 <cRes8b_Bpp1_1G_SpriteEngine_Bpp16_5R6G5B::i8BitOrRle(short, short)+0x25c>
 310:	1a61      	subs	r1, r4, r1
 312:	b289      	uxth	r1, r1
 314:	fa0f fe81 	sxth.w	lr, r1
 318:	9103      	str	r1, [sp, #12]
 31a:	8404      	strh	r4, [r0, #32]
 31c:	46a2      	mov	sl, r4
 31e:	f8a0 e010 	strh.w	lr, [r0, #16]
        if (miGfxDestY1 < mpcScreenDest->miGfxClipPosy1) { miGfxSpriteY1 = mpcScreenDest->miGfxClipPosy1 - miGfxDestY1; miGfxDestY1 = mpcScreenDest->miGfxClipPosy1; }
 322:	9905      	ldr	r1, [sp, #20]
 324:	428b      	cmp	r3, r1
 326:	460c      	mov	r4, r1
 328:	f280 80c8 	bge.w	4bc <cRes8b_Bpp1_1G_SpriteEngine_Bpp16_5R6G5B::i8BitOrRle(short, short)+0x258>
 32c:	1a8a      	subs	r2, r1, r2
 32e:	b292      	uxth	r2, r2
 330:	460b      	mov	r3, r1
 332:	b211      	sxth	r1, r2
 334:	8444      	strh	r4, [r0, #34]	; 0x22
 336:	8241      	strh	r1, [r0, #18]
 338:	fb01 ee08 	mla	lr, r1, r8, lr
        if (miGfxDestX2 > mpcScreenDest->miGfxClipPosx2) miGfxSpriteX2 = miGfxSpriteX1 + mpcScreenDest->miGfxClipPosx2 - miGfxDestX1;
 33c:	454f      	cmp	r7, r9
 33e:	dd07      	ble.n	350 <cRes8b_Bpp1_1G_SpriteEngine_Bpp16_5R6G5B::i8BitOrRle(short, short)+0xec>
 340:	9903      	ldr	r1, [sp, #12]
 342:	eb01 0709 	add.w	r7, r1, r9
 346:	eba7 070a 	sub.w	r7, r7, sl
 34a:	b239      	sxth	r1, r7
 34c:	9102      	str	r1, [sp, #8]
 34e:	8281      	strh	r1, [r0, #20]
        if (miGfxDestY2 > mpcScreenDest->miGfxClipPosy2) miGfxSpriteY2 = miGfxSpriteY1 + mpcScreenDest->miGfxClipPosy2 - miGfxDestY1;
 350:	45dc      	cmp	ip, fp
 352:	dd05      	ble.n	360 <cRes8b_Bpp1_1G_SpriteEngine_Bpp16_5R6G5B::i8BitOrRle(short, short)+0xfc>
 354:	eb02 040b 	add.w	r4, r2, fp
 358:	1ae4      	subs	r4, r4, r3
 35a:	b221      	sxth	r1, r4
 35c:	9101      	str	r1, [sp, #4]
 35e:	82c1      	strh	r1, [r0, #22]
    mui8SpriteRleValue = ((*mpui8Sprite) & 128);
 360:	6987      	ldr	r7, [r0, #24]
 362:	f897 c000 	ldrb.w	ip, [r7]
 366:	f02c 0c7f 	bic.w	ip, ip, #127	; 0x7f
 36a:	f880 c03d 	strb.w	ip, [r0, #61]	; 0x3d
    mui8SpriteRleCnt = ((*mpui8Sprite) & 127);
 36e:	f897 c000 	ldrb.w	ip, [r7]
    while (muixPxlCnt > 0)
 372:	4671      	mov	r1, lr
    mui8SpriteRleCnt = ((*mpui8Sprite) & 127);
 374:	f00c 0c7f 	and.w	ip, ip, #127	; 0x7f
 378:	f880 c03c 	strb.w	ip, [r0, #60]	; 0x3c
    while (muixPxlCnt > 0)
 37c:	b1d1      	cbz	r1, 3b4 <cRes8b_Bpp1_1G_SpriteEngine_Bpp16_5R6G5B::i8BitOrRle(short, short)+0x150>
      if (mui8SpriteRleCnt > muixPxlCnt)
 37e:	45e6      	cmp	lr, ip
 380:	f0c0 8097 	bcc.w	4b2 <cRes8b_Bpp1_1G_SpriteEngine_Bpp16_5R6G5B::i8BitOrRle(short, short)+0x24e>
 384:	9c01      	ldr	r4, [sp, #4]
 386:	e002      	b.n	38e <cRes8b_Bpp1_1G_SpriteEngine_Bpp16_5R6G5B::i8BitOrRle(short, short)+0x12a>
 388:	458c      	cmp	ip, r1
 38a:	f200 8091 	bhi.w	4b0 <cRes8b_Bpp1_1G_SpriteEngine_Bpp16_5R6G5B::i8BitOrRle(short, short)+0x24c>
        mpui8Sprite++;
 38e:	3701      	adds	r7, #1
 390:	6187      	str	r7, [r0, #24]
        mui8SpriteRleValue = ((*mpui8Sprite) & 128);
 392:	f897 e000 	ldrb.w	lr, [r7]
 396:	f02e 0e7f 	bic.w	lr, lr, #127	; 0x7f
 39a:	f880 e03d 	strb.w	lr, [r0, #61]	; 0x3d
        mui8SpriteRleCnt = ((*mpui8Sprite) & 127);
 39e:	f897 e000 	ldrb.w	lr, [r7]
        muixPxlCnt -= mui8SpriteRleCnt;
 3a2:	eba1 010c 	sub.w	r1, r1, ip
        mui8SpriteRleCnt = ((*mpui8Sprite) & 127);
 3a6:	f00e 0c7f 	and.w	ip, lr, #127	; 0x7f
 3aa:	f880 c03c 	strb.w	ip, [r0, #60]	; 0x3c
    while (muixPxlCnt > 0)
 3ae:	2900      	cmp	r1, #0
 3b0:	d1ea      	bne.n	388 <cRes8b_Bpp1_1G_SpriteEngine_Bpp16_5R6G5B::i8BitOrRle(short, short)+0x124>
 3b2:	9401      	str	r4, [sp, #4]
    muixXCnt = (miGfxSpriteX2 - miGfxSpriteX1) + 1;
 3b4:	9903      	ldr	r1, [sp, #12]
    luixBytePosDest = (GfxImgSize)(miGfxDestY1 * mpcScreenDest->mpcBm->miGfxWidth + miGfxDestX1);
 3b6:	696f      	ldr	r7, [r5, #20]
    muixXCnt = (miGfxSpriteX2 - miGfxSpriteX1) + 1;
 3b8:	f1c1 0e01 	rsb	lr, r1, #1
    muixYCnt = (miGfxSpriteY2 - miGfxSpriteY1) + 1;
 3bc:	9901      	ldr	r1, [sp, #4]
    luixBytePosDest = (GfxImgSize)(miGfxDestY1 * mpcScreenDest->mpcBm->miGfxWidth + miGfxDestX1);
 3be:	f8b7 c004 	ldrh.w	ip, [r7, #4]
    mpui8Dest = mpcScreenDest->mpcBm->mpui8Data + BM_BPP16_5R6G5B_PXLIDX2BYTEPOS(luixBytePosDest);
 3c2:	683d      	ldr	r5, [r7, #0]
    muixYCnt = (miGfxSpriteY2 - miGfxSpriteY1) + 1;
 3c4:	f1c2 0201 	rsb	r2, r2, #1
 3c8:	4411      	add	r1, r2
    muixXCnt = (miGfxSpriteX2 - miGfxSpriteX1) + 1;
 3ca:	9a02      	ldr	r2, [sp, #8]
    muixYCnt = (miGfxSpriteY2 - miGfxSpriteY1) + 1;
 3cc:	b20c      	sxth	r4, r1
    muixXCnt = (miGfxSpriteX2 - miGfxSpriteX1) + 1;
 3ce:	4496      	add	lr, r2
    luixBytePosDest = (GfxImgSize)(miGfxDestY1 * mpcScreenDest->mpcBm->miGfxWidth + miGfxDestX1);
 3d0:	fb13 a30c 	smlabb	r3, r3, ip, sl
    muixXCnt = (miGfxSpriteX2 - miGfxSpriteX1) + 1;
 3d4:	fa0f fe8e 	sxth.w	lr, lr
    mpui8Dest = mpcScreenDest->mpcBm->mpui8Data + BM_BPP16_5R6G5B_PXLIDX2BYTEPOS(luixBytePosDest);
 3d8:	eb05 0543 	add.w	r5, r5, r3, lsl #1
      while (muixYCnt > 0)
 3dc:	2c00      	cmp	r4, #0
    mpui8Dest = mpcScreenDest->mpcBm->mpui8Data + BM_BPP16_5R6G5B_PXLIDX2BYTEPOS(luixBytePosDest);
 3de:	6285      	str	r5, [r0, #40]	; 0x28
    muixYCnt = (miGfxSpriteY2 - miGfxSpriteY1) + 1;
 3e0:	8584      	strh	r4, [r0, #44]	; 0x2c
    muixXCnt = (miGfxSpriteX2 - miGfxSpriteX1) + 1;
 3e2:	f8a0 e02e 	strh.w	lr, [r0, #46]	; 0x2e
      while (muixYCnt > 0)
 3e6:	dd2b      	ble.n	440 <cRes8b_Bpp1_1G_SpriteEngine_Bpp16_5R6G5B::i8BitOrRle(short, short)+0x1dc>
        while (luixXCnt > 0)
 3e8:	f1be 0f00 	cmp.w	lr, #0
 3ec:	dd2c      	ble.n	448 <cRes8b_Bpp1_1G_SpriteEngine_Bpp16_5R6G5B::i8BitOrRle(short, short)+0x1e4>
 3ee:	f10e 31ff 	add.w	r1, lr, #4294967295
 3f2:	b289      	uxth	r1, r1
 3f4:	3101      	adds	r1, #1
 3f6:	eb05 0141 	add.w	r1, r5, r1, lsl #1
        lpui16Dest = (uint16*)mpui8Dest;
 3fa:	462a      	mov	r2, r5
 3fc:	e01a      	b.n	434 <cRes8b_Bpp1_1G_SpriteEngine_Bpp16_5R6G5B::i8BitOrRle(short, short)+0x1d0>
            *lpui16Dest |= mui32Col;
 3fe:	6b03      	ldr	r3, [r0, #48]	; 0x30
 400:	8814      	ldrh	r4, [r2, #0]
 402:	4323      	orrs	r3, r4
 404:	8013      	strh	r3, [r2, #0]
          mui8SpriteRleCnt--;
 406:	f890 303c 	ldrb.w	r3, [r0, #60]	; 0x3c
 40a:	3b01      	subs	r3, #1
 40c:	b2db      	uxtb	r3, r3
          lpui16Dest++;
 40e:	3202      	adds	r2, #2
          mui8SpriteRleCnt--;
 410:	f880 303c 	strb.w	r3, [r0, #60]	; 0x3c
          if (mui8SpriteRleCnt == 0)
 414:	b963      	cbnz	r3, 430 <cRes8b_Bpp1_1G_SpriteEngine_Bpp16_5R6G5B::i8BitOrRle(short, short)+0x1cc>
            mpui8Sprite++;
 416:	6983      	ldr	r3, [r0, #24]
 418:	1c5c      	adds	r4, r3, #1
 41a:	6184      	str	r4, [r0, #24]
            mui8SpriteRleValue = ((*mpui8Sprite) & 128);
 41c:	785c      	ldrb	r4, [r3, #1]
 41e:	f024 047f 	bic.w	r4, r4, #127	; 0x7f
 422:	f880 403d 	strb.w	r4, [r0, #61]	; 0x3d
            mui8SpriteRleCnt = ((*mpui8Sprite) & 127);
 426:	785b      	ldrb	r3, [r3, #1]
 428:	f003 037f 	and.w	r3, r3, #127	; 0x7f
 42c:	f880 303c 	strb.w	r3, [r0, #60]	; 0x3c
        while (luixXCnt > 0)
 430:	428a      	cmp	r2, r1
 432:	d009      	beq.n	448 <cRes8b_Bpp1_1G_SpriteEngine_Bpp16_5R6G5B::i8BitOrRle(short, short)+0x1e4>
          if (mui8SpriteRleValue)
 434:	f890 303d 	ldrb.w	r3, [r0, #61]	; 0x3d
 438:	2b00      	cmp	r3, #0
 43a:	d1e0      	bne.n	3fe <cRes8b_Bpp1_1G_SpriteEngine_Bpp16_5R6G5B::i8BitOrRle(short, short)+0x19a>
            *lpui16Dest = 0;
 43c:	8013      	strh	r3, [r2, #0]
 43e:	e7e2      	b.n	406 <cRes8b_Bpp1_1G_SpriteEngine_Bpp16_5R6G5B::i8BitOrRle(short, short)+0x1a2>
  }
 440:	2000      	movs	r0, #0
 442:	b007      	add	sp, #28
 444:	e8bd 8ff0 	ldmia.w	sp!, {r4, r5, r6, r7, r8, r9, sl, fp, pc}
        vGoPxlRle(miGfxSpriteX1 + (mpcSprite->miGfxWidth - (miGfxSpriteX2 + 1)));
 448:	f9b0 2014 	ldrsh.w	r2, [r0, #20]
 44c:	f9b6 3004 	ldrsh.w	r3, [r6, #4]
 450:	f9b0 1010 	ldrsh.w	r1, [r0, #16]
 454:	3201      	adds	r2, #1
 456:	1a9b      	subs	r3, r3, r2
    while (muixPxlCnt > 0)
 458:	185a      	adds	r2, r3, r1
 45a:	d017      	beq.n	48c <cRes8b_Bpp1_1G_SpriteEngine_Bpp16_5R6G5B::i8BitOrRle(short, short)+0x228>
      if (mui8SpriteRleCnt > muixPxlCnt)
 45c:	f890 403c 	ldrb.w	r4, [r0, #60]	; 0x3c
 460:	42a2      	cmp	r2, r4
 462:	4623      	mov	r3, r4
 464:	d320      	bcc.n	4a8 <cRes8b_Bpp1_1G_SpriteEngine_Bpp16_5R6G5B::i8BitOrRle(short, short)+0x244>
 466:	6981      	ldr	r1, [r0, #24]
 468:	e001      	b.n	46e <cRes8b_Bpp1_1G_SpriteEngine_Bpp16_5R6G5B::i8BitOrRle(short, short)+0x20a>
 46a:	4294      	cmp	r4, r2
 46c:	d81c      	bhi.n	4a8 <cRes8b_Bpp1_1G_SpriteEngine_Bpp16_5R6G5B::i8BitOrRle(short, short)+0x244>
        mpui8Sprite++;
 46e:	3101      	adds	r1, #1
 470:	6181      	str	r1, [r0, #24]
        mui8SpriteRleValue = ((*mpui8Sprite) & 128);
 472:	780b      	ldrb	r3, [r1, #0]
 474:	f023 037f 	bic.w	r3, r3, #127	; 0x7f
 478:	f880 303d 	strb.w	r3, [r0, #61]	; 0x3d
        mui8SpriteRleCnt = ((*mpui8Sprite) & 127);
 47c:	780b      	ldrb	r3, [r1, #0]
    while (muixPxlCnt > 0)
 47e:	1b12      	subs	r2, r2, r4
        mui8SpriteRleCnt = ((*mpui8Sprite) & 127);
 480:	f003 037f 	and.w	r3, r3, #127	; 0x7f
 484:	f880 303c 	strb.w	r3, [r0, #60]	; 0x3c
      if (mui8SpriteRleCnt > muixPxlCnt)
 488:	461c      	mov	r4, r3
    while (muixPxlCnt > 0)
 48a:	d1ee      	bne.n	46a <cRes8b_Bpp1_1G_SpriteEngine_Bpp16_5R6G5B::i8BitOrRle(short, short)+0x206>
        muixYCnt--;
 48c:	8d83      	ldrh	r3, [r0, #44]	; 0x2c
        mpui8Dest += BM_BPP16_5R6G5B_PXLIDX2BYTEPOS(mpcScreenDest->mpcBm->miGfxWidth);
 48e:	f9b7 2004 	ldrsh.w	r2, [r7, #4]
        muixYCnt--;
 492:	3b01      	subs	r3, #1
 494:	b21b      	sxth	r3, r3
        mpui8Dest += BM_BPP16_5R6G5B_PXLIDX2BYTEPOS(mpcScreenDest->mpcBm->miGfxWidth);
 496:	eb05 0542 	add.w	r5, r5, r2, lsl #1
      while (muixYCnt > 0)
 49a:	2b00      	cmp	r3, #0
        muixYCnt--;
 49c:	8583      	strh	r3, [r0, #44]	; 0x2c
        mpui8Dest += BM_BPP16_5R6G5B_PXLIDX2BYTEPOS(mpcScreenDest->mpcBm->miGfxWidth);
 49e:	6285      	str	r5, [r0, #40]	; 0x28
      while (muixYCnt > 0)
 4a0:	ddce      	ble.n	440 <cRes8b_Bpp1_1G_SpriteEngine_Bpp16_5R6G5B::i8BitOrRle(short, short)+0x1dc>
 4a2:	f9b0 e02e 	ldrsh.w	lr, [r0, #46]	; 0x2e
 4a6:	e79f      	b.n	3e8 <cRes8b_Bpp1_1G_SpriteEngine_Bpp16_5R6G5B::i8BitOrRle(short, short)+0x184>
        mui8SpriteRleCnt -= muixPxlCnt;
 4a8:	1a9b      	subs	r3, r3, r2
 4aa:	f880 303c 	strb.w	r3, [r0, #60]	; 0x3c
 4ae:	e7ed      	b.n	48c <cRes8b_Bpp1_1G_SpriteEngine_Bpp16_5R6G5B::i8BitOrRle(short, short)+0x228>
 4b0:	9401      	str	r4, [sp, #4]
 4b2:	ebac 0c01 	sub.w	ip, ip, r1
 4b6:	f880 c03c 	strb.w	ip, [r0, #60]	; 0x3c
 4ba:	e77b      	b.n	3b4 <cRes8b_Bpp1_1G_SpriteEngine_Bpp16_5R6G5B::i8BitOrRle(short, short)+0x150>
        if (miGfxDestY1 < mpcScreenDest->miGfxClipPosy1) { miGfxSpriteY1 = mpcScreenDest->miGfxClipPosy1 - miGfxDestY1; miGfxDestY1 = mpcScreenDest->miGfxClipPosy1; }
 4bc:	2200      	movs	r2, #0
 4be:	e73d      	b.n	33c <cRes8b_Bpp1_1G_SpriteEngine_Bpp16_5R6G5B::i8BitOrRle(short, short)+0xd8>
        if (miGfxDestX1 < mpcScreenDest->miGfxClipPosx1) { miGfxSpriteX1 = mpcScreenDest->miGfxClipPosx1 - miGfxDestX1; miGfxDestX1 = mpcScreenDest->miGfxClipPosx1; }
 4c0:	f8cd e00c 	str.w	lr, [sp, #12]
 4c4:	e72d      	b.n	322 <cRes8b_Bpp1_1G_SpriteEngine_Bpp16_5R6G5B::i8BitOrRle(short, short)+0xbe>
 4c6:	bf00      	nop

Disassembly of section .text._ZN40cRes8b_Bpp1_1G_SpriteEngine_Bpp16_5R6G5B11i8BitCpyRleEss:

00000000 <non-virtual thunk to cRes8b_Bpp1_1G_SpriteEngine_Bpp16_5R6G5B::i8BitCpyRle(short, short)>:
   0:	e92d 4ff0 	stmdb	sp!, {r4, r5, r6, r7, r8, r9, sl, fp, lr}
   4:	6985      	ldr	r5, [r0, #24]
   6:	6886      	ldr	r6, [r0, #8]
   8:	88af      	ldrh	r7, [r5, #4]
   a:	88eb      	ldrh	r3, [r5, #6]
   c:	f9b6 8004 	ldrsh.w	r8, [r6, #4]
  10:	88f4      	ldrh	r4, [r6, #6]
  12:	f895 9010 	ldrb.w	r9, [r5, #16]
  16:	4439      	add	r1, r7
  18:	441a      	add	r2, r3
  1a:	f108 3eff 	add.w	lr, r8, #4294967295
  1e:	3c01      	subs	r4, #1
  20:	b2a3      	uxth	r3, r4
  22:	b289      	uxth	r1, r1
  24:	b292      	uxth	r2, r2
  26:	b087      	sub	sp, #28
  28:	fa1f fe8e 	uxth.w	lr, lr
  2c:	eb02 0c03 	add.w	ip, r2, r3
  30:	eb0e 0701 	add.w	r7, lr, r1
  34:	9301      	str	r3, [sp, #4]
  36:	b23f      	sxth	r7, r7
  38:	fa0f fc8c 	sxth.w	ip, ip
  3c:	fa0f fa81 	sxth.w	sl, r1
  40:	b213      	sxth	r3, r2
  42:	8407      	strh	r7, [r0, #32]
  44:	f8a0 c022 	strh.w	ip, [r0, #34]	; 0x22
  48:	f8a0 a01c 	strh.w	sl, [r0, #28]
  4c:	83c3      	strh	r3, [r0, #30]
  4e:	f1b9 0f00 	cmp.w	r9, #0
  52:	f000 80c1 	beq.w	1d8 <non-virtual thunk to cRes8b_Bpp1_1G_SpriteEngine_Bpp16_5R6G5B::i8BitCpyRle(short, short)+0x1d8>
  56:	f9b5 900c 	ldrsh.w	r9, [r5, #12]
  5a:	45ca      	cmp	sl, r9
  5c:	f300 80bc 	bgt.w	1d8 <non-virtual thunk to cRes8b_Bpp1_1G_SpriteEngine_Bpp16_5R6G5B::i8BitCpyRle(short, short)+0x1d8>
  60:	f9b5 b00e 	ldrsh.w	fp, [r5, #14]
  64:	455b      	cmp	r3, fp
  66:	f300 80b7 	bgt.w	1d8 <non-virtual thunk to cRes8b_Bpp1_1G_SpriteEngine_Bpp16_5R6G5B::i8BitCpyRle(short, short)+0x1d8>
  6a:	f9b5 4008 	ldrsh.w	r4, [r5, #8]
  6e:	9403      	str	r4, [sp, #12]
  70:	42a7      	cmp	r7, r4
  72:	f2c0 80b1 	blt.w	1d8 <non-virtual thunk to cRes8b_Bpp1_1G_SpriteEngine_Bpp16_5R6G5B::i8BitCpyRle(short, short)+0x1d8>
  76:	f9b5 400a 	ldrsh.w	r4, [r5, #10]
  7a:	9405      	str	r4, [sp, #20]
  7c:	45a4      	cmp	ip, r4
  7e:	f2c0 80ab 	blt.w	1d8 <non-virtual thunk to cRes8b_Bpp1_1G_SpriteEngine_Bpp16_5R6G5B::i8BitCpyRle(short, short)+0x1d8>
  82:	fa0f fe8e 	sxth.w	lr, lr
  86:	f8cd e010 	str.w	lr, [sp, #16]
  8a:	f9bd 4004 	ldrsh.w	r4, [sp, #4]
  8e:	9401      	str	r4, [sp, #4]
  90:	9c04      	ldr	r4, [sp, #16]
  92:	8204      	strh	r4, [r0, #16]
  94:	9c01      	ldr	r4, [sp, #4]
  96:	8244      	strh	r4, [r0, #18]
  98:	9c03      	ldr	r4, [sp, #12]
  9a:	f8cd e008 	str.w	lr, [sp, #8]
  9e:	45a2      	cmp	sl, r4
  a0:	f04f 0e00 	mov.w	lr, #0
  a4:	f8c0 e00c 	str.w	lr, [r0, #12]
  a8:	f280 80d6 	bge.w	258 <non-virtual thunk to cRes8b_Bpp1_1G_SpriteEngine_Bpp16_5R6G5B::i8BitCpyRle(short, short)+0x258>
  ac:	1a61      	subs	r1, r4, r1
  ae:	b289      	uxth	r1, r1
  b0:	fa0f fe81 	sxth.w	lr, r1
  b4:	9103      	str	r1, [sp, #12]
  b6:	8384      	strh	r4, [r0, #28]
  b8:	46a2      	mov	sl, r4
  ba:	f8a0 e00c 	strh.w	lr, [r0, #12]
  be:	9905      	ldr	r1, [sp, #20]
  c0:	428b      	cmp	r3, r1
  c2:	460c      	mov	r4, r1
  c4:	f280 80c6 	bge.w	254 <non-virtual thunk to cRes8b_Bpp1_1G_SpriteEngine_Bpp16_5R6G5B::i8BitCpyRle(short, short)+0x254>
  c8:	1a8a      	subs	r2, r1, r2
  ca:	b292      	uxth	r2, r2
  cc:	460b      	mov	r3, r1
  ce:	b211      	sxth	r1, r2
  d0:	83c4      	strh	r4, [r0, #30]
  d2:	81c1      	strh	r1, [r0, #14]
  d4:	fb01 ee08 	mla	lr, r1, r8, lr
  d8:	454f      	cmp	r7, r9
  da:	dd07      	ble.n	ec <non-virtual thunk to cRes8b_Bpp1_1G_SpriteEngine_Bpp16_5R6G5B::i8BitCpyRle(short, short)+0xec>
  dc:	9903      	ldr	r1, [sp, #12]
  de:	eb01 0709 	add.w	r7, r1, r9
  e2:	eba7 070a 	sub.w	r7, r7, sl
  e6:	b239      	sxth	r1, r7
  e8:	9102      	str	r1, [sp, #8]
  ea:	8201      	strh	r1, [r0, #16]
  ec:	45dc      	cmp	ip, fp
  ee:	dd05      	ble.n	fc <non-virtual thunk to cRes8b_Bpp1_1G_SpriteEngine_Bpp16_5R6G5B::i8BitCpyRle(short, short)+0xfc>
  f0:	eb02 040b 	add.w	r4, r2, fp
  f4:	1ae4      	subs	r4, r4, r3
  f6:	b221      	sxth	r1, r4
  f8:	9101      	str	r1, [sp, #4]
  fa:	8241      	strh	r1, [r0, #18]
  fc:	6947      	ldr	r7, [r0, #20]
  fe:	f897 c000 	ldrb.w	ip, [r7]
 102:	f02c 0c7f 	bic.w	ip, ip, #127	; 0x7f
 106:	f880 c039 	strb.w	ip, [r0, #57]	; 0x39
 10a:	f897 c000 	ldrb.w	ip, [r7]
 10e:	4671      	mov	r1, lr
 110:	f00c 0c7f 	and.w	ip, ip, #127	; 0x7f
 114:	f880 c038 	strb.w	ip, [r0, #56]	; 0x38
 118:	b1d1      	cbz	r1, 150 <non-virtual thunk to cRes8b_Bpp1_1G_SpriteEngine_Bpp16_5R6G5B::i8BitCpyRle(short, short)+0x150>
 11a:	45e6      	cmp	lr, ip
 11c:	f0c0 8095 	bcc.w	24a <non-virtual thunk to cRes8b_Bpp1_1G_SpriteEngine_Bpp16_5R6G5B::i8BitCpyRle(short, short)+0x24a>
 120:	9c01      	ldr	r4, [sp, #4]
 122:	e002      	b.n	12a <non-virtual thunk to cRes8b_Bpp1_1G_SpriteEngine_Bpp16_5R6G5B::i8BitCpyRle(short, short)+0x12a>
 124:	458c      	cmp	ip, r1
 126:	f200 808f 	bhi.w	248 <non-virtual thunk to cRes8b_Bpp1_1G_SpriteEngine_Bpp16_5R6G5B::i8BitCpyRle(short, short)+0x248>
 12a:	3701      	adds	r7, #1
 12c:	6147      	str	r7, [r0, #20]
 12e:	f897 e000 	ldrb.w	lr, [r7]
 132:	f02e 0e7f 	bic.w	lr, lr, #127	; 0x7f
 136:	f880 e039 	strb.w	lr, [r0, #57]	; 0x39
 13a:	f897 e000 	ldrb.w	lr, [r7]
 13e:	eba1 010c 	sub.w	r1, r1, ip
 142:	f00e 0c7f 	and.w	ip, lr, #127	; 0x7f
 146:	f880 c038 	strb.w	ip, [r0, #56]	; 0x38
 14a:	2900      	cmp	r1, #0
 14c:	d1ea      	bne.n	124 <non-virtual thunk to cRes8b_Bpp1_1G_SpriteEngine_Bpp16_5R6G5B::i8BitCpyRle(short, short)+0x124>
 14e:	9401      	str	r4, [sp, #4]
 150:	9903      	ldr	r1, [sp, #12]
 152:	696f      	ldr	r7, [r5, #20]
 154:	f1c1 0e01 	rsb	lr, r1, #1
 158:	9901      	ldr	r1, [sp, #4]
 15a:	f8b7 c004 	ldrh.w	ip, [r7, #4]
 15e:	683d      	ldr	r5, [r7, #0]
 160:	f1c2 0201 	rsb	r2, r2, #1
 164:	4411      	add	r1, r2
 166:	9a02      	ldr	r2, [sp, #8]
 168:	b20c      	sxth	r4, r1
 16a:	4496      	add	lr, r2
 16c:	fb13 a30c 	smlabb	r3, r3, ip, sl
 170:	fa0f fe8e 	sxth.w	lr, lr
 174:	eb05 0543 	add.w	r5, r5, r3, lsl #1
 178:	2c00      	cmp	r4, #0
 17a:	6245      	str	r5, [r0, #36]	; 0x24
 17c:	8504      	strh	r4, [r0, #40]	; 0x28
 17e:	f8a0 e02a 	strh.w	lr, [r0, #42]	; 0x2a
 182:	dd29      	ble.n	1d8 <non-virtual thunk to cRes8b_Bpp1_1G_SpriteEngine_Bpp16_5R6G5B::i8BitCpyRle(short, short)+0x1d8>
 184:	f1be 0f00 	cmp.w	lr, #0
 188:	dd2a      	ble.n	1e0 <non-virtual thunk to cRes8b_Bpp1_1G_SpriteEngine_Bpp16_5R6G5B::i8BitCpyRle(short, short)+0x1e0>
 18a:	f10e 31ff 	add.w	r1, lr, #4294967295
 18e:	b289      	uxth	r1, r1
 190:	3101      	adds	r1, #1
 192:	eb05 0141 	add.w	r1, r5, r1, lsl #1
 196:	462a      	mov	r2, r5
 198:	e018      	b.n	1cc <non-virtual thunk to cRes8b_Bpp1_1G_SpriteEngine_Bpp16_5R6G5B::i8BitCpyRle(short, short)+0x1cc>
 19a:	6ac3      	ldr	r3, [r0, #44]	; 0x2c
 19c:	8013      	strh	r3, [r2, #0]
 19e:	f890 3038 	ldrb.w	r3, [r0, #56]	; 0x38
 1a2:	3b01      	subs	r3, #1
 1a4:	b2db      	uxtb	r3, r3
 1a6:	3202      	adds	r2, #2
 1a8:	f880 3038 	strb.w	r3, [r0, #56]	; 0x38
 1ac:	b963      	cbnz	r3, 1c8 <non-virtual thunk to cRes8b_Bpp1_1G_SpriteEngine_Bpp16_5R6G5B::i8BitCpyRle(short, short)+0x1c8>
 1ae:	6943      	ldr	r3, [r0, #20]
 1b0:	1c5c      	adds	r4, r3, #1
 1b2:	6144      	str	r4, [r0, #20]
 1b4:	785c      	ldrb	r4, [r3, #1]
 1b6:	f024 047f 	bic.w	r4, r4, #127	; 0x7f
 1ba:	f880 4039 	strb.w	r4, [r0, #57]	; 0x39
 1be:	785b      	ldrb	r3, [r3, #1]
 1c0:	f003 037f 	and.w	r3, r3, #127	; 0x7f
 1c4:	f880 3038 	strb.w	r3, [r0, #56]	; 0x38
 1c8:	428a      	cmp	r2, r1
 1ca:	d009      	beq.n	1e0 <non-virtual thunk to cRes8b_Bpp1_1G_SpriteEngine_Bpp16_5R6G5B::i8BitCpyRle(short, short)+0x1e0>
 1cc:	f890 3039 	ldrb.w	r3, [r0, #57]	; 0x39
 1d0:	2b00      	cmp	r3, #0
 1d2:	d1e2      	bne.n	19a <non-virtual thunk to cRes8b_Bpp1_1G_SpriteEngine_Bpp16_5R6G5B::i8BitCpyRle(short, short)+0x19a>
 1d4:	8013      	strh	r3, [r2, #0]
 1d6:	e7e2      	b.n	19e <non-virtual thunk to cRes8b_Bpp1_1G_SpriteEngine_Bpp16_5R6G5B::i8BitCpyRle(short, short)+0x19e>
 1d8:	2000      	movs	r0, #0
 1da:	b007      	add	sp, #28
 1dc:	e8bd 8ff0 	ldmia.w	sp!, {r4, r5, r6, r7, r8, r9, sl, fp, pc}
 1e0:	f9b0 2010 	ldrsh.w	r2, [r0, #16]
 1e4:	f9b6 3004 	ldrsh.w	r3, [r6, #4]
 1e8:	f9b0 100c 	ldrsh.w	r1, [r0, #12]
 1ec:	3201      	adds	r2, #1
 1ee:	1a9b      	subs	r3, r3, r2
 1f0:	185a      	adds	r2, r3, r1
 1f2:	d017      	beq.n	224 <non-virtual thunk to cRes8b_Bpp1_1G_SpriteEngine_Bpp16_5R6G5B::i8BitCpyRle(short, short)+0x224>
 1f4:	f890 4038 	ldrb.w	r4, [r0, #56]	; 0x38
 1f8:	4294      	cmp	r4, r2
 1fa:	4623      	mov	r3, r4
 1fc:	d820      	bhi.n	240 <non-virtual thunk to cRes8b_Bpp1_1G_SpriteEngine_Bpp16_5R6G5B::i8BitCpyRle(short, short)+0x240>
 1fe:	6941      	ldr	r1, [r0, #20]
 200:	e001      	b.n	206 <non-virtual thunk to cRes8b_Bpp1_1G_SpriteEngine_Bpp16_5R6G5B::i8BitCpyRle(short, short)+0x206>
 202:	4294      	cmp	r4, r2
 204:	d81c      	bhi.n	240 <non-virtual thunk to cRes8b_Bpp1_1G_SpriteEngine_Bpp16_5R6G5B::i8BitCpyRle(short, short)+0x240>
 206:	3101      	adds	r1, #1
 208:	6141      	str	r1, [r0, #20]
 20a:	780b      	ldrb	r3, [r1, #0]
 20c:	f023 037f 	bic.w	r3, r3, #127	; 0x7f
 210:	f880 3039 	strb.w	r3, [r0, #57]	; 0x39
 214:	780b      	ldrb	r3, [r1, #0]
 216:	1b12      	subs	r2, r2, r4
 218:	f003 037f 	and.w	r3, r3, #127	; 0x7f
 21c:	f880 3038 	strb.w	r3, [r0, #56]	; 0x38
 220:	461c      	mov	r4, r3
 222:	d1ee      	bne.n	202 <non-virtual thunk to cRes8b_Bpp1_1G_SpriteEngine_Bpp16_5R6G5B::i8BitCpyRle(short, short)+0x202>
 224:	8d03      	ldrh	r3, [r0, #40]	; 0x28
 226:	f9b7 2004 	ldrsh.w	r2, [r7, #4]
 22a:	3b01      	subs	r3, #1
 22c:	b21b      	sxth	r3, r3
 22e:	eb05 0542 	add.w	r5, r5, r2, lsl #1
 232:	2b00      	cmp	r3, #0
 234:	8503      	strh	r3, [r0, #40]	; 0x28
 236:	6245      	str	r5, [r0, #36]	; 0x24
 238:	ddce      	ble.n	1d8 <non-virtual thunk to cRes8b_Bpp1_1G_SpriteEngine_Bpp16_5R6G5B::i8BitCpyRle(short, short)+0x1d8>
 23a:	f9b0 e02a 	ldrsh.w	lr, [r0, #42]	; 0x2a
 23e:	e7a1      	b.n	184 <non-virtual thunk to cRes8b_Bpp1_1G_SpriteEngine_Bpp16_5R6G5B::i8BitCpyRle(short, short)+0x184>
 240:	1a9b      	subs	r3, r3, r2
 242:	f880 3038 	strb.w	r3, [r0, #56]	; 0x38
 246:	e7ed      	b.n	224 <non-virtual thunk to cRes8b_Bpp1_1G_SpriteEngine_Bpp16_5R6G5B::i8BitCpyRle(short, short)+0x224>
 248:	9401      	str	r4, [sp, #4]
 24a:	ebac 0c01 	sub.w	ip, ip, r1
 24e:	f880 c038 	strb.w	ip, [r0, #56]	; 0x38
 252:	e77d      	b.n	150 <non-virtual thunk to cRes8b_Bpp1_1G_SpriteEngine_Bpp16_5R6G5B::i8BitCpyRle(short, short)+0x150>
 254:	2200      	movs	r2, #0
 256:	e73f      	b.n	d8 <non-virtual thunk to cRes8b_Bpp1_1G_SpriteEngine_Bpp16_5R6G5B::i8BitCpyRle(short, short)+0xd8>
 258:	f8cd e00c 	str.w	lr, [sp, #12]
 25c:	e72f      	b.n	be <non-virtual thunk to cRes8b_Bpp1_1G_SpriteEngine_Bpp16_5R6G5B::i8BitCpyRle(short, short)+0xbe>
 25e:	bf00      	nop

00000260 <cRes8b_Bpp1_1G_SpriteEngine_Bpp16_5R6G5B::i8BitCpyRle(short, short)>:
  FRet i8BitCpyRle(GfxInt lixDestX, GfxInt lixDestY)
 260:	e92d 4ff0 	stmdb	sp!, {r4, r5, r6, r7, r8, r9, sl, fp, lr}
    mpcScreenDest->vRel2Abs(lixDestX, lixDestY);
 264:	69c5      	ldr	r5, [r0, #28]
      miGfxDestX2 = miGfxDestX1 + mpcSprite->miGfxWidth - 1;
 266:	68c6      	ldr	r6, [r0, #12]
  SCREEN_INLINE void vRel2AbsX(GfxInt &liGfxX) { liGfxX += miGfxRefPosx1; }
 268:	88af      	ldrh	r7, [r5, #4]
  SCREEN_INLINE void vRel2AbsY(GfxInt &liGfxY) { liGfxY += miGfxRefPosy1; }
 26a:	88eb      	ldrh	r3, [r5, #6]
 26c:	f9b6 8004 	ldrsh.w	r8, [r6, #4]
 270:	88f4      	ldrh	r4, [r6, #6]
                                                                       (liGfxX2 >= miGfxClipPosx1) && (liGfxY2 >= miGfxClipPosy1));}
 272:	f895 9010 	ldrb.w	r9, [r5, #16]
  SCREEN_INLINE void vRel2AbsX(GfxInt &liGfxX) { liGfxX += miGfxRefPosx1; }
 276:	4439      	add	r1, r7
  SCREEN_INLINE void vRel2AbsY(GfxInt &liGfxY) { liGfxY += miGfxRefPosy1; }
 278:	441a      	add	r2, r3
 27a:	f108 3eff 	add.w	lr, r8, #4294967295
 27e:	3c01      	subs	r4, #1
 280:	b2a3      	uxth	r3, r4
  SCREEN_INLINE void vRel2AbsX(GfxInt &liGfxX) { liGfxX += miGfxRefPosx1; }
 282:	b289      	uxth	r1, r1
  SCREEN_INLINE void vRel2AbsY(GfxInt &liGfxY) { liGfxY += miGfxRefPosy1; }
 284:	b292      	uxth	r2, r2
  FRet i8BitCpyRle(GfxInt lixDestX, GfxInt lixDestY)
 286:	b087      	sub	sp, #28
 288:	fa1f fe8e 	uxth.w	lr, lr
      miGfxDestY2 = miGfxDestY1 + mpcSprite->miGfxHeight - 1;
 28c:	eb03 0c02 	add.w	ip, r3, r2
      miGfxDestX2 = miGfxDestX1 + mpcSprite->miGfxWidth - 1;
 290:	eb01 070e 	add.w	r7, r1, lr
      miGfxDestY2 = miGfxDestY1 + mpcSprite->miGfxHeight - 1;
 294:	9301      	str	r3, [sp, #4]
      miGfxDestX2 = miGfxDestX1 + mpcSprite->miGfxWidth - 1;
 296:	b23f      	sxth	r7, r7
      miGfxDestY2 = miGfxDestY1 + mpcSprite->miGfxHeight - 1;
 298:	fa0f fc8c 	sxth.w	ip, ip
  SCREEN_INLINE void vRel2AbsX(GfxInt &liGfxX) { liGfxX += miGfxRefPosx1; }
 29c:	fa0f fa81 	sxth.w	sl, r1
  SCREEN_INLINE void vRel2AbsY(GfxInt &liGfxY) { liGfxY += miGfxRefPosy1; }
 2a0:	b213      	sxth	r3, r2
      miGfxDestX2 = miGfxDestX1 + mpcSprite->miGfxWidth - 1;
 2a2:	8487      	strh	r7, [r0, #36]	; 0x24
      miGfxDestY2 = miGfxDestY1 + mpcSprite->miGfxHeight - 1;
 2a4:	f8a0 c026 	strh.w	ip, [r0, #38]	; 0x26
      miGfxDestX1 = liGfxDestX1;
 2a8:	f8a0 a020 	strh.w	sl, [r0, #32]
      miGfxDestY1 = liGfxDestY1;
 2ac:	8443      	strh	r3, [r0, #34]	; 0x22
                                                                       (liGfxX2 >= miGfxClipPosx1) && (liGfxY2 >= miGfxClipPosy1));}
 2ae:	f1b9 0f00 	cmp.w	r9, #0
 2b2:	f000 80c1 	beq.w	438 <cRes8b_Bpp1_1G_SpriteEngine_Bpp16_5R6G5B::i8BitCpyRle(short, short)+0x1d8>
                                                                       (liGfxX1 <= miGfxClipPosx2) && (liGfxY1 <= miGfxClipPosy2) &&
 2b6:	f9b5 900c 	ldrsh.w	r9, [r5, #12]
                             GfxInt liGfxX2, GfxInt liGfxY2) { return ((mbVisible) &&
 2ba:	45ca      	cmp	sl, r9
 2bc:	f300 80bc 	bgt.w	438 <cRes8b_Bpp1_1G_SpriteEngine_Bpp16_5R6G5B::i8BitCpyRle(short, short)+0x1d8>
                                                                       (liGfxX1 <= miGfxClipPosx2) && (liGfxY1 <= miGfxClipPosy2) &&
 2c0:	f9b5 b00e 	ldrsh.w	fp, [r5, #14]
 2c4:	455b      	cmp	r3, fp
 2c6:	f300 80b7 	bgt.w	438 <cRes8b_Bpp1_1G_SpriteEngine_Bpp16_5R6G5B::i8BitCpyRle(short, short)+0x1d8>
                                                                       (liGfxX2 >= miGfxClipPosx1) && (liGfxY2 >= miGfxClipPosy1));}
 2ca:	f9b5 4008 	ldrsh.w	r4, [r5, #8]
                                                                       (liGfxX1 <= miGfxClipPosx2) && (liGfxY1 <= miGfxClipPosy2) &&
 2ce:	9403      	str	r4, [sp, #12]
 2d0:	42a7      	cmp	r7, r4
 2d2:	f2c0 80b1 	blt.w	438 <cRes8b_Bpp1_1G_SpriteEngine_Bpp16_5R6G5B::i8BitCpyRle(short, short)+0x1d8>
                                                                       (liGfxX2 >= miGfxClipPosx1) && (liGfxY2 >= miGfxClipPosy1));}
 2d6:	f9b5 400a 	ldrsh.w	r4, [r5, #10]
 2da:	9405      	str	r4, [sp, #20]
 2dc:	45a4      	cmp	ip, r4
 2de:	f2c0 80ab 	blt.w	438 <cRes8b_Bpp1_1G_SpriteEngine_Bpp16_5R6G5B::i8BitCpyRle(short, short)+0x1d8>
        miGfxSpriteX2 = mpcSprite->miGfxWidth - 1;
 2e2:	fa0f fe8e 	sxth.w	lr, lr
 2e6:	f8cd e010 	str.w	lr, [sp, #16]
        miGfxSpriteY2 = mpcSprite->miGfxHeight - 1;
 2ea:	f9bd 4004 	ldrsh.w	r4, [sp, #4]
 2ee:	9401      	str	r4, [sp, #4]
        miGfxSpriteX2 = mpcSprite->miGfxWidth - 1;
 2f0:	9c04      	ldr	r4, [sp, #16]
 2f2:	8284      	strh	r4, [r0, #20]
        miGfxSpriteY2 = mpcSprite->miGfxHeight - 1;
 2f4:	9c01      	ldr	r4, [sp, #4]
 2f6:	82c4      	strh	r4, [r0, #22]
        if (miGfxDestX1 < mpcScreenDest->miGfxClipPosx1) { miGfxSpriteX1 = mpcScreenDest->miGfxClipPosx1 - miGfxDestX1; miGfxDestX1 = mpcScreenDest->miGfxClipPosx1; }
 2f8:	9c03      	ldr	r4, [sp, #12]
        miGfxSpriteX2 = mpcSprite->miGfxWidth - 1;
 2fa:	f8cd e008 	str.w	lr, [sp, #8]
        if (miGfxDestX1 < mpcScreenDest->miGfxClipPosx1) { miGfxSpriteX1 = mpcScreenDest->miGfxClipPosx1 - miGfxDestX1; miGfxDestX1 = mpcScreenDest->miGfxClipPosx1; }
 2fe:	45a2      	cmp	sl, r4
        miGfxSpriteX1 = 0;
 300:	f04f 0e00 	mov.w	lr, #0
 304:	f8c0 e010 	str.w	lr, [r0, #16]
        if (miGfxDestX1 < mpcScreenDest->miGfxClipPosx1) { miGfxSpriteX1 = mpcScreenDest->miGfxClipPosx1 - miGfxDestX1; miGfxDestX1 = mpcScreenDest->miGfxClipPosx1; }
 308:	f280 80d6 	bge.w	4b8 <cRes8b_Bpp1_1G_SpriteEngine_Bpp16_5R6G5B::i8BitCpyRle(short, short)+0x258>
 30c:	1a61      	subs	r1, r4, r1
 30e:	b289      	uxth	r1, r1
 310:	fa0f fe81 	sxth.w	lr, r1
 314:	9103      	str	r1, [sp, #12]
 316:	8404      	strh	r4, [r0, #32]
 318:	46a2      	mov	sl, r4
 31a:	f8a0 e010 	strh.w	lr, [r0, #16]
        if (miGfxDestY1 < mpcScreenDest->miGfxClipPosy1) { miGfxSpriteY1 = mpcScreenDest->miGfxClipPosy1 - miGfxDestY1; miGfxDestY1 = mpcScreenDest->miGfxClipPosy1; }
 31e:	9905      	ldr	r1, [sp, #20]
 320:	428b      	cmp	r3, r1
 322:	460c      	mov	r4, r1
 324:	f280 80c6 	bge.w	4b4 <cRes8b_Bpp1_1G_SpriteEngine_Bpp16_5R6G5B::i8BitCpyRle(short, short)+0x254>
 328:	1a8a      	subs	r2, r1, r2
 32a:	b292      	uxth	r2, r2
 32c:	460b      	mov	r3, r1
 32e:	b211      	sxth	r1, r2
 330:	8444      	strh	r4, [r0, #34]	; 0x22
 332:	8241      	strh	r1, [r0, #18]
 334:	fb01 ee08 	mla	lr, r1, r8, lr
        if (miGfxDestX2 > mpcScreenDest->miGfxClipPosx2) miGfxSpriteX2 = miGfxSpriteX1 + mpcScreenDest->miGfxClipPosx2 - miGfxDestX1;
 338:	454f      	cmp	r7, r9
 33a:	dd07      	ble.n	34c <cRes8b_Bpp1_1G_SpriteEngine_Bpp16_5R6G5B::i8BitCpyRle(short, short)+0xec>
 33c:	9903      	ldr	r1, [sp, #12]
 33e:	eb01 0709 	add.w	r7, r1, r9
 342:	eba7 070a 	sub.w	r7, r7, sl
 346:	b239      	sxth	r1, r7
 348:	9102      	str	r1, [sp, #8]
 34a:	8281      	strh	r1, [r0, #20]
        if (miGfxDestY2 > mpcScreenDest->miGfxClipPosy2) miGfxSpriteY2 = miGfxSpriteY1 + mpcScreenDest->miGfxClipPosy2 - miGfxDestY1;
 34c:	45dc      	cmp	ip, fp
 34e:	dd05      	ble.n	35c <cRes8b_Bpp1_1G_SpriteEngine_Bpp16_5R6G5B::i8BitCpyRle(short, short)+0xfc>
 350:	eb02 040b 	add.w	r4, r2, fp
 354:	1ae4      	subs	r4, r4, r3
 356:	b221      	sxth	r1, r4
 358:	9101      	str	r1, [sp, #4]
 35a:	82c1      	strh	r1, [r0, #22]
    mui8SpriteRleValue = ((*mpui8Sprite) & 128);
 35c:	6987      	ldr	r7, [r0, #24]
 35e:	f897 c000 	ldrb.w	ip, [r7]
 362:	f02c 0c7f 	bic.w	ip, ip, #127	; 0x7f
 366:	f880 c03d 	strb.w	ip, [r0, #61]	; 0x3d
    mui8SpriteRleCnt = ((*mpui8Sprite) & 127);
 36a:	f897 c000 	ldrb.w	ip, [r7]
    while (muixPxlCnt > 0)
 36e:	4671      	mov	r1, lr
    mui8SpriteRleCnt = ((*mpui8Sprite) & 127);
 370:	f00c 0c7f 	and.w	ip, ip, #127	; 0x7f
 374:	f880 c03c 	strb.w	ip, [r0, #60]	; 0x3c
    while (muixPxlCnt > 0)
 378:	b1d1      	cbz	r1, 3b0 <cRes8b_Bpp1_1G_SpriteEngine_Bpp16_5R6G5B::i8BitCpyRle(short, short)+0x150>
      if (mui8SpriteRleCnt > muixPxlCnt)
 37a:	45e6      	cmp	lr, ip
 37c:	f0c0 8095 	bcc.w	4aa <cRes8b_Bpp1_1G_SpriteEngine_Bpp16_5R6G5B::i8BitCpyRle(short, short)+0x24a>
 380:	9c01      	ldr	r4, [sp, #4]
 382:	e002      	b.n	38a <cRes8b_Bpp1_1G_SpriteEngine_Bpp16_5R6G5B::i8BitCpyRle(short, short)+0x12a>
 384:	458c      	cmp	ip, r1
 386:	f200 808f 	bhi.w	4a8 <cRes8b_Bpp1_1G_SpriteEngine_Bpp16_5R6G5B::i8BitCpyRle(short, short)+0x248>
        mpui8Sprite++;
 38a:	3701      	adds	r7, #1
 38c:	6187      	str	r7, [r0, #24]
        mui8SpriteRleValue = ((*mpui8Sprite) & 128);
 38e:	f897 e000 	ldrb.w	lr, [r7]
 392:	f02e 0e7f 	bic.w	lr, lr, #127	; 0x7f
 396:	f880 e03d 	strb.w	lr, [r0, #61]	; 0x3d
        mui8SpriteRleCnt = ((*mpui8Sprite) & 127);
 39a:	f897 e000 	ldrb.w	lr, [r7]
        muixPxlCnt -= mui8SpriteRleCnt;
 39e:	eba1 010c 	sub.w	r1, r1, ip
        mui8SpriteRleCnt = ((*mpui8Sprite) & 127);
 3a2:	f00e 0c7f 	and.w	ip, lr, #127	; 0x7f
 3a6:	f880 c03c 	strb.w	ip, [r0, #60]	; 0x3c
    while (muixPxlCnt > 0)
 3aa:	2900      	cmp	r1, #0
 3ac:	d1ea      	bne.n	384 <cRes8b_Bpp1_1G_SpriteEngine_Bpp16_5R6G5B::i8BitCpyRle(short, short)+0x124>
 3ae:	9401      	str	r4, [sp, #4]
    muixXCnt = (miGfxSpriteX2 - miGfxSpriteX1) + 1;
 3b0:	9903      	ldr	r1, [sp, #12]
    luixBytePosDest = (GfxImgSize)(miGfxDestY1 * mpcScreenDest->mpcBm->miGfxWidth + miGfxDestX1);
 3b2:	696f      	ldr	r7, [r5, #20]
    muixXCnt = (miGfxSpriteX2 - miGfxSpriteX1) + 1;
 3b4:	f1c1 0e01 	rsb	lr, r1, #1
    muixYCnt = (miGfxSpriteY2 - miGfxSpriteY1) + 1;
 3b8:	9901      	ldr	r1, [sp, #4]
    luixBytePosDest = (GfxImgSize)(miGfxDestY1 * mpcScreenDest->mpcBm->miGfxWidth + miGfxDestX1);
 3ba:	f8b7 c004 	ldrh.w	ip, [r7, #4]
    mpui8Dest = mpcScreenDest->mpcBm->mpui8Data + BM_BPP16_5R6G5B_PXLIDX2BYTEPOS(luixBytePosDest);
 3be:	683d      	ldr	r5, [r7, #0]
    muixYCnt = (miGfxSpriteY2 - miGfxSpriteY1) + 1;
 3c0:	f1c2 0201 	rsb	r2, r2, #1
 3c4:	4411      	add	r1, r2
    muixXCnt = (miGfxSpriteX2 - miGfxSpriteX1) + 1;
 3c6:	9a02      	ldr	r2, [sp, #8]
    muixYCnt = (miGfxSpriteY2 - miGfxSpriteY1) + 1;
 3c8:	b20c      	sxth	r4, r1
    muixXCnt = (miGfxSpriteX2 - miGfxSpriteX1) + 1;
 3ca:	4496      	add	lr, r2
    luixBytePosDest = (GfxImgSize)(miGfxDestY1 * mpcScreenDest->mpcBm->miGfxWidth + miGfxDestX1);
 3cc:	fb13 a30c 	smlabb	r3, r3, ip, sl
    muixXCnt = (miGfxSpriteX2 - miGfxSpriteX1) + 1;
 3d0:	fa0f fe8e 	sxth.w	lr, lr
    mpui8Dest = mpcScreenDest->mpcBm->mpui8Data + BM_BPP16_5R6G5B_PXLIDX2BYTEPOS(luixBytePosDest);
 3d4:	eb05 0543 	add.w	r5, r5, r3, lsl #1
      while (muixYCnt > 0)
 3d8:	2c00      	cmp	r4, #0
    mpui8Dest = mpcScreenDest->mpcBm->mpui8Data + BM_BPP16_5R6G5B_PXLIDX2BYTEPOS(luixBytePosDest);
 3da:	6285      	str	r5, [r0, #40]	; 0x28
    muixYCnt = (miGfxSpriteY2 - miGfxSpriteY1) + 1;
 3dc:	8584      	strh	r4, [r0, #44]	; 0x2c
    muixXCnt = (miGfxSpriteX2 - miGfxSpriteX1) + 1;
 3de:	f8a0 e02e 	strh.w	lr, [r0, #46]	; 0x2e
      while (muixYCnt > 0)
 3e2:	dd29      	ble.n	438 <cRes8b_Bpp1_1G_SpriteEngine_Bpp16_5R6G5B::i8BitCpyRle(short, short)+0x1d8>
        while (luixXCnt > 0)
 3e4:	f1be 0f00 	cmp.w	lr, #0
 3e8:	dd2a      	ble.n	440 <cRes8b_Bpp1_1G_SpriteEngine_Bpp16_5R6G5B::i8BitCpyRle(short, short)+0x1e0>
 3ea:	f10e 31ff 	add.w	r1, lr, #4294967295
 3ee:	b289      	uxth	r1, r1
 3f0:	3101      	adds	r1, #1
 3f2:	eb05 0141 	add.w	r1, r5, r1, lsl #1
        lpui16Dest = (uint16*)mpui8Dest;
 3f6:	462a      	mov	r2, r5
 3f8:	e018      	b.n	42c <cRes8b_Bpp1_1G_SpriteEngine_Bpp16_5R6G5B::i8BitCpyRle(short, short)+0x1cc>
            *lpui16Dest = mui32Col;
 3fa:	6b03      	ldr	r3, [r0, #48]	; 0x30
 3fc:	8013      	strh	r3, [r2, #0]
          mui8SpriteRleCnt--;
 3fe:	f890 303c 	ldrb.w	r3, [r0, #60]	; 0x3c
 402:	3b01      	subs	r3, #1
 404:	b2db      	uxtb	r3, r3
          lpui16Dest++;
 406:	3202      	adds	r2, #2
          mui8SpriteRleCnt--;
 408:	f880 303c 	strb.w	r3, [r0, #60]	; 0x3c
          if (mui8SpriteRleCnt == 0)
 40c:	b963      	cbnz	r3, 428 <cRes8b_Bpp1_1G_SpriteEngine_Bpp16_5R6G5B::i8BitCpyRle(short, short)+0x1c8>
            mpui8Sprite++;
 40e:	6983      	ldr	r3, [r0, #24]
 410:	1c5c      	adds	r4, r3, #1
 412:	6184      	str	r4, [r0, #24]
            mui8SpriteRleValue = ((*mpui8Sprite) & 128);
 414:	785c      	ldrb	r4, [r3, #1]
 416:	f024 047f 	bic.w	r4, r4, #127	; 0x7f
 41a:	f880 403d 	strb.w	r4, [r0, #61]	; 0x3d
            mui8SpriteRleCnt = ((*mpui8Sprite) & 127);
 41e:	785b      	ldrb	r3, [r3, #1]
 420:	f003 037f 	and.w	r3, r3, #127	; 0x7f
 424:	f880 303c 	strb.w	r3, [r0, #60]	; 0x3c
        while (luixXCnt > 0)
 428:	428a      	cmp	r2, r1
 42a:	d009      	beq.n	440 <cRes8b_Bpp1_1G_SpriteEngine_Bpp16_5R6G5B::i8BitCpyRle(short, short)+0x1e0>
          if (mui8SpriteRleValue)
 42c:	f890 303d 	ldrb.w	r3, [r0, #61]	; 0x3d
 430:	2b00      	cmp	r3, #0
 432:	d1e2      	bne.n	3fa <cRes8b_Bpp1_1G_SpriteEngine_Bpp16_5R6G5B::i8BitCpyRle(short, short)+0x19a>
            *lpui16Dest = 0;
 434:	8013      	strh	r3, [r2, #0]
 436:	e7e2      	b.n	3fe <cRes8b_Bpp1_1G_SpriteEngine_Bpp16_5R6G5B::i8BitCpyRle(short, short)+0x19e>
  }
 438:	2000      	movs	r0, #0
 43a:	b007      	add	sp, #28
 43c:	e8bd 8ff0 	ldmia.w	sp!, {r4, r5, r6, r7, r8, r9, sl, fp, pc}
        vGoPxlRle(miGfxSpriteX1 + (mpcSprite->miGfxWidth - (miGfxSpriteX2 + 1)));
 440:	f9b0 2014 	ldrsh.w	r2, [r0, #20]
 444:	f9b6 3004 	ldrsh.w	r3, [r6, #4]
 448:	f9b0 1010 	ldrsh.w	r1, [r0, #16]
 44c:	3201      	adds	r2, #1
 44e:	1a9b      	subs	r3, r3, r2
    while (muixPxlCnt > 0)
 450:	185a      	adds	r2, r3, r1
 452:	d017      	beq.n	484 <cRes8b_Bpp1_1G_SpriteEngine_Bpp16_5R6G5B::i8BitCpyRle(short, short)+0x224>
      if (mui8SpriteRleCnt > muixPxlCnt)
 454:	f890 403c 	ldrb.w	r4, [r0, #60]	; 0x3c
 458:	42a2      	cmp	r2, r4
 45a:	4623      	mov	r3, r4
 45c:	d320      	bcc.n	4a0 <cRes8b_Bpp1_1G_SpriteEngine_Bpp16_5R6G5B::i8BitCpyRle(short, short)+0x240>
 45e:	6981      	ldr	r1, [r0, #24]
 460:	e001      	b.n	466 <cRes8b_Bpp1_1G_SpriteEngine_Bpp16_5R6G5B::i8BitCpyRle(short, short)+0x206>
 462:	4294      	cmp	r4, r2
 464:	d81c      	bhi.n	4a0 <cRes8b_Bpp1_1G_SpriteEngine_Bpp16_5R6G5B::i8BitCpyRle(short, short)+0x240>
        mpui8Sprite++;
 466:	3101      	adds	r1, #1
 468:	6181      	str	r1, [r0, #24]
        mui8SpriteRleValue = ((*mpui8Sprite) & 128);
 46a:	780b      	ldrb	r3, [r1, #0]
 46c:	f023 037f 	bic.w	r3, r3, #127	; 0x7f
 470:	f880 303d 	strb.w	r3, [r0, #61]	; 0x3d
        mui8SpriteRleCnt = ((*mpui8Sprite) & 127);
 474:	780b      	ldrb	r3, [r1, #0]
    while (muixPxlCnt > 0)
 476:	1b12      	subs	r2, r2, r4
        mui8SpriteRleCnt = ((*mpui8Sprite) & 127);
 478:	f003 037f 	and.w	r3, r3, #127	; 0x7f
 47c:	f880 303c 	strb.w	r3, [r0, #60]	; 0x3c
      if (mui8SpriteRleCnt > muixPxlCnt)
 480:	461c      	mov	r4, r3
    while (muixPxlCnt > 0)
 482:	d1ee      	bne.n	462 <cRes8b_Bpp1_1G_SpriteEngine_Bpp16_5R6G5B::i8BitCpyRle(short, short)+0x202>
        muixYCnt--;
 484:	8d83      	ldrh	r3, [r0, #44]	; 0x2c
        mpui8Dest += BM_BPP16_5R6G5B_PXLIDX2BYTEPOS(mpcScreenDest->mpcBm->miGfxWidth);
 486:	f9b7 2004 	ldrsh.w	r2, [r7, #4]
        muixYCnt--;
 48a:	3b01      	subs	r3, #1
 48c:	b21b      	sxth	r3, r3
        mpui8Dest += BM_BPP16_5R6G5B_PXLIDX2BYTEPOS(mpcScreenDest->mpcBm->miGfxWidth);
 48e:	eb05 0542 	add.w	r5, r5, r2, lsl #1
      while (muixYCnt > 0)
 492:	2b00      	cmp	r3, #0
        muixYCnt--;
 494:	8583      	strh	r3, [r0, #44]	; 0x2c
        mpui8Dest += BM_BPP16_5R6G5B_PXLIDX2BYTEPOS(mpcScreenDest->mpcBm->miGfxWidth);
 496:	6285      	str	r5, [r0, #40]	; 0x28
      while (muixYCnt > 0)
 498:	ddce      	ble.n	438 <cRes8b_Bpp1_1G_SpriteEngine_Bpp16_5R6G5B::i8BitCpyRle(short, short)+0x1d8>
 49a:	f9b0 e02e 	ldrsh.w	lr, [r0, #46]	; 0x2e
 49e:	e7a1      	b.n	3e4 <cRes8b_Bpp1_1G_SpriteEngine_Bpp16_5R6G5B::i8BitCpyRle(short, short)+0x184>
        mui8SpriteRleCnt -= muixPxlCnt;
 4a0:	1a9b      	subs	r3, r3, r2
 4a2:	f880 303c 	strb.w	r3, [r0, #60]	; 0x3c
 4a6:	e7ed      	b.n	484 <cRes8b_Bpp1_1G_SpriteEngine_Bpp16_5R6G5B::i8BitCpyRle(short, short)+0x224>
 4a8:	9401      	str	r4, [sp, #4]
 4aa:	ebac 0c01 	sub.w	ip, ip, r1
 4ae:	f880 c03c 	strb.w	ip, [r0, #60]	; 0x3c
 4b2:	e77d      	b.n	3b0 <cRes8b_Bpp1_1G_SpriteEngine_Bpp16_5R6G5B::i8BitCpyRle(short, short)+0x150>
        if (miGfxDestY1 < mpcScreenDest->miGfxClipPosy1) { miGfxSpriteY1 = mpcScreenDest->miGfxClipPosy1 - miGfxDestY1; miGfxDestY1 = mpcScreenDest->miGfxClipPosy1; }
 4b4:	2200      	movs	r2, #0
 4b6:	e73f      	b.n	338 <cRes8b_Bpp1_1G_SpriteEngine_Bpp16_5R6G5B::i8BitCpyRle(short, short)+0xd8>
        if (miGfxDestX1 < mpcScreenDest->miGfxClipPosx1) { miGfxSpriteX1 = mpcScreenDest->miGfxClipPosx1 - miGfxDestX1; miGfxDestX1 = mpcScreenDest->miGfxClipPosx1; }
 4b8:	f8cd e00c 	str.w	lr, [sp, #12]
 4bc:	e72f      	b.n	31e <cRes8b_Bpp1_1G_SpriteEngine_Bpp16_5R6G5B::i8BitCpyRle(short, short)+0xbe>
 4be:	bf00      	nop

Disassembly of section .text._ZN20cRFont_Res8b_Bpp1_1G13i8PutStringXYEssP9cStrBaseTItEP7cScreenb:

00000000 <cRFont_Res8b_Bpp1_1G::i8PutStringXY(short, short, cStrBaseT<unsigned short>*, cScreen*, bool)>:
    tstGfxPos2D i8PutStringXY(GfxInt lixDestX, GfxInt lixDestY, cStr* lcStr, cScreen* lpcScr, bool lbSizeOnly = False)
   0:	e92d 4ff0 	stmdb	sp!, {r4, r5, r6, r7, r8, r9, sl, fp, lr}
      return i8PutString(lpcScr, lbSizeOnly);
   4:	6805      	ldr	r5, [r0, #0]
      mstStartPos.x = lixDestX;
   6:	8481      	strh	r1, [r0, #36]	; 0x24
      mstStartPos.y = lixDestY;
   8:	84c2      	strh	r2, [r0, #38]	; 0x26
    tstGfxPos2D i8PutStringXY(GfxInt lixDestX, GfxInt lixDestY, cStr* lcStr, cScreen* lpcScr, bool lbSizeOnly = False)
   a:	4693      	mov	fp, r2
      cbArrayExtT<tyCStrT>::muiLen = lszStr->muiLen;
   c:	88da      	ldrh	r2, [r3, #6]
      return i8PutString(lpcScr, lbSizeOnly);
   e:	682e      	ldr	r6, [r5, #0]
  10:	8442      	strh	r2, [r0, #34]	; 0x22
    tstGfxPos2D i8PutStringXY(GfxInt lixDestX, GfxInt lixDestY, cStr* lcStr, cScreen* lpcScr, bool lbSizeOnly = False)
  12:	b089      	sub	sp, #36	; 0x24
  14:	f8df c174 	ldr.w	ip, [pc, #372]	; 18c <cRFont_Res8b_Bpp1_1G::i8PutStringXY(short, short, cStrBaseT<unsigned short>*, cScreen*, bool)+0x18c>
      cbArrayT<tyCStrT>::muiSize   = lszStr->muiSize;
  18:	881d      	ldrh	r5, [r3, #0]
      cbArrayT<tyCStrT>::mpu8Data  = lszStr->mpu8Data;
  1a:	f8d3 3002 	ldr.w	r3, [r3, #2]
      cbArrayT<tyCStrT>::muiSize   = lszStr->muiSize;
  1e:	8385      	strh	r5, [r0, #28]
  20:	4566      	cmp	r6, ip
      cbArrayExtT<tyCStrT>::muiLen = lszStr->muiLen;
  22:	b295      	uxth	r5, r2
  24:	f89d 204c 	ldrb.w	r2, [sp, #76]	; 0x4c
      cbArrayT<tyCStrT>::mpu8Data  = lszStr->mpu8Data;
  28:	f8c0 301e 	str.w	r3, [r0, #30]
  2c:	4604      	mov	r4, r0
  2e:	9f12      	ldr	r7, [sp, #72]	; 0x48
  30:	9202      	str	r2, [sp, #8]
  32:	f040 809e 	bne.w	172 <cRFont_Res8b_Bpp1_1G::i8PutStringXY(short, short, cStrBaseT<unsigned short>*, cScreen*, bool)+0x172>
      mpcSpriteEng->vSetParam(Sprite_nModeOr, &mcSprite, lpcScr);
  36:	6b42      	ldr	r2, [r0, #52]	; 0x34
      lstSize.y = miGfxHeight;
  38:	f9b4 600a 	ldrsh.w	r6, [r4, #10]
      mpcSpriteEng->vSetCol(mui32Col);
  3c:	6980      	ldr	r0, [r0, #24]
      lstSize.y = miGfxHeight;
  3e:	9601      	str	r6, [sp, #4]
      mpcScreenDest = lpcScreenDest;
  40:	6197      	str	r7, [r2, #24]
      menMode       = lenMode;
  42:	2602      	movs	r6, #2
      mpcSpriteEng->vSetParam(Sprite_nModeOr, &mcSprite, lpcScr);
  44:	f104 0728 	add.w	r7, r4, #40	; 0x28
      mui32Col = lu32Col;
  48:	62d0      	str	r0, [r2, #44]	; 0x2c
      mpcSprite     = lpcSprite;
  4a:	6097      	str	r7, [r2, #8]
      menMode       = lenMode;
  4c:	7116      	strb	r6, [r2, #4]
      for (lui32SignIdx = 0; lui32SignIdx < mcText.Len(); lui32SignIdx++)
  4e:	4628      	mov	r0, r5
  50:	2d00      	cmp	r5, #0
  52:	f000 8099 	beq.w	188 <cRFont_Res8b_Bpp1_1G::i8PutStringXY(short, short, cStrBaseT<unsigned short>*, cScreen*, bool)+0x188>
      lstSize.x = 0;
  56:	f04f 0a00 	mov.w	sl, #0
      mui8Type    = lui8Type;
  5a:	9604      	str	r6, [sp, #16]
      for (lui32SignIdx = 0; lui32SignIdx < mcText.Len(); lui32SignIdx++)
  5c:	4656      	mov	r6, sl
        if ((lui8Letter >= mui8IdxMin) &&
  5e:	7962      	ldrb	r2, [r4, #5]
        lui8Letter = mcText.mpu8Data[lui32SignIdx];
  60:	5d9b      	ldrb	r3, [r3, r6]
        if ((lui8Letter >= mui8IdxMin) &&
  62:	4293      	cmp	r3, r2
      liGfxSizeLineX = 0;
  64:	4657      	mov	r7, sl
  66:	f106 0601 	add.w	r6, r6, #1
        if ((lui8Letter >= mui8IdxMin) &&
  6a:	d32e      	bcc.n	ca <cRFont_Res8b_Bpp1_1G::i8PutStringXY(short, short, cStrBaseT<unsigned short>*, cScreen*, bool)+0xca>
  6c:	79a5      	ldrb	r5, [r4, #6]
  6e:	429d      	cmp	r5, r3
  70:	d32b      	bcc.n	ca <cRFont_Res8b_Bpp1_1G::i8PutStringXY(short, short, cStrBaseT<unsigned short>*, cScreen*, bool)+0xca>
          lui16LetterIdx = maui16CharLut[lui8Letter - mui8IdxMin];
  72:	1a9b      	subs	r3, r3, r2
  74:	6962      	ldr	r2, [r4, #20]
  76:	f832 5013 	ldrh.w	r5, [r2, r3, lsl #1]
          if (lui16LetterIdx != 0xFFFF)
  7a:	f64f 73ff 	movw	r3, #65535	; 0xffff
  7e:	429d      	cmp	r5, r3
  80:	d018      	beq.n	b4 <cRFont_Res8b_Bpp1_1G::i8PutStringXY(short, short, cStrBaseT<unsigned short>*, cScreen*, bool)+0xb4>
            lpstCharData = (tstCharRes8B*)(maui8CharData + lui16LetterIdx);
  82:	f8d4 9010 	ldr.w	r9, [r4, #16]
            if (!lbSizeOnly)
  86:	9a02      	ldr	r2, [sp, #8]
            lpstCharData = (tstCharRes8B*)(maui8CharData + lui16LetterIdx);
  88:	eb09 0805 	add.w	r8, r9, r5
  8c:	b28b      	uxth	r3, r1
  8e:	9303      	str	r3, [sp, #12]
  90:	f898 3002 	ldrb.w	r3, [r8, #2]
            if (!lbSizeOnly)
  94:	2a00      	cmp	r2, #0
  96:	d042      	beq.n	11e <cRFont_Res8b_Bpp1_1G::i8PutStringXY(short, short, cStrBaseT<unsigned short>*, cScreen*, bool)+0x11e>
            lstPos.x += (int8)lpstCharData->u8XOffset + lpstCharData->u8Width + miGfxSpacing;
  98:	f919 1005 	ldrsb.w	r1, [r9, r5]
  9c:	8922      	ldrh	r2, [r4, #8]
  9e:	4419      	add	r1, r3
  a0:	4411      	add	r1, r2
  a2:	b289      	uxth	r1, r1
            liGfxSizeLineX += (int8)lpstCharData->u8XOffset + lpstCharData->u8Width + miGfxSpacing;
  a4:	440f      	add	r7, r1
            lstPos.x += (int8)lpstCharData->u8XOffset + lpstCharData->u8Width + miGfxSpacing;
  a6:	9b03      	ldr	r3, [sp, #12]
            liGfxSizeLineX += (int8)lpstCharData->u8XOffset + lpstCharData->u8Width + miGfxSpacing;
  a8:	b23f      	sxth	r7, r7
            lstPos.x += (int8)lpstCharData->u8XOffset + lpstCharData->u8Width + miGfxSpacing;
  aa:	4419      	add	r1, r3
  ac:	45ba      	cmp	sl, r7
  ae:	bfb8      	it	lt
  b0:	46ba      	movlt	sl, r7
  b2:	b209      	sxth	r1, r1
      return cbArrayExtT<tyCStrT>::muiLen;
  b4:	8c60      	ldrh	r0, [r4, #34]	; 0x22
      for (lui32SignIdx = 0; lui32SignIdx < mcText.Len(); lui32SignIdx++)
  b6:	42b0      	cmp	r0, r6
  b8:	d913      	bls.n	e2 <cRFont_Res8b_Bpp1_1G::i8PutStringXY(short, short, cStrBaseT<unsigned short>*, cScreen*, bool)+0xe2>
  ba:	f8d4 301e 	ldr.w	r3, [r4, #30]
        if ((lui8Letter >= mui8IdxMin) &&
  be:	7962      	ldrb	r2, [r4, #5]
        lui8Letter = mcText.mpu8Data[lui32SignIdx];
  c0:	5d9b      	ldrb	r3, [r3, r6]
        if ((lui8Letter >= mui8IdxMin) &&
  c2:	4293      	cmp	r3, r2
  c4:	f106 0601 	add.w	r6, r6, #1
  c8:	d2d0      	bcs.n	6c <cRFont_Res8b_Bpp1_1G::i8PutStringXY(short, short, cStrBaseT<unsigned short>*, cScreen*, bool)+0x6c>
          switch (lui8Letter)
  ca:	2b0a      	cmp	r3, #10
  cc:	d019      	beq.n	102 <cRFont_Res8b_Bpp1_1G::i8PutStringXY(short, short, cStrBaseT<unsigned short>*, cScreen*, bool)+0x102>
  ce:	2b0d      	cmp	r3, #13
  d0:	d0f0      	beq.n	b4 <cRFont_Res8b_Bpp1_1G::i8PutStringXY(short, short, cStrBaseT<unsigned short>*, cScreen*, bool)+0xb4>
            lstPos.x += miGfxSpacing;
  d2:	8923      	ldrh	r3, [r4, #8]
  d4:	8c60      	ldrh	r0, [r4, #34]	; 0x22
  d6:	4419      	add	r1, r3
            liGfxSizeLineX += miGfxSpacing;
  d8:	441f      	add	r7, r3
      for (lui32SignIdx = 0; lui32SignIdx < mcText.Len(); lui32SignIdx++)
  da:	42b0      	cmp	r0, r6
            lstPos.x += miGfxSpacing;
  dc:	b209      	sxth	r1, r1
            liGfxSizeLineX += miGfxSpacing;
  de:	b23f      	sxth	r7, r7
      for (lui32SignIdx = 0; lui32SignIdx < mcText.Len(); lui32SignIdx++)
  e0:	d8eb      	bhi.n	ba <cRFont_Res8b_Bpp1_1G::i8PutStringXY(short, short, cStrBaseT<unsigned short>*, cScreen*, bool)+0xba>
  e2:	9b01      	ldr	r3, [sp, #4]
  e4:	f8ad 301e 	strh.w	r3, [sp, #30]
      return i8PutString(lpcScr, lbSizeOnly);
  e8:	fa1f f28a 	uxth.w	r2, sl
  ec:	2000      	movs	r0, #0
  ee:	b29b      	uxth	r3, r3
  f0:	f362 000f 	bfi	r0, r2, #0, #16
  f4:	f363 401f 	bfi	r0, r3, #16, #16
  f8:	f8ad a01c 	strh.w	sl, [sp, #28]
    };
  fc:	b009      	add	sp, #36	; 0x24
  fe:	e8bd 8ff0 	ldmia.w	sp!, {r4, r5, r6, r7, r8, r9, sl, fp, pc}
            if ((lui32SignIdx + 1) < mcText.Len())
 102:	42b0      	cmp	r0, r6
 104:	d9d6      	bls.n	b4 <cRFont_Res8b_Bpp1_1G::i8PutStringXY(short, short, cStrBaseT<unsigned short>*, cScreen*, bool)+0xb4>
              lstPos.y  += miGfxHeight;
 106:	8963      	ldrh	r3, [r4, #10]
              lstSize.y += miGfxHeight;
 108:	9a01      	ldr	r2, [sp, #4]
              lstPos.x   = mstStartPos.x;
 10a:	f9b4 1024 	ldrsh.w	r1, [r4, #36]	; 0x24
              lstPos.y  += miGfxHeight;
 10e:	449b      	add	fp, r3
              lstSize.y += miGfxHeight;
 110:	4413      	add	r3, r2
 112:	b21b      	sxth	r3, r3
              lstPos.y  += miGfxHeight;
 114:	fa0f fb8b 	sxth.w	fp, fp
              lstSize.y += miGfxHeight;
 118:	9301      	str	r3, [sp, #4]
              liGfxSizeLineX = 0;
 11a:	2700      	movs	r7, #0
 11c:	e7ca      	b.n	b4 <cRFont_Res8b_Bpp1_1G::i8PutStringXY(short, short, cStrBaseT<unsigned short>*, cScreen*, bool)+0xb4>
                                       lstPos.y - (lpstCharData->u8Height - 1) - (int8)lpstCharData->u8YOffset);
 11e:	6be1      	ldr	r1, [r4, #60]	; 0x3c
              (mpcSpriteEng->*mi8Bitx)(lstPos.x + (int8)lpstCharData->u8XOffset,
 120:	6b60      	ldr	r0, [r4, #52]	; 0x34
              mcSprite.vSet(lpstCharData->u8Width, lpstCharData->u8Height, menFormat, Sprite_nBPP_BPP1_1G, lpui8CharData);            
 122:	f898 2003 	ldrb.w	r2, [r8, #3]
      miGfxWidth  = liGfxWidth;
 126:	85a3      	strh	r3, [r4, #44]	; 0x2c
                                       lstPos.y - (lpstCharData->u8Height - 1) - (int8)lpstCharData->u8YOffset);
 128:	1049      	asrs	r1, r1, #1
            lpui8CharData = (uint8*)lpstCharData + sizeof(tstCharRes8B);
 12a:	f108 0304 	add.w	r3, r8, #4
              (mpcSpriteEng->*mi8Bitx)(lstPos.x + (int8)lpstCharData->u8XOffset,
 12e:	9105      	str	r1, [sp, #20]
 130:	eb00 0e01 	add.w	lr, r0, r1
      mui8Type    = lui8Type;
 134:	9904      	ldr	r1, [sp, #16]
 136:	f884 1030 	strb.w	r1, [r4, #48]	; 0x30
      mpui8Data   = (uint8*)lpui8Data;
 13a:	62a3      	str	r3, [r4, #40]	; 0x28
                                       lstPos.y - (lpstCharData->u8Height - 1) - (int8)lpstCharData->u8YOffset);
 13c:	e9d4 310e 	ldrd	r3, r1, [r4, #56]	; 0x38
              mcSprite.vSet(lpstCharData->u8Width, lpstCharData->u8Height, menFormat, Sprite_nBPP_BPP1_1G, lpui8CharData);            
 140:	f894 c004 	ldrb.w	ip, [r4, #4]
 144:	85e2      	strh	r2, [r4, #46]	; 0x2e
                                       lstPos.y - (lpstCharData->u8Height - 1) - (int8)lpstCharData->u8YOffset);
 146:	07c9      	lsls	r1, r1, #31
      menFormat   = lenFormat;
 148:	f884 c031 	strb.w	ip, [r4, #49]	; 0x31
 14c:	d418      	bmi.n	180 <cRFont_Res8b_Bpp1_1G::i8PutStringXY(short, short, cStrBaseT<unsigned short>*, cScreen*, bool)+0x180>
 14e:	f998 0001 	ldrsb.w	r0, [r8, #1]
              (mpcSpriteEng->*mi8Bitx)(lstPos.x + (int8)lpstCharData->u8XOffset,
 152:	f919 1005 	ldrsb.w	r1, [r9, r5]
                                       lstPos.y - (lpstCharData->u8Height - 1) - (int8)lpstCharData->u8YOffset);
 156:	f10b 0c01 	add.w	ip, fp, #1
 15a:	ebac 0202 	sub.w	r2, ip, r2
 15e:	1a12      	subs	r2, r2, r0
              (mpcSpriteEng->*mi8Bitx)(lstPos.x + (int8)lpstCharData->u8XOffset,
 160:	9803      	ldr	r0, [sp, #12]
 162:	4401      	add	r1, r0
 164:	b212      	sxth	r2, r2
 166:	4670      	mov	r0, lr
 168:	b209      	sxth	r1, r1
 16a:	4798      	blx	r3
 16c:	f898 3002 	ldrb.w	r3, [r8, #2]
 170:	e792      	b.n	98 <cRFont_Res8b_Bpp1_1G::i8PutStringXY(short, short, cStrBaseT<unsigned short>*, cScreen*, bool)+0x98>
      return i8PutString(lpcScr, lbSizeOnly);
 172:	9a02      	ldr	r2, [sp, #8]
 174:	4639      	mov	r1, r7
 176:	4633      	mov	r3, r6
    };
 178:	b009      	add	sp, #36	; 0x24
 17a:	e8bd 4ff0 	ldmia.w	sp!, {r4, r5, r6, r7, r8, r9, sl, fp, lr}
      return i8PutString(lpcScr, lbSizeOnly);
 17e:	4718      	bx	r3
                                       lstPos.y - (lpstCharData->u8Height - 1) - (int8)lpstCharData->u8YOffset);
 180:	9905      	ldr	r1, [sp, #20]
 182:	5841      	ldr	r1, [r0, r1]
 184:	58cb      	ldr	r3, [r1, r3]
 186:	e7e2      	b.n	14e <cRFont_Res8b_Bpp1_1G::i8PutStringXY(short, short, cStrBaseT<unsigned short>*, cScreen*, bool)+0x14e>
      lstSize.x = 0;
 188:	46aa      	mov	sl, r5
 18a:	e7aa      	b.n	e2 <cRFont_Res8b_Bpp1_1G::i8PutStringXY(short, short, cStrBaseT<unsigned short>*, cScreen*, bool)+0xe2>
 18c:	00000000 	.word	0x00000000	18c: R_ARM_ABS32	cRFont_Res8b_Bpp1_1G::i8PutString(cScreen*, bool)

Disassembly of section .text._ZN20cRFont_Res8b_Bpp1_1G13i8PutStringXYEssPKcP7cScreenb:

00000000 <cRFont_Res8b_Bpp1_1G::i8PutStringXY(short, short, char const*, cScreen*, bool)>:
    tstGfxPos2D i8PutStringXY(GfxInt lixDestX, GfxInt lixDestY, char8 const *lszStr, cScreen *lpcScr, bool lbSizeOnly = False)
   0:	e92d 4ff0 	stmdb	sp!, {r4, r5, r6, r7, r8, r9, sl, fp, lr}
      mstStartPos.y = lixDestY;
   4:	84c2      	strh	r2, [r0, #38]	; 0x26
    tstGfxPos2D i8PutStringXY(GfxInt lixDestX, GfxInt lixDestY, char8 const *lszStr, cScreen *lpcScr, bool lbSizeOnly = False)
   6:	b089      	sub	sp, #36	; 0x24
      mstStartPos.x = lixDestX;
   8:	8481      	strh	r1, [r0, #36]	; 0x24
    tstGfxPos2D i8PutStringXY(GfxInt lixDestX, GfxInt lixDestY, char8 const *lszStr, cScreen *lpcScr, bool lbSizeOnly = False)
   a:	4604      	mov	r4, r0
  // http://www.ethernut.de/api/strlen_8c_source.html
  static u32 uixStrLen(const char8 *lpszSrc)
  {
    const char8 *lpszTemp;

    for (lpszTemp = lpszSrc; *lpszTemp; ++lpszTemp);
   c:	f993 0000 	ldrsb.w	r0, [r3]
  10:	9e12      	ldr	r6, [sp, #72]	; 0x48
  12:	4693      	mov	fp, r2
  14:	f89d 204c 	ldrb.w	r2, [sp, #76]	; 0x4c
  18:	9202      	str	r2, [sp, #8]
  1a:	2800      	cmp	r0, #0
  1c:	f000 80bb 	beq.w	196 <cRFont_Res8b_Bpp1_1G::i8PutStringXY(short, short, char const*, cScreen*, bool)+0x196>
  20:	461a      	mov	r2, r3
  22:	f912 0f01 	ldrsb.w	r0, [r2, #1]!
  26:	2800      	cmp	r0, #0
  28:	d1fb      	bne.n	22 <cRFont_Res8b_Bpp1_1G::i8PutStringXY(short, short, char const*, cScreen*, bool)+0x22>
  2a:	1ad2      	subs	r2, r2, r3
  2c:	b290      	uxth	r0, r2
      return i8PutString(lpcScr, lbSizeOnly);
  2e:	6825      	ldr	r5, [r4, #0]
  30:	4f5b      	ldr	r7, [pc, #364]	; (1a0 <cRFont_Res8b_Bpp1_1G::i8PutStringXY(short, short, char const*, cScreen*, bool)+0x1a0>)
  32:	682d      	ldr	r5, [r5, #0]
      cbArrayT<tyCStrT>::mpu8Data = (uint8*)lszStr;
  34:	f8c4 301e 	str.w	r3, [r4, #30]
  38:	42bd      	cmp	r5, r7
      cbArrayExtT<tyCStrT>::muiLen = (CSTRT_UINT)cStrT_strlen(lszStr);
  3a:	8460      	strh	r0, [r4, #34]	; 0x22
      cbArrayT<tyCStrT>::muiSize = cbArrayExtT<tyCStrT>::muiLen;
  3c:	83a0      	strh	r0, [r4, #28]
  3e:	f040 809e 	bne.w	17e <cRFont_Res8b_Bpp1_1G::i8PutStringXY(short, short, char const*, cScreen*, bool)+0x17e>
      mpcSpriteEng->vSetParam(Sprite_nModeOr, &mcSprite, lpcScr);
  42:	6b67      	ldr	r7, [r4, #52]	; 0x34
      lstSize.y = miGfxHeight;
  44:	f9b4 000a 	ldrsh.w	r0, [r4, #10]
      mpcSpriteEng->vSetCol(mui32Col);
  48:	69a5      	ldr	r5, [r4, #24]
      lstSize.y = miGfxHeight;
  4a:	9001      	str	r0, [sp, #4]
      mpcScreenDest = lpcScreenDest;
  4c:	61be      	str	r6, [r7, #24]
  4e:	b290      	uxth	r0, r2
      mpcSpriteEng->vSetParam(Sprite_nModeOr, &mcSprite, lpcScr);
  50:	f104 0628 	add.w	r6, r4, #40	; 0x28
      menMode       = lenMode;
  54:	2202      	movs	r2, #2
      mpcSprite     = lpcSprite;
  56:	60be      	str	r6, [r7, #8]
      mui32Col = lu32Col;
  58:	62fd      	str	r5, [r7, #44]	; 0x2c
      menMode       = lenMode;
  5a:	713a      	strb	r2, [r7, #4]
      for (lui32SignIdx = 0; lui32SignIdx < mcText.Len(); lui32SignIdx++)
  5c:	2800      	cmp	r0, #0
  5e:	f000 809c 	beq.w	19a <cRFont_Res8b_Bpp1_1G::i8PutStringXY(short, short, char const*, cScreen*, bool)+0x19a>
      lstSize.x = 0;
  62:	f04f 0a00 	mov.w	sl, #0
      for (lui32SignIdx = 0; lui32SignIdx < mcText.Len(); lui32SignIdx++)
  66:	4656      	mov	r6, sl
      mui8Type    = lui8Type;
  68:	9204      	str	r2, [sp, #16]
        lui8Letter = mcText.mpu8Data[lui32SignIdx];
  6a:	5d9b      	ldrb	r3, [r3, r6]
        if ((lui8Letter >= mui8IdxMin) &&
  6c:	7962      	ldrb	r2, [r4, #5]
  6e:	4293      	cmp	r3, r2
      liGfxSizeLineX = 0;
  70:	4657      	mov	r7, sl
  72:	f106 0601 	add.w	r6, r6, #1
        if ((lui8Letter >= mui8IdxMin) &&
  76:	d32e      	bcc.n	d6 <cRFont_Res8b_Bpp1_1G::i8PutStringXY(short, short, char const*, cScreen*, bool)+0xd6>
  78:	79a5      	ldrb	r5, [r4, #6]
  7a:	429d      	cmp	r5, r3
  7c:	d32b      	bcc.n	d6 <cRFont_Res8b_Bpp1_1G::i8PutStringXY(short, short, char const*, cScreen*, bool)+0xd6>
          lui16LetterIdx = maui16CharLut[lui8Letter - mui8IdxMin];
  7e:	1a9b      	subs	r3, r3, r2
  80:	6962      	ldr	r2, [r4, #20]
  82:	f832 5013 	ldrh.w	r5, [r2, r3, lsl #1]
          if (lui16LetterIdx != 0xFFFF)
  86:	f64f 73ff 	movw	r3, #65535	; 0xffff
  8a:	429d      	cmp	r5, r3
  8c:	d018      	beq.n	c0 <cRFont_Res8b_Bpp1_1G::i8PutStringXY(short, short, char const*, cScreen*, bool)+0xc0>
            lpstCharData = (tstCharRes8B*)(maui8CharData + lui16LetterIdx);
  8e:	f8d4 9010 	ldr.w	r9, [r4, #16]
            if (!lbSizeOnly)
  92:	9a02      	ldr	r2, [sp, #8]
            lpstCharData = (tstCharRes8B*)(maui8CharData + lui16LetterIdx);
  94:	eb09 0805 	add.w	r8, r9, r5
  98:	b28b      	uxth	r3, r1
  9a:	9303      	str	r3, [sp, #12]
  9c:	f898 3002 	ldrb.w	r3, [r8, #2]
            if (!lbSizeOnly)
  a0:	2a00      	cmp	r2, #0
  a2:	d042      	beq.n	12a <cRFont_Res8b_Bpp1_1G::i8PutStringXY(short, short, char const*, cScreen*, bool)+0x12a>
            lstPos.x += (int8)lpstCharData->u8XOffset + lpstCharData->u8Width + miGfxSpacing;
  a4:	f919 1005 	ldrsb.w	r1, [r9, r5]
  a8:	8922      	ldrh	r2, [r4, #8]
  aa:	4419      	add	r1, r3
  ac:	4411      	add	r1, r2
  ae:	b289      	uxth	r1, r1
            liGfxSizeLineX += (int8)lpstCharData->u8XOffset + lpstCharData->u8Width + miGfxSpacing;
  b0:	440f      	add	r7, r1
            lstPos.x += (int8)lpstCharData->u8XOffset + lpstCharData->u8Width + miGfxSpacing;
  b2:	9b03      	ldr	r3, [sp, #12]
            liGfxSizeLineX += (int8)lpstCharData->u8XOffset + lpstCharData->u8Width + miGfxSpacing;
  b4:	b23f      	sxth	r7, r7
            lstPos.x += (int8)lpstCharData->u8XOffset + lpstCharData->u8Width + miGfxSpacing;
  b6:	4419      	add	r1, r3
  b8:	45ba      	cmp	sl, r7
  ba:	bfb8      	it	lt
  bc:	46ba      	movlt	sl, r7
  be:	b209      	sxth	r1, r1
      return cbArrayExtT<tyCStrT>::muiLen;
  c0:	8c60      	ldrh	r0, [r4, #34]	; 0x22
      for (lui32SignIdx = 0; lui32SignIdx < mcText.Len(); lui32SignIdx++)
  c2:	42b0      	cmp	r0, r6
  c4:	d913      	bls.n	ee <cRFont_Res8b_Bpp1_1G::i8PutStringXY(short, short, char const*, cScreen*, bool)+0xee>
  c6:	f8d4 301e 	ldr.w	r3, [r4, #30]
        if ((lui8Letter >= mui8IdxMin) &&
  ca:	7962      	ldrb	r2, [r4, #5]
        lui8Letter = mcText.mpu8Data[lui32SignIdx];
  cc:	5d9b      	ldrb	r3, [r3, r6]
        if ((lui8Letter >= mui8IdxMin) &&
  ce:	4293      	cmp	r3, r2
  d0:	f106 0601 	add.w	r6, r6, #1
  d4:	d2d0      	bcs.n	78 <cRFont_Res8b_Bpp1_1G::i8PutStringXY(short, short, char const*, cScreen*, bool)+0x78>
          switch (lui8Letter)
  d6:	2b0a      	cmp	r3, #10
  d8:	d019      	beq.n	10e <cRFont_Res8b_Bpp1_1G::i8PutStringXY(short, short, char const*, cScreen*, bool)+0x10e>
  da:	2b0d      	cmp	r3, #13
  dc:	d0f0      	beq.n	c0 <cRFont_Res8b_Bpp1_1G::i8PutStringXY(short, short, char const*, cScreen*, bool)+0xc0>
            lstPos.x += miGfxSpacing;
  de:	8923      	ldrh	r3, [r4, #8]
  e0:	8c60      	ldrh	r0, [r4, #34]	; 0x22
  e2:	4419      	add	r1, r3
            liGfxSizeLineX += miGfxSpacing;
  e4:	441f      	add	r7, r3
      for (lui32SignIdx = 0; lui32SignIdx < mcText.Len(); lui32SignIdx++)
  e6:	42b0      	cmp	r0, r6
            lstPos.x += miGfxSpacing;
  e8:	b209      	sxth	r1, r1
            liGfxSizeLineX += miGfxSpacing;
  ea:	b23f      	sxth	r7, r7
      for (lui32SignIdx = 0; lui32SignIdx < mcText.Len(); lui32SignIdx++)
  ec:	d8eb      	bhi.n	c6 <cRFont_Res8b_Bpp1_1G::i8PutStringXY(short, short, char const*, cScreen*, bool)+0xc6>
  ee:	9b01      	ldr	r3, [sp, #4]
  f0:	f8ad 301e 	strh.w	r3, [sp, #30]
      return i8PutString(lpcScr, lbSizeOnly);
  f4:	fa1f f28a 	uxth.w	r2, sl
  f8:	2000      	movs	r0, #0
  fa:	b29b      	uxth	r3, r3
  fc:	f362 000f 	bfi	r0, r2, #0, #16
 100:	f363 401f 	bfi	r0, r3, #16, #16
 104:	f8ad a01c 	strh.w	sl, [sp, #28]
    };
 108:	b009      	add	sp, #36	; 0x24
 10a:	e8bd 8ff0 	ldmia.w	sp!, {r4, r5, r6, r7, r8, r9, sl, fp, pc}
            if ((lui32SignIdx + 1) < mcText.Len())
 10e:	42b0      	cmp	r0, r6
 110:	d9d6      	bls.n	c0 <cRFont_Res8b_Bpp1_1G::i8PutStringXY(short, short, char const*, cScreen*, bool)+0xc0>
              lstPos.y  += miGfxHeight;
 112:	8963      	ldrh	r3, [r4, #10]
              lstSize.y += miGfxHeight;
 114:	9a01      	ldr	r2, [sp, #4]
              lstPos.x   = mstStartPos.x;
 116:	f9b4 1024 	ldrsh.w	r1, [r4, #36]	; 0x24
              lstPos.y  += miGfxHeight;
 11a:	449b      	add	fp, r3
              lstSize.y += miGfxHeight;
 11c:	4413      	add	r3, r2
 11e:	b21b      	sxth	r3, r3
              lstPos.y  += miGfxHeight;
 120:	fa0f fb8b 	sxth.w	fp, fp
              lstSize.y += miGfxHeight;
 124:	9301      	str	r3, [sp, #4]
              liGfxSizeLineX = 0;
 126:	2700      	movs	r7, #0
 128:	e7ca      	b.n	c0 <cRFont_Res8b_Bpp1_1G::i8PutStringXY(short, short, char const*, cScreen*, bool)+0xc0>
                                       lstPos.y - (lpstCharData->u8Height - 1) - (int8)lpstCharData->u8YOffset);
 12a:	6be1      	ldr	r1, [r4, #60]	; 0x3c
              (mpcSpriteEng->*mi8Bitx)(lstPos.x + (int8)lpstCharData->u8XOffset,
 12c:	6b60      	ldr	r0, [r4, #52]	; 0x34
              mcSprite.vSet(lpstCharData->u8Width, lpstCharData->u8Height, menFormat, Sprite_nBPP_BPP1_1G, lpui8CharData);            
 12e:	f898 2003 	ldrb.w	r2, [r8, #3]
      miGfxWidth  = liGfxWidth;
 132:	85a3      	strh	r3, [r4, #44]	; 0x2c
                                       lstPos.y - (lpstCharData->u8Height - 1) - (int8)lpstCharData->u8YOffset);
 134:	1049      	asrs	r1, r1, #1
            lpui8CharData = (uint8*)lpstCharData + sizeof(tstCharRes8B);
 136:	f108 0304 	add.w	r3, r8, #4
              (mpcSpriteEng->*mi8Bitx)(lstPos.x + (int8)lpstCharData->u8XOffset,
 13a:	9105      	str	r1, [sp, #20]
 13c:	eb00 0e01 	add.w	lr, r0, r1
      mui8Type    = lui8Type;
 140:	9904      	ldr	r1, [sp, #16]
 142:	f884 1030 	strb.w	r1, [r4, #48]	; 0x30
      mpui8Data   = (uint8*)lpui8Data;
 146:	62a3      	str	r3, [r4, #40]	; 0x28
                                       lstPos.y - (lpstCharData->u8Height - 1) - (int8)lpstCharData->u8YOffset);
 148:	e9d4 310e 	ldrd	r3, r1, [r4, #56]	; 0x38
              mcSprite.vSet(lpstCharData->u8Width, lpstCharData->u8Height, menFormat, Sprite_nBPP_BPP1_1G, lpui8CharData);            
 14c:	f894 c004 	ldrb.w	ip, [r4, #4]
 150:	85e2      	strh	r2, [r4, #46]	; 0x2e
                                       lstPos.y - (lpstCharData->u8Height - 1) - (int8)lpstCharData->u8YOffset);
 152:	07c9      	lsls	r1, r1, #31
      menFormat   = lenFormat;
 154:	f884 c031 	strb.w	ip, [r4, #49]	; 0x31
 158:	d419      	bmi.n	18e <cRFont_Res8b_Bpp1_1G::i8PutStringXY(short, short, char const*, cScreen*, bool)+0x18e>
 15a:	f998 0001 	ldrsb.w	r0, [r8, #1]
              (mpcSpriteEng->*mi8Bitx)(lstPos.x + (int8)lpstCharData->u8XOffset,
 15e:	f919 1005 	ldrsb.w	r1, [r9, r5]
                                       lstPos.y - (lpstCharData->u8Height - 1) - (int8)lpstCharData->u8YOffset);
 162:	f10b 0c01 	add.w	ip, fp, #1
 166:	ebac 0202 	sub.w	r2, ip, r2
 16a:	1a12      	subs	r2, r2, r0
              (mpcSpriteEng->*mi8Bitx)(lstPos.x + (int8)lpstCharData->u8XOffset,
 16c:	9803      	ldr	r0, [sp, #12]
 16e:	4401      	add	r1, r0
 170:	b212      	sxth	r2, r2
 172:	4670      	mov	r0, lr
 174:	b209      	sxth	r1, r1
 176:	4798      	blx	r3
 178:	f898 3002 	ldrb.w	r3, [r8, #2]
 17c:	e792      	b.n	a4 <cRFont_Res8b_Bpp1_1G::i8PutStringXY(short, short, char const*, cScreen*, bool)+0xa4>
      return i8PutString(lpcScr, lbSizeOnly);
 17e:	9a02      	ldr	r2, [sp, #8]
 180:	4631      	mov	r1, r6
 182:	4620      	mov	r0, r4
 184:	462b      	mov	r3, r5
    };
 186:	b009      	add	sp, #36	; 0x24
 188:	e8bd 4ff0 	ldmia.w	sp!, {r4, r5, r6, r7, r8, r9, sl, fp, lr}
      return i8PutString(lpcScr, lbSizeOnly);
 18c:	4718      	bx	r3
                                       lstPos.y - (lpstCharData->u8Height - 1) - (int8)lpstCharData->u8YOffset);
 18e:	9905      	ldr	r1, [sp, #20]
 190:	5841      	ldr	r1, [r0, r1]
 192:	58cb      	ldr	r3, [r1, r3]
 194:	e7e1      	b.n	15a <cRFont_Res8b_Bpp1_1G::i8PutStringXY(short, short, char const*, cScreen*, bool)+0x15a>
 196:	4602      	mov	r2, r0
 198:	e749      	b.n	2e <cRFont_Res8b_Bpp1_1G::i8PutStringXY(short, short, char const*, cScreen*, bool)+0x2e>
      lstSize.x = 0;
 19a:	4682      	mov	sl, r0
 19c:	e7a7      	b.n	ee <cRFont_Res8b_Bpp1_1G::i8PutStringXY(short, short, char const*, cScreen*, bool)+0xee>
 19e:	bf00      	nop
 1a0:	00000000 	.word	0x00000000	1a0: R_ARM_ABS32	cRFont_Res8b_Bpp1_1G::i8PutString(cScreen*, bool)

Disassembly of section .text._ZN10cDiffTimer8toStringEv:

00000000 <cDiffTimer::toString()>:
    mu32LastTimerValue = lu32Temp;

    return lu32Diff;
  };

  char* toString()
   0:	b5f8      	push	{r3, r4, r5, r6, r7, lr}
   2:	4604      	mov	r4, r0
    lu32Temp = u32GetTimer();
   4:	f7ff fffe 	bl	0 <u32GetTimer>	4: R_ARM_THM_CALL	u32GetTimer
    lu32Diff = lu32Temp - mu32LastTimerValue;
   8:	68e3      	ldr	r3, [r4, #12]
    mu32LastTimerValue = lu32Temp;
   a:	60e0      	str	r0, [r4, #12]
    if (len == 0)
    {
      return -1;
    }

    if (num < 0)
   c:	1ac0      	subs	r0, r0, r3
   e:	d433      	bmi.n	78 <cDiffTimer::toString()+0x78>
    int i = 0;
  10:	2200      	movs	r2, #0
  12:	1e51      	subs	r1, r2, #1
      return -1;
    }

    do
    {
      digit = sum % base;
  14:	4e24      	ldr	r6, [pc, #144]	; (a8 <cDiffTimer::toString()+0xa8>)
  16:	4421      	add	r1, r4
  18:	e001      	b.n	1e <cDiffTimer::toString()+0x1e>
      }

      sum /= base;

    }
    while (sum && (i < (len - 1)));
  1a:	2a08      	cmp	r2, #8
  1c:	dc29      	bgt.n	72 <cDiffTimer::toString()+0x72>
      digit = sum % base;
  1e:	fb86 3500 	smull	r3, r5, r6, r0
  22:	17c3      	asrs	r3, r0, #31
  24:	ebc3 03a5 	rsb	r3, r3, r5, asr #2
  28:	eb03 0583 	add.w	r5, r3, r3, lsl #2
  2c:	eba0 0045 	sub.w	r0, r0, r5, lsl #1
        str[i++] = '0' + digit;
  30:	3030      	adds	r0, #48	; 0x30
  32:	3201      	adds	r2, #1
  34:	f801 0f01 	strb.w	r0, [r1, #1]!
  38:	1e55      	subs	r5, r2, #1
    while (sum && (i < (len - 1)));
  3a:	4618      	mov	r0, r3
  3c:	2b00      	cmp	r3, #0
  3e:	d1ec      	bne.n	1a <cDiffTimer::toString()+0x1a>
    if (i == (len - 1) && sum)
    {
      return -1;
    }

    str[i] = '\0';
  40:	2300      	movs	r3, #0
  42:	54a3      	strb	r3, [r4, r2]
    if (str[0] == '-')
  44:	f994 6000 	ldrsb.w	r6, [r4]
  48:	2e2d      	cmp	r6, #45	; 0x2d
    str[i] = '\0';
  4a:	eb04 0002 	add.w	r0, r4, r2
    if (str[0] == '-')
  4e:	d018      	beq.n	82 <cDiffTimer::toString()+0x82>
    for (i = 0, j = len - 1; i < j; i++, j--)
  50:	b16d      	cbz	r5, 6e <cDiffTimer::toString()+0x6e>
  52:	4625      	mov	r5, r4
  54:	e001      	b.n	5a <cDiffTimer::toString()+0x5a>
  56:	f995 6000 	ldrsb.w	r6, [r5]
      str[i] = str[j];
  5a:	f910 7d01 	ldrsb.w	r7, [r0, #-1]!
  5e:	f805 7b01 	strb.w	r7, [r5], #1
    for (i = 0, j = len - 1; i < j; i++, j--)
  62:	3301      	adds	r3, #1
  64:	43d9      	mvns	r1, r3
  66:	4411      	add	r1, r2
  68:	428b      	cmp	r3, r1
      str[j] = a;
  6a:	7006      	strb	r6, [r0, #0]
    for (i = 0, j = len - 1; i < j; i++, j--)
  6c:	d3f3      	bcc.n	56 <cDiffTimer::toString()+0x56>
  {
    cStrTools::i8Itoan(get(), mszString, 10, 10);
    return mszString;
  };
  6e:	4620      	mov	r0, r4
  70:	bdf8      	pop	{r3, r4, r5, r6, r7, pc}
    if (i == (len - 1) && sum)
  72:	2a09      	cmp	r2, #9
  74:	d1e4      	bne.n	40 <cDiffTimer::toString()+0x40>
  76:	e7fa      	b.n	6e <cDiffTimer::toString()+0x6e>
      str[i++] = '-';
  78:	232d      	movs	r3, #45	; 0x2d
      num = -num;
  7a:	4240      	negs	r0, r0
      str[i++] = '-';
  7c:	7023      	strb	r3, [r4, #0]
  7e:	2201      	movs	r2, #1
  80:	e7c7      	b.n	12 <cDiffTimer::toString()+0x12>
    for (i = 0, j = len - 1; i < j; i++, j--)
  82:	2a02      	cmp	r2, #2
      vStrRev(&str[1], i-1);
  84:	f104 0101 	add.w	r1, r4, #1
    for (i = 0, j = len - 1; i < j; i++, j--)
  88:	d0f1      	beq.n	6e <cDiffTimer::toString()+0x6e>
  8a:	4429      	add	r1, r5
  8c:	4620      	mov	r0, r4
  8e:	3301      	adds	r3, #1
  90:	43da      	mvns	r2, r3
  92:	442a      	add	r2, r5
      a = str[i];
  94:	f910 6f01 	ldrsb.w	r6, [r0, #1]!
      str[i] = str[j];
  98:	f911 7d01 	ldrsb.w	r7, [r1, #-1]!
  9c:	7007      	strb	r7, [r0, #0]
    for (i = 0, j = len - 1; i < j; i++, j--)
  9e:	429a      	cmp	r2, r3
      str[j] = a;
  a0:	700e      	strb	r6, [r1, #0]
    for (i = 0, j = len - 1; i < j; i++, j--)
  a2:	d8f4      	bhi.n	8e <cDiffTimer::toString()+0x8e>
  a4:	4620      	mov	r0, r4
  a6:	bdf8      	pop	{r3, r4, r5, r6, r7, pc}
  a8:	66666667 	.word	0x66666667

Disassembly of section .text._ZN20cRFont_Res8b_Bpp1_1G15i8InitFromRes8BEPKhS1_:

00000000 <cRFont_Res8b_Bpp1_1G::i8InitFromRes8B(unsigned char const*, unsigned char const*)>:
    FRet i8InitFromRes8B(const uint8 *lpui8RFontRes8B, const uint8 *lpaui8CharData)
   0:	b430      	push	{r4, r5}
   2:	4604      	mov	r4, r0
      if ((lpui8RFontRes8B[0] == Sprite_nType_ArrayFont) &&
   4:	7808      	ldrb	r0, [r1, #0]
   6:	2801      	cmp	r0, #1
   8:	d003      	beq.n	12 <cRFont_Res8b_Bpp1_1G::i8InitFromRes8B(unsigned char const*, unsigned char const*)+0x12>
      return RFONT_FAIL;
   a:	2301      	movs	r3, #1
    }
   c:	4618      	mov	r0, r3
   e:	bc30      	pop	{r4, r5}
  10:	4770      	bx	lr
      if ((lpui8RFontRes8B[0] == Sprite_nType_ArrayFont) &&
  12:	784b      	ldrb	r3, [r1, #1]
  14:	2b02      	cmp	r3, #2
  16:	d003      	beq.n	20 <cRFont_Res8b_Bpp1_1G::i8InitFromRes8B(unsigned char const*, unsigned char const*)+0x20>
      return RFONT_FAIL;
  18:	4603      	mov	r3, r0
    }
  1a:	4618      	mov	r0, r3
  1c:	bc30      	pop	{r4, r5}
  1e:	4770      	bx	lr
        menFormat  = (Sprite_tenFormat)lpui8RFontRes8B[2]; // RAW, RLE, ...
  20:	788b      	ldrb	r3, [r1, #2]
  22:	7123      	strb	r3, [r4, #4]
        mui8IdxMin = lpui8RFontRes8B[3];
  24:	78c8      	ldrb	r0, [r1, #3]
  26:	7160      	strb	r0, [r4, #5]
        mui8IdxMax = lpui8RFontRes8B[4];
  28:	7908      	ldrb	r0, [r1, #4]
  2a:	71a0      	strb	r0, [r4, #6]
        miGfxSpacing = lpui8RFontRes8B[5];
  2c:	7948      	ldrb	r0, [r1, #5]
  2e:	8120      	strh	r0, [r4, #8]
        miGfxHeight  = lpui8RFontRes8B[6];
  30:	7988      	ldrb	r0, [r1, #6]
  32:	8160      	strh	r0, [r4, #10]
  34:	6b60      	ldr	r0, [r4, #52]	; 0x34
        miGfxYOffset = lpui8RFontRes8B[7];
  36:	79cd      	ldrb	r5, [r1, #7]
  38:	81a5      	strh	r5, [r4, #12]
        maui16CharLut = (uint16*)(lpui8RFontRes8B + 8);
  3a:	3108      	adds	r1, #8
        maui8CharData = (uint8*)lpaui8CharData;
  3c:	e9c4 2104 	strd	r2, r1, [r4, #16]
  40:	7902      	ldrb	r2, [r0, #4]
        switch (menFormat)
  42:	b17b      	cbz	r3, 64 <cRFont_Res8b_Bpp1_1G::i8InitFromRes8B(unsigned char const*, unsigned char const*)+0x64>
  44:	2b01      	cmp	r3, #1
  46:	d009      	beq.n	5c <cRFont_Res8b_Bpp1_1G::i8InitFromRes8B(unsigned char const*, unsigned char const*)+0x5c>
          mi8Bitx = (cSpriteEngine_Bpp1_1G::i8Bitx[(u8)mpcSpriteEng->menMode]);
  48:	4b0b      	ldr	r3, [pc, #44]	; (78 <cRFont_Res8b_Bpp1_1G::i8InitFromRes8B(unsigned char const*, unsigned char const*)+0x78>)
  4a:	eb03 02c2 	add.w	r2, r3, r2, lsl #3
  4e:	e892 0003 	ldmia.w	r2, {r0, r1}
  52:	3438      	adds	r4, #56	; 0x38
  54:	e884 0003 	stmia.w	r4, {r0, r1}
        return RFONT_OK;
  58:	2300      	movs	r3, #0
          break;
  5a:	e7d7      	b.n	c <cRFont_Res8b_Bpp1_1G::i8InitFromRes8B(unsigned char const*, unsigned char const*)+0xc>
          mi8Bitx = ((cSpriteEngine_Bpp1_1G::i8Bitx[(u8)(mpcSpriteEng->menMode + Sprite_nModeLastEntry)]));
  5c:	3204      	adds	r2, #4
  5e:	4b06      	ldr	r3, [pc, #24]	; (78 <cRFont_Res8b_Bpp1_1G::i8InitFromRes8B(unsigned char const*, unsigned char const*)+0x78>)
  60:	b2d2      	uxtb	r2, r2
  62:	e7f2      	b.n	4a <cRFont_Res8b_Bpp1_1G::i8InitFromRes8B(unsigned char const*, unsigned char const*)+0x4a>
          mi8Bitx = (cSpriteEngine_Bpp1_1G::i8Bitx[(u8)mpcSpriteEng->menMode]);
  64:	4904      	ldr	r1, [pc, #16]	; (78 <cRFont_Res8b_Bpp1_1G::i8InitFromRes8B(unsigned char const*, unsigned char const*)+0x78>)
  66:	eb01 02c2 	add.w	r2, r1, r2, lsl #3
  6a:	e892 0003 	ldmia.w	r2, {r0, r1}
  6e:	3438      	adds	r4, #56	; 0x38
  70:	e884 0003 	stmia.w	r4, {r0, r1}
          break;
  74:	e7ca      	b.n	c <cRFont_Res8b_Bpp1_1G::i8InitFromRes8B(unsigned char const*, unsigned char const*)+0xc>
  76:	bf00      	nop
  78:	00000000 	.word	0x00000000	78: R_ARM_ABS32	cSpriteEngine::i8Bitx

Disassembly of section .text.NMI_Handler:

00000000 <NMI_Handler>:
cRFont_Res8b_Bpp1_1G                     cRFont_Res8b_Bpp1_1G_5x5Ucase(SPRTMST_FontLut_RFont01_05x05U_1BPP_1G_Bmp, SPRTMST_FontData_RFont01_05x05U_1BPP_1G_Bmp, &mc16GSpriteEng);
cRFont_Res8b_Bpp1_1G                     cRFont_Res8b_Bpp1_1G_Full(SPRTMST_FontLut_RFont01_06x08_1BPP_1G_Bmp, SPRTMST_FontData_RFont01_06x08_1BPP_1G_Bmp, &mc16GSpriteEng);


void NMI_Handler(void)
{
   0:	e7fe      	b.n	0 <NMI_Handler>
   2:	bf00      	nop

Disassembly of section .text.HardFault_Handler:

00000000 <HardFault_Handler>:
  {
  }
}

void HardFault_Handler(void)
{
   0:	e7fe      	b.n	0 <HardFault_Handler>
   2:	bf00      	nop

Disassembly of section .text.MemManage_Handler:

00000000 <MemManage_Handler>:
  }
}


void MemManage_Handler(void)
{
   0:	e7fe      	b.n	0 <MemManage_Handler>
   2:	bf00      	nop

Disassembly of section .text.BusFault_Handler:

00000000 <BusFault_Handler>:
  }
}


void BusFault_Handler(void)
{
   0:	e7fe      	b.n	0 <BusFault_Handler>
   2:	bf00      	nop

Disassembly of section .text.UsageFault_Handler:

00000000 <UsageFault_Handler>:
  }
}


void UsageFault_Handler(void)
{
   0:	e7fe      	b.n	0 <UsageFault_Handler>
   2:	bf00      	nop

Disassembly of section .text.SVC_Handler:

00000000 <SVC_Handler>:
  }
}


void SVC_Handler(void)
{
   0:	e7fe      	b.n	0 <SVC_Handler>
   2:	bf00      	nop

Disassembly of section .text.DebugMon_Handler:

00000000 <DebugMon_Handler>:
  {
  }
}

void DebugMon_Handler(void)
{
   0:	e7fe      	b.n	0 <DebugMon_Handler>
   2:	bf00      	nop

Disassembly of section .text.PendSV_Handler:

00000000 <PendSV_Handler>:
  }
}


void PendSV_Handler(void)
{
   0:	e7fe      	b.n	0 <PendSV_Handler>
   2:	bf00      	nop

Disassembly of section .text._Z21TimingDelay_Decrementv:

00000000 <TimingDelay_Decrement()>:

#endif

void TimingDelay_Decrement(void)
{
  if (TimingDelay != 0x00)
   0:	4b03      	ldr	r3, [pc, #12]	; (10 <TimingDelay_Decrement()+0x10>)
   2:	681a      	ldr	r2, [r3, #0]
   4:	b112      	cbz	r2, c <TimingDelay_Decrement()+0xc>
  {
    TimingDelay--;
   6:	681a      	ldr	r2, [r3, #0]
   8:	3a01      	subs	r2, #1
   a:	601a      	str	r2, [r3, #0]
  }
}
   c:	4770      	bx	lr
   e:	bf00      	nop
  10:	00000000 	.word	0x00000000	10: R_ARM_ABS32	.bss.TimingDelay

Disassembly of section .text.SysTick_Handler:

00000000 <SysTick_Handler>:
  if (TimingDelay != 0x00)
   0:	4b03      	ldr	r3, [pc, #12]	; (10 <SysTick_Handler+0x10>)
   2:	681a      	ldr	r2, [r3, #0]
   4:	b112      	cbz	r2, c <SysTick_Handler+0xc>
    TimingDelay--;
   6:	681a      	ldr	r2, [r3, #0]
   8:	3a01      	subs	r2, #1
   a:	601a      	str	r2, [r3, #0]


void SysTick_Handler(void)
{
  TimingDelay_Decrement();
}
   c:	4770      	bx	lr
   e:	bf00      	nop
  10:	00000000 	.word	0x00000000	10: R_ARM_ABS32	.bss.TimingDelay

Disassembly of section .text._ZN11cMatrix_4x4C2Eb:

00000000 <cMatrix_4x4::cMatrix_4x4(bool)>:

  arm_matrix_instance_f32 mstMat1;
  arm_matrix_instance_f32 mstMat2;
  arm_matrix_instance_f32 mstRet;

  cMatrix_4x4(bool lbInit)
   0:	b5f0      	push	{r4, r5, r6, r7, lr}
   2:	4606      	mov	r6, r0
   4:	b091      	sub	sp, #68	; 0x44
  {
    if (lbInit) Set_Default();
   6:	b9b1      	cbnz	r1, 36 <cMatrix_4x4::cMatrix_4x4(bool)+0x36>
   8:	3040      	adds	r0, #64	; 0x40

    arm_mat_init_f32(&mstMat1, 4, 4, null);
   a:	2204      	movs	r2, #4
   c:	4611      	mov	r1, r2
   e:	2300      	movs	r3, #0
  10:	f7ff fffe 	bl	0 <arm_mat_init_f32>	10: R_ARM_THM_CALL	arm_mat_init_f32
    arm_mat_init_f32(&mstMat2, 4, 4, null);
  14:	2204      	movs	r2, #4
  16:	4611      	mov	r1, r2
  18:	f106 0048 	add.w	r0, r6, #72	; 0x48
  1c:	2300      	movs	r3, #0
  1e:	f7ff fffe 	bl	0 <arm_mat_init_f32>	1e: R_ARM_THM_CALL	arm_mat_init_f32
    arm_mat_init_f32(&mstRet, 4, 4, (float*)m);
  22:	2204      	movs	r2, #4
  24:	f106 0050 	add.w	r0, r6, #80	; 0x50
  28:	4633      	mov	r3, r6
  2a:	4611      	mov	r1, r2
  2c:	f7ff fffe 	bl	0 <arm_mat_init_f32>	2c: R_ARM_THM_CALL	arm_mat_init_f32
  }
  30:	4630      	mov	r0, r6
  32:	b011      	add	sp, #68	; 0x44
  34:	bdf0      	pop	{r4, r5, r6, r7, pc}

  void Set_Default()
  {
    float DefaultMat[4][4] =
  36:	4d0f      	ldr	r5, [pc, #60]	; (74 <cMatrix_4x4::cMatrix_4x4(bool)+0x74>)
  38:	cd0f      	ldmia	r5!, {r0, r1, r2, r3}
  3a:	466c      	mov	r4, sp
  3c:	c40f      	stmia	r4!, {r0, r1, r2, r3}
  3e:	cd0f      	ldmia	r5!, {r0, r1, r2, r3}
  40:	c40f      	stmia	r4!, {r0, r1, r2, r3}
  42:	cd0f      	ldmia	r5!, {r0, r1, r2, r3}
  44:	c40f      	stmia	r4!, {r0, r1, r2, r3}
  46:	e895 000f 	ldmia.w	r5, {r0, r1, r2, r3}
  4a:	e884 000f 	stmia.w	r4, {r0, r1, r2, r3}
  4e:	466a      	mov	r2, sp
  50:	4633      	mov	r3, r6
  52:	f106 0040 	add.w	r0, r6, #64	; 0x40

    for (c = 0; c < 4; c++)
    {
      for (r = 0; r < 4; r++)
      {
        m[c][r] = lMatrix[c][r];
  56:	6817      	ldr	r7, [r2, #0]
  58:	6855      	ldr	r5, [r2, #4]
  5a:	6894      	ldr	r4, [r2, #8]
  5c:	68d1      	ldr	r1, [r2, #12]
  5e:	601f      	str	r7, [r3, #0]
  60:	605d      	str	r5, [r3, #4]
  62:	609c      	str	r4, [r3, #8]
  64:	60d9      	str	r1, [r3, #12]
  66:	3310      	adds	r3, #16
    for (c = 0; c < 4; c++)
  68:	4283      	cmp	r3, r0
  6a:	f102 0210 	add.w	r2, r2, #16
  6e:	d1f2      	bne.n	56 <cMatrix_4x4::cMatrix_4x4(bool)+0x56>
  70:	e7cb      	b.n	a <cMatrix_4x4::cMatrix_4x4(bool)+0xa>
  72:	bf00      	nop
  74:	00000000 	.word	0x00000000	74: R_ARM_ABS32	.rodata

Disassembly of section .text._ZN9cVector4fC2Ev:

00000000 <cVector4f::cVector4f()>:
  arm_matrix_instance_f32 mstVec;

  float nret[4];
  arm_matrix_instance_f32 mstRetVec;

  cVector4f()
   0:	b510      	push	{r4, lr}
  {                         //   R, C
    arm_mat_init_f32(&mstMat,    4, 4, null);
   2:	2204      	movs	r2, #4
  cVector4f()
   4:	4604      	mov	r4, r0
    arm_mat_init_f32(&mstMat,    4, 4, null);
   6:	4611      	mov	r1, r2
   8:	3010      	adds	r0, #16
   a:	2300      	movs	r3, #0
   c:	f7ff fffe 	bl	0 <arm_mat_init_f32>	c: R_ARM_THM_CALL	arm_mat_init_f32
    arm_mat_init_f32(&mstVec,    4, 1, null);
  10:	f104 0018 	add.w	r0, r4, #24
  14:	2300      	movs	r3, #0
  16:	2201      	movs	r2, #1
  18:	2104      	movs	r1, #4
  1a:	f7ff fffe 	bl	0 <arm_mat_init_f32>	1a: R_ARM_THM_CALL	arm_mat_init_f32
    arm_mat_init_f32(&mstRetVec, 4, 1, (float*)n);
  1e:	f104 0030 	add.w	r0, r4, #48	; 0x30
  22:	4623      	mov	r3, r4
  24:	2201      	movs	r2, #1
  26:	2104      	movs	r1, #4
  28:	f7ff fffe 	bl	0 <arm_mat_init_f32>	28: R_ARM_THM_CALL	arm_mat_init_f32
  }
  2c:	4620      	mov	r0, r4
  2e:	bd10      	pop	{r4, pc}

Disassembly of section .text._Z14FSMC_SRAM_Initv:

00000000 <FSMC_SRAM_Init()>:




void FSMC_SRAM_Init(void)
{
   0:	e92d 4ff0 	stmdb	sp!, {r4, r5, r6, r7, r8, r9, sl, fp, lr}
  GPIO_InitTypeDef  GPIO_InitStructure;
  FSMC_NORSRAMInitTypeDef  FSMC_NORSRAMInitStructure;
  FSMC_NORSRAMTimingInitTypeDef  readWriteTiming;

  RCC_AHB1PeriphClockCmd(RCC_AHB1Periph_GPIOB | RCC_AHB1Periph_GPIOD | RCC_AHB1Periph_GPIOE | RCC_AHB1Periph_GPIOF | RCC_AHB1Periph_GPIOG, ENABLE);//??PD,PE,PF,PG??
   4:	2101      	movs	r1, #1
{
   6:	b099      	sub	sp, #100	; 0x64
  RCC_AHB1PeriphClockCmd(RCC_AHB1Periph_GPIOB | RCC_AHB1Periph_GPIOD | RCC_AHB1Periph_GPIOE | RCC_AHB1Periph_GPIOF | RCC_AHB1Periph_GPIOG, ENABLE);//??PD,PE,PF,PG??
   8:	207a      	movs	r0, #122	; 0x7a
   a:	f7ff fffe 	bl	0 <RCC_AHB1PeriphClockCmd>	a: R_ARM_THM_CALL	RCC_AHB1PeriphClockCmd
  RCC_AHB3PeriphClockCmd(RCC_AHB3Periph_FSMC, ENABLE);//??FSMC??
   e:	2101      	movs	r1, #1
  GPIO_InitStructure.GPIO_Pin = (3 << 0) | (3 << 4) | (0XFF << 8);//PD0,1,4,5,8~15 AF OUT
  GPIO_InitStructure.GPIO_Mode = GPIO_Mode_AF;//????
  GPIO_InitStructure.GPIO_OType = GPIO_OType_PP;//????
  GPIO_InitStructure.GPIO_Speed = GPIO_Speed_100MHz;//100MHz
  GPIO_InitStructure.GPIO_PuPd = GPIO_PuPd_UP;//??
  GPIO_Init(GPIOD, &GPIO_InitStructure);//???
  10:	4da4      	ldr	r5, [pc, #656]	; (2a4 <FSMC_SRAM_Init()+0x2a4>)
  GPIO_InitStructure.GPIO_Pin = (3 << 0) | (0X1FF << 7);//PE0,1,7~15,AF OUT
  GPIO_InitStructure.GPIO_Mode = GPIO_Mode_AF;//????
  GPIO_InitStructure.GPIO_OType = GPIO_OType_PP;//????
  GPIO_InitStructure.GPIO_Speed = GPIO_Speed_100MHz;//100MHz
  GPIO_InitStructure.GPIO_PuPd = GPIO_PuPd_UP;//??
  GPIO_Init(GPIOE, &GPIO_InitStructure);//???
  12:	4ea5      	ldr	r6, [pc, #660]	; (2a8 <FSMC_SRAM_Init()+0x2a8>)
  GPIO_InitStructure.GPIO_Pin = (0X3F << 0) | (0XF << 12);   //PF0~5,12~15
  GPIO_InitStructure.GPIO_Mode = GPIO_Mode_AF;//????
  GPIO_InitStructure.GPIO_OType = GPIO_OType_PP;//????
  GPIO_InitStructure.GPIO_Speed = GPIO_Speed_100MHz;//100MHz
  GPIO_InitStructure.GPIO_PuPd = GPIO_PuPd_UP;//??
  GPIO_Init(GPIOF, &GPIO_InitStructure);//???
  14:	f8df 8298 	ldr.w	r8, [pc, #664]	; 2b0 <FSMC_SRAM_Init()+0x2b0>
  GPIO_InitStructure.GPIO_Pin = (0X3F << 0) | GPIO_Pin_10;//PG0~5,10
  GPIO_InitStructure.GPIO_Mode = GPIO_Mode_AF;//????
  GPIO_InitStructure.GPIO_OType = GPIO_OType_PP;//????
  GPIO_InitStructure.GPIO_Speed = GPIO_Speed_100MHz;//100MHz
  GPIO_InitStructure.GPIO_PuPd = GPIO_PuPd_UP;//??
  GPIO_Init(GPIOG, &GPIO_InitStructure);//???
  18:	f8df 9298 	ldr.w	r9, [pc, #664]	; 2b4 <FSMC_SRAM_Init()+0x2b4>
  RCC_AHB3PeriphClockCmd(RCC_AHB3Periph_FSMC, ENABLE);//??FSMC??
  1c:	4608      	mov	r0, r1
  GPIO_InitStructure.GPIO_OType = GPIO_OType_PP;//????
  1e:	2400      	movs	r4, #0
  RCC_AHB3PeriphClockCmd(RCC_AHB3Periph_FSMC, ENABLE);//??FSMC??
  20:	f7ff fffe 	bl	0 <RCC_AHB3PeriphClockCmd>	20: R_ARM_THM_CALL	RCC_AHB3PeriphClockCmd
  GPIO_InitStructure.GPIO_Mode = GPIO_Mode_OUT;//??????
  24:	2701      	movs	r7, #1
  GPIO_InitStructure.GPIO_Speed = GPIO_Speed_50MHz;//100MHz
  26:	f04f 0a02 	mov.w	sl, #2
  GPIO_Init(GPIOB, &GPIO_InitStructure);//??? //PB15 ????,????
  2a:	4669      	mov	r1, sp
  GPIO_InitStructure.GPIO_Pin = GPIO_Pin_15;//PB15 ????,????
  2c:	f44f 4300 	mov.w	r3, #32768	; 0x8000
  GPIO_Init(GPIOB, &GPIO_InitStructure);//??? //PB15 ????,????
  30:	489e      	ldr	r0, [pc, #632]	; (2ac <FSMC_SRAM_Init()+0x2ac>)
  GPIO_InitStructure.GPIO_Pin = GPIO_Pin_15;//PB15 ????,????
  32:	9300      	str	r3, [sp, #0]
  GPIO_InitStructure.GPIO_Speed = GPIO_Speed_100MHz;//100MHz
  34:	f04f 0b03 	mov.w	fp, #3
  GPIO_InitStructure.GPIO_Mode = GPIO_Mode_OUT;//??????
  38:	f88d 7004 	strb.w	r7, [sp, #4]
  GPIO_InitStructure.GPIO_PuPd = GPIO_PuPd_UP;//??
  3c:	f88d 7007 	strb.w	r7, [sp, #7]
  GPIO_InitStructure.GPIO_OType = GPIO_OType_PP;//????
  40:	f88d 4006 	strb.w	r4, [sp, #6]
  GPIO_InitStructure.GPIO_Speed = GPIO_Speed_50MHz;//100MHz
  44:	f88d a005 	strb.w	sl, [sp, #5]
  GPIO_Init(GPIOB, &GPIO_InitStructure);//??? //PB15 ????,????
  48:	f7ff fffe 	bl	0 <GPIO_Init>	48: R_ARM_THM_CALL	GPIO_Init
  GPIO_Init(GPIOD, &GPIO_InitStructure);//???
  4c:	4669      	mov	r1, sp
  4e:	4628      	mov	r0, r5
  GPIO_InitStructure.GPIO_Pin = (3 << 0) | (3 << 4) | (0XFF << 8);//PD0,1,4,5,8~15 AF OUT
  50:	f64f 7333 	movw	r3, #65331	; 0xff33
  54:	9300      	str	r3, [sp, #0]
  GPIO_InitStructure.GPIO_Mode = GPIO_Mode_AF;//????
  56:	f88d a004 	strb.w	sl, [sp, #4]
  GPIO_InitStructure.GPIO_OType = GPIO_OType_PP;//????
  5a:	f88d 4006 	strb.w	r4, [sp, #6]
  GPIO_InitStructure.GPIO_PuPd = GPIO_PuPd_UP;//??
  5e:	f88d 7007 	strb.w	r7, [sp, #7]
  GPIO_InitStructure.GPIO_Speed = GPIO_Speed_100MHz;//100MHz
  62:	f88d b005 	strb.w	fp, [sp, #5]
  GPIO_Init(GPIOD, &GPIO_InitStructure);//???
  66:	f7ff fffe 	bl	0 <GPIO_Init>	66: R_ARM_THM_CALL	GPIO_Init
  GPIO_Init(GPIOE, &GPIO_InitStructure);//???
  6a:	4669      	mov	r1, sp
  6c:	4630      	mov	r0, r6
  GPIO_InitStructure.GPIO_Pin = (3 << 0) | (0X1FF << 7);//PE0,1,7~15,AF OUT
  6e:	f64f 7383 	movw	r3, #65411	; 0xff83
  72:	9300      	str	r3, [sp, #0]
  GPIO_InitStructure.GPIO_Mode = GPIO_Mode_AF;//????
  74:	f88d a004 	strb.w	sl, [sp, #4]
  GPIO_InitStructure.GPIO_OType = GPIO_OType_PP;//????
  78:	f88d 4006 	strb.w	r4, [sp, #6]
  GPIO_InitStructure.GPIO_Speed = GPIO_Speed_100MHz;//100MHz
  7c:	f88d b005 	strb.w	fp, [sp, #5]
  GPIO_InitStructure.GPIO_PuPd = GPIO_PuPd_UP;//??
  80:	f88d 7007 	strb.w	r7, [sp, #7]
  GPIO_Init(GPIOE, &GPIO_InitStructure);//???
  84:	f7ff fffe 	bl	0 <GPIO_Init>	84: R_ARM_THM_CALL	GPIO_Init
  GPIO_Init(GPIOF, &GPIO_InitStructure);//???
  88:	4669      	mov	r1, sp
  8a:	4640      	mov	r0, r8
  GPIO_InitStructure.GPIO_Pin = (0X3F << 0) | (0XF << 12);   //PF0~5,12~15
  8c:	f24f 033f 	movw	r3, #61503	; 0xf03f
  90:	9300      	str	r3, [sp, #0]
  GPIO_InitStructure.GPIO_Mode = GPIO_Mode_AF;//????
  92:	f88d a004 	strb.w	sl, [sp, #4]
  GPIO_InitStructure.GPIO_OType = GPIO_OType_PP;//????
  96:	f88d 4006 	strb.w	r4, [sp, #6]
  GPIO_InitStructure.GPIO_Speed = GPIO_Speed_100MHz;//100MHz
  9a:	f88d b005 	strb.w	fp, [sp, #5]
  GPIO_InitStructure.GPIO_PuPd = GPIO_PuPd_UP;//??
  9e:	f88d 7007 	strb.w	r7, [sp, #7]
  GPIO_Init(GPIOF, &GPIO_InitStructure);//???
  a2:	f7ff fffe 	bl	0 <GPIO_Init>	a2: R_ARM_THM_CALL	GPIO_Init
  GPIO_InitStructure.GPIO_Pin = (0X3F << 0) | GPIO_Pin_10;//PG0~5,10
  a6:	f240 433f 	movw	r3, #1087	; 0x43f
  GPIO_Init(GPIOG, &GPIO_InitStructure);//???
  aa:	4669      	mov	r1, sp
  ac:	4648      	mov	r0, r9
  GPIO_InitStructure.GPIO_Pin = (0X3F << 0) | GPIO_Pin_10;//PG0~5,10
  ae:	9300      	str	r3, [sp, #0]
  GPIO_InitStructure.GPIO_Mode = GPIO_Mode_AF;//????
  b0:	f88d a004 	strb.w	sl, [sp, #4]
  GPIO_InitStructure.GPIO_OType = GPIO_OType_PP;//????
  b4:	f88d 4006 	strb.w	r4, [sp, #6]
  GPIO_InitStructure.GPIO_Speed = GPIO_Speed_100MHz;//100MHz
  b8:	f88d b005 	strb.w	fp, [sp, #5]
  GPIO_InitStructure.GPIO_PuPd = GPIO_PuPd_UP;//??
  bc:	f88d 7007 	strb.w	r7, [sp, #7]
  GPIO_Init(GPIOG, &GPIO_InitStructure);//???
  c0:	f7ff fffe 	bl	0 <GPIO_Init>	c0: R_ARM_THM_CALL	GPIO_Init


  GPIO_PinAFConfig(GPIOD, GPIO_PinSource0, GPIO_AF_FSMC);//PD0,AF12
  c4:	4621      	mov	r1, r4
  c6:	4628      	mov	r0, r5
  c8:	220c      	movs	r2, #12
  ca:	f7ff fffe 	bl	0 <GPIO_PinAFConfig>	ca: R_ARM_THM_CALL	GPIO_PinAFConfig
  GPIO_PinAFConfig(GPIOD, GPIO_PinSource1, GPIO_AF_FSMC);//PD1,AF12
  ce:	4639      	mov	r1, r7
  d0:	4628      	mov	r0, r5
  d2:	220c      	movs	r2, #12
  d4:	f7ff fffe 	bl	0 <GPIO_PinAFConfig>	d4: R_ARM_THM_CALL	GPIO_PinAFConfig
  GPIO_PinAFConfig(GPIOD, GPIO_PinSource4, GPIO_AF_FSMC);
  d8:	4628      	mov	r0, r5
  da:	220c      	movs	r2, #12
  dc:	2104      	movs	r1, #4
  de:	f7ff fffe 	bl	0 <GPIO_PinAFConfig>	de: R_ARM_THM_CALL	GPIO_PinAFConfig
  GPIO_PinAFConfig(GPIOD, GPIO_PinSource5, GPIO_AF_FSMC);
  e2:	4628      	mov	r0, r5
  e4:	220c      	movs	r2, #12
  e6:	2105      	movs	r1, #5
  e8:	f7ff fffe 	bl	0 <GPIO_PinAFConfig>	e8: R_ARM_THM_CALL	GPIO_PinAFConfig
  GPIO_PinAFConfig(GPIOD, GPIO_PinSource8, GPIO_AF_FSMC);
  ec:	4628      	mov	r0, r5
  ee:	220c      	movs	r2, #12
  f0:	2108      	movs	r1, #8
  f2:	f7ff fffe 	bl	0 <GPIO_PinAFConfig>	f2: R_ARM_THM_CALL	GPIO_PinAFConfig
  GPIO_PinAFConfig(GPIOD, GPIO_PinSource9, GPIO_AF_FSMC);
  f6:	4628      	mov	r0, r5
  f8:	220c      	movs	r2, #12
  fa:	2109      	movs	r1, #9
  fc:	f7ff fffe 	bl	0 <GPIO_PinAFConfig>	fc: R_ARM_THM_CALL	GPIO_PinAFConfig
  GPIO_PinAFConfig(GPIOD, GPIO_PinSource10, GPIO_AF_FSMC);
 100:	4628      	mov	r0, r5
 102:	220c      	movs	r2, #12
 104:	210a      	movs	r1, #10
 106:	f7ff fffe 	bl	0 <GPIO_PinAFConfig>	106: R_ARM_THM_CALL	GPIO_PinAFConfig
  GPIO_PinAFConfig(GPIOD, GPIO_PinSource11, GPIO_AF_FSMC);
 10a:	4628      	mov	r0, r5
 10c:	220c      	movs	r2, #12
 10e:	210b      	movs	r1, #11
 110:	f7ff fffe 	bl	0 <GPIO_PinAFConfig>	110: R_ARM_THM_CALL	GPIO_PinAFConfig
  GPIO_PinAFConfig(GPIOD, GPIO_PinSource12, GPIO_AF_FSMC);
 114:	220c      	movs	r2, #12
 116:	4628      	mov	r0, r5
 118:	4611      	mov	r1, r2
 11a:	f7ff fffe 	bl	0 <GPIO_PinAFConfig>	11a: R_ARM_THM_CALL	GPIO_PinAFConfig
  GPIO_PinAFConfig(GPIOD, GPIO_PinSource13, GPIO_AF_FSMC);
 11e:	4628      	mov	r0, r5
 120:	220c      	movs	r2, #12
 122:	210d      	movs	r1, #13
 124:	f7ff fffe 	bl	0 <GPIO_PinAFConfig>	124: R_ARM_THM_CALL	GPIO_PinAFConfig
  GPIO_PinAFConfig(GPIOD, GPIO_PinSource14, GPIO_AF_FSMC);
 128:	4628      	mov	r0, r5
 12a:	220c      	movs	r2, #12
 12c:	210e      	movs	r1, #14
 12e:	f7ff fffe 	bl	0 <GPIO_PinAFConfig>	12e: R_ARM_THM_CALL	GPIO_PinAFConfig
  GPIO_PinAFConfig(GPIOD, GPIO_PinSource15, GPIO_AF_FSMC);//PD15,AF12
 132:	4628      	mov	r0, r5
 134:	220c      	movs	r2, #12
 136:	210f      	movs	r1, #15
 138:	f7ff fffe 	bl	0 <GPIO_PinAFConfig>	138: R_ARM_THM_CALL	GPIO_PinAFConfig

  GPIO_PinAFConfig(GPIOE, GPIO_PinSource0, GPIO_AF_FSMC);
 13c:	4621      	mov	r1, r4
 13e:	4630      	mov	r0, r6
 140:	220c      	movs	r2, #12
 142:	f7ff fffe 	bl	0 <GPIO_PinAFConfig>	142: R_ARM_THM_CALL	GPIO_PinAFConfig
  GPIO_PinAFConfig(GPIOE, GPIO_PinSource1, GPIO_AF_FSMC);
 146:	4639      	mov	r1, r7
 148:	4630      	mov	r0, r6
 14a:	220c      	movs	r2, #12
 14c:	f7ff fffe 	bl	0 <GPIO_PinAFConfig>	14c: R_ARM_THM_CALL	GPIO_PinAFConfig
  GPIO_PinAFConfig(GPIOE, GPIO_PinSource7, GPIO_AF_FSMC);//PE7,AF12
 150:	4630      	mov	r0, r6
 152:	220c      	movs	r2, #12
 154:	2107      	movs	r1, #7
 156:	f7ff fffe 	bl	0 <GPIO_PinAFConfig>	156: R_ARM_THM_CALL	GPIO_PinAFConfig
  GPIO_PinAFConfig(GPIOE, GPIO_PinSource8, GPIO_AF_FSMC);
 15a:	4630      	mov	r0, r6
 15c:	220c      	movs	r2, #12
 15e:	2108      	movs	r1, #8
 160:	f7ff fffe 	bl	0 <GPIO_PinAFConfig>	160: R_ARM_THM_CALL	GPIO_PinAFConfig
  GPIO_PinAFConfig(GPIOE, GPIO_PinSource9, GPIO_AF_FSMC);
 164:	4630      	mov	r0, r6
 166:	220c      	movs	r2, #12
 168:	2109      	movs	r1, #9
 16a:	f7ff fffe 	bl	0 <GPIO_PinAFConfig>	16a: R_ARM_THM_CALL	GPIO_PinAFConfig
  GPIO_PinAFConfig(GPIOE, GPIO_PinSource10, GPIO_AF_FSMC);
 16e:	4630      	mov	r0, r6
 170:	220c      	movs	r2, #12
 172:	210a      	movs	r1, #10
 174:	f7ff fffe 	bl	0 <GPIO_PinAFConfig>	174: R_ARM_THM_CALL	GPIO_PinAFConfig
  GPIO_PinAFConfig(GPIOE, GPIO_PinSource11, GPIO_AF_FSMC);
 178:	4630      	mov	r0, r6
 17a:	220c      	movs	r2, #12
 17c:	210b      	movs	r1, #11
 17e:	f7ff fffe 	bl	0 <GPIO_PinAFConfig>	17e: R_ARM_THM_CALL	GPIO_PinAFConfig
  GPIO_PinAFConfig(GPIOE, GPIO_PinSource12, GPIO_AF_FSMC);
 182:	220c      	movs	r2, #12
 184:	4630      	mov	r0, r6
 186:	4611      	mov	r1, r2
 188:	f7ff fffe 	bl	0 <GPIO_PinAFConfig>	188: R_ARM_THM_CALL	GPIO_PinAFConfig
  GPIO_PinAFConfig(GPIOE, GPIO_PinSource13, GPIO_AF_FSMC);
 18c:	4630      	mov	r0, r6
 18e:	220c      	movs	r2, #12
 190:	210d      	movs	r1, #13
 192:	f7ff fffe 	bl	0 <GPIO_PinAFConfig>	192: R_ARM_THM_CALL	GPIO_PinAFConfig
  GPIO_PinAFConfig(GPIOE, GPIO_PinSource14, GPIO_AF_FSMC);
 196:	4630      	mov	r0, r6
 198:	220c      	movs	r2, #12
 19a:	210e      	movs	r1, #14
 19c:	f7ff fffe 	bl	0 <GPIO_PinAFConfig>	19c: R_ARM_THM_CALL	GPIO_PinAFConfig
  GPIO_PinAFConfig(GPIOE, GPIO_PinSource15, GPIO_AF_FSMC);//PE15,AF12
 1a0:	4630      	mov	r0, r6
 1a2:	220c      	movs	r2, #12
 1a4:	210f      	movs	r1, #15
 1a6:	f7ff fffe 	bl	0 <GPIO_PinAFConfig>	1a6: R_ARM_THM_CALL	GPIO_PinAFConfig

  GPIO_PinAFConfig(GPIOF, GPIO_PinSource0, GPIO_AF_FSMC);//PF0,AF12
 1aa:	4621      	mov	r1, r4
 1ac:	4640      	mov	r0, r8
 1ae:	220c      	movs	r2, #12
 1b0:	f7ff fffe 	bl	0 <GPIO_PinAFConfig>	1b0: R_ARM_THM_CALL	GPIO_PinAFConfig
  GPIO_PinAFConfig(GPIOF, GPIO_PinSource1, GPIO_AF_FSMC);//PF1,AF12
 1b4:	4639      	mov	r1, r7
 1b6:	4640      	mov	r0, r8
 1b8:	220c      	movs	r2, #12
 1ba:	f7ff fffe 	bl	0 <GPIO_PinAFConfig>	1ba: R_ARM_THM_CALL	GPIO_PinAFConfig
  GPIO_PinAFConfig(GPIOF, GPIO_PinSource2, GPIO_AF_FSMC);//PF2,AF12
 1be:	4651      	mov	r1, sl
 1c0:	4640      	mov	r0, r8
 1c2:	220c      	movs	r2, #12
 1c4:	f7ff fffe 	bl	0 <GPIO_PinAFConfig>	1c4: R_ARM_THM_CALL	GPIO_PinAFConfig
  GPIO_PinAFConfig(GPIOF, GPIO_PinSource3, GPIO_AF_FSMC);//PF3,AF12
 1c8:	4659      	mov	r1, fp
 1ca:	4640      	mov	r0, r8
 1cc:	220c      	movs	r2, #12
 1ce:	f7ff fffe 	bl	0 <GPIO_PinAFConfig>	1ce: R_ARM_THM_CALL	GPIO_PinAFConfig
  GPIO_PinAFConfig(GPIOF, GPIO_PinSource4, GPIO_AF_FSMC);//PF4,AF12
 1d2:	4640      	mov	r0, r8
 1d4:	220c      	movs	r2, #12
 1d6:	2104      	movs	r1, #4
 1d8:	f7ff fffe 	bl	0 <GPIO_PinAFConfig>	1d8: R_ARM_THM_CALL	GPIO_PinAFConfig
  GPIO_PinAFConfig(GPIOF, GPIO_PinSource5, GPIO_AF_FSMC);//PF5,AF12
 1dc:	4640      	mov	r0, r8
 1de:	220c      	movs	r2, #12
 1e0:	2105      	movs	r1, #5
 1e2:	f7ff fffe 	bl	0 <GPIO_PinAFConfig>	1e2: R_ARM_THM_CALL	GPIO_PinAFConfig
  GPIO_PinAFConfig(GPIOF, GPIO_PinSource12, GPIO_AF_FSMC);//PF12,AF12
 1e6:	220c      	movs	r2, #12
 1e8:	4640      	mov	r0, r8
 1ea:	4611      	mov	r1, r2
 1ec:	f7ff fffe 	bl	0 <GPIO_PinAFConfig>	1ec: R_ARM_THM_CALL	GPIO_PinAFConfig
  GPIO_PinAFConfig(GPIOF, GPIO_PinSource13, GPIO_AF_FSMC);//PF13,AF12
 1f0:	4640      	mov	r0, r8
 1f2:	220c      	movs	r2, #12
 1f4:	210d      	movs	r1, #13
 1f6:	f7ff fffe 	bl	0 <GPIO_PinAFConfig>	1f6: R_ARM_THM_CALL	GPIO_PinAFConfig
  GPIO_PinAFConfig(GPIOF, GPIO_PinSource14, GPIO_AF_FSMC);//PF14,AF12
 1fa:	4640      	mov	r0, r8
 1fc:	220c      	movs	r2, #12
 1fe:	210e      	movs	r1, #14
 200:	f7ff fffe 	bl	0 <GPIO_PinAFConfig>	200: R_ARM_THM_CALL	GPIO_PinAFConfig
  GPIO_PinAFConfig(GPIOF, GPIO_PinSource15, GPIO_AF_FSMC);//PF15,AF12
 204:	4640      	mov	r0, r8
 206:	220c      	movs	r2, #12
 208:	210f      	movs	r1, #15
 20a:	f7ff fffe 	bl	0 <GPIO_PinAFConfig>	20a: R_ARM_THM_CALL	GPIO_PinAFConfig

  GPIO_PinAFConfig(GPIOG, GPIO_PinSource0, GPIO_AF_FSMC);
 20e:	4621      	mov	r1, r4
 210:	4648      	mov	r0, r9
 212:	220c      	movs	r2, #12
 214:	f7ff fffe 	bl	0 <GPIO_PinAFConfig>	214: R_ARM_THM_CALL	GPIO_PinAFConfig
  GPIO_PinAFConfig(GPIOG, GPIO_PinSource1, GPIO_AF_FSMC);
 218:	4639      	mov	r1, r7
 21a:	4648      	mov	r0, r9
 21c:	220c      	movs	r2, #12
 21e:	f7ff fffe 	bl	0 <GPIO_PinAFConfig>	21e: R_ARM_THM_CALL	GPIO_PinAFConfig
  GPIO_PinAFConfig(GPIOG, GPIO_PinSource2, GPIO_AF_FSMC);
 222:	4651      	mov	r1, sl
 224:	4648      	mov	r0, r9
 226:	220c      	movs	r2, #12
 228:	f7ff fffe 	bl	0 <GPIO_PinAFConfig>	228: R_ARM_THM_CALL	GPIO_PinAFConfig
  GPIO_PinAFConfig(GPIOG, GPIO_PinSource3, GPIO_AF_FSMC);
 22c:	4659      	mov	r1, fp
 22e:	4648      	mov	r0, r9
 230:	220c      	movs	r2, #12
 232:	f7ff fffe 	bl	0 <GPIO_PinAFConfig>	232: R_ARM_THM_CALL	GPIO_PinAFConfig
  GPIO_PinAFConfig(GPIOG, GPIO_PinSource4, GPIO_AF_FSMC);
 236:	4648      	mov	r0, r9
 238:	220c      	movs	r2, #12
 23a:	2104      	movs	r1, #4
 23c:	f7ff fffe 	bl	0 <GPIO_PinAFConfig>	23c: R_ARM_THM_CALL	GPIO_PinAFConfig
  GPIO_PinAFConfig(GPIOG, GPIO_PinSource5, GPIO_AF_FSMC);
 240:	4648      	mov	r0, r9
 242:	220c      	movs	r2, #12
 244:	2105      	movs	r1, #5
 246:	f7ff fffe 	bl	0 <GPIO_PinAFConfig>	246: R_ARM_THM_CALL	GPIO_PinAFConfig
  GPIO_PinAFConfig(GPIOG, GPIO_PinSource10, GPIO_AF_FSMC);


  readWriteTiming.FSMC_AddressSetupTime = 0x00;   //??????(ADDSET)?1?HCLK 1/36M=27ns
  readWriteTiming.FSMC_AddressHoldTime = 0x00;   //??????(ADDHLD)??A???
  readWriteTiming.FSMC_DataSetupTime = 0x08;     ////??????(DATAST)?9?HCLK 6*9=54ns
 24a:	2608      	movs	r6, #8
  GPIO_PinAFConfig(GPIOG, GPIO_PinSource10, GPIO_AF_FSMC);
 24c:	4648      	mov	r0, r9
 24e:	220c      	movs	r2, #12
 250:	210a      	movs	r1, #10
 252:	f7ff fffe 	bl	0 <GPIO_PinAFConfig>	252: R_ARM_THM_CALL	GPIO_PinAFConfig
  readWriteTiming.FSMC_DataLatency = 0x00;
  readWriteTiming.FSMC_AccessMode = FSMC_AccessMode_A;   //??A



  FSMC_NORSRAMInitStructure.FSMC_Bank = FSMC_Bank1_NORSRAM3;//  ??????NE3 ,????BTCR[4],[5]?
 256:	2504      	movs	r5, #4
  FSMC_NORSRAMInitStructure.FSMC_BurstAccessMode = FSMC_BurstAccessMode_Disable;// FSMC_BurstAccessMode_Disable;
  FSMC_NORSRAMInitStructure.FSMC_WaitSignalPolarity = FSMC_WaitSignalPolarity_Low;
  FSMC_NORSRAMInitStructure.FSMC_AsynchronousWait = FSMC_AsynchronousWait_Disable;
  FSMC_NORSRAMInitStructure.FSMC_WrapMode = FSMC_WrapMode_Disable;
  FSMC_NORSRAMInitStructure.FSMC_WaitSignalActive = FSMC_WaitSignalActive_BeforeWaitState;
  FSMC_NORSRAMInitStructure.FSMC_WriteOperation = FSMC_WriteOperation_Enable;  //??????
 258:	f44f 5280 	mov.w	r2, #4096	; 0x1000
  FSMC_NORSRAMInitStructure.FSMC_WaitSignal = FSMC_WaitSignal_Disable;
  FSMC_NORSRAMInitStructure.FSMC_ExtendedMode = FSMC_ExtendedMode_Disable; // ?????????
  FSMC_NORSRAMInitStructure.FSMC_WriteBurst = FSMC_WriteBurst_Disable;
  FSMC_NORSRAMInitStructure.FSMC_ReadWriteTimingStruct = &readWriteTiming;
 25c:	eb0d 0306 	add.w	r3, sp, r6
  FSMC_NORSRAMInitStructure.FSMC_MemoryDataWidth = FSMC_MemoryDataWidth_16b;//????????16bit
 260:	2110      	movs	r1, #16
  FSMC_NORSRAMInitStructure.FSMC_WriteTimingStruct = &readWriteTiming; //??????

  FSMC_NORSRAMInit(&FSMC_NORSRAMInitStructure);  //???FSMC??
 262:	a809      	add	r0, sp, #36	; 0x24
  FSMC_NORSRAMInitStructure.FSMC_MemoryDataWidth = FSMC_MemoryDataWidth_16b;//????????16bit
 264:	910c      	str	r1, [sp, #48]	; 0x30
  FSMC_NORSRAMInitStructure.FSMC_WriteOperation = FSMC_WriteOperation_Enable;  //??????
 266:	9212      	str	r2, [sp, #72]	; 0x48
  FSMC_NORSRAMInitStructure.FSMC_WriteTimingStruct = &readWriteTiming; //??????
 268:	e9cd 3316 	strd	r3, r3, [sp, #88]	; 0x58
  readWriteTiming.FSMC_AddressHoldTime = 0x00;   //??????(ADDHLD)??A???
 26c:	e9cd 4402 	strd	r4, r4, [sp, #8]
  readWriteTiming.FSMC_CLKDivision = 0x00;
 270:	e9cd 4405 	strd	r4, r4, [sp, #20]
  readWriteTiming.FSMC_AccessMode = FSMC_AccessMode_A;   //??A
 274:	e9cd 4407 	strd	r4, r4, [sp, #28]
  FSMC_NORSRAMInitStructure.FSMC_MemoryType = FSMC_MemoryType_SRAM;// FSMC_MemoryType_SRAM;  //SRAM
 278:	e9cd 440a 	strd	r4, r4, [sp, #40]	; 0x28
  FSMC_NORSRAMInitStructure.FSMC_BurstAccessMode = FSMC_BurstAccessMode_Disable;// FSMC_BurstAccessMode_Disable;
 27c:	940d      	str	r4, [sp, #52]	; 0x34
  FSMC_NORSRAMInitStructure.FSMC_AsynchronousWait = FSMC_AsynchronousWait_Disable;
 27e:	e9cd 440e 	strd	r4, r4, [sp, #56]	; 0x38
  FSMC_NORSRAMInitStructure.FSMC_WaitSignalActive = FSMC_WaitSignalActive_BeforeWaitState;
 282:	e9cd 4410 	strd	r4, r4, [sp, #64]	; 0x40
  FSMC_NORSRAMInitStructure.FSMC_ExtendedMode = FSMC_ExtendedMode_Disable; // ?????????
 286:	e9cd 4413 	strd	r4, r4, [sp, #76]	; 0x4c
  FSMC_NORSRAMInitStructure.FSMC_WriteBurst = FSMC_WriteBurst_Disable;
 28a:	9415      	str	r4, [sp, #84]	; 0x54
  readWriteTiming.FSMC_DataSetupTime = 0x08;     ////??????(DATAST)?9?HCLK 6*9=54ns
 28c:	9604      	str	r6, [sp, #16]
  FSMC_NORSRAMInitStructure.FSMC_Bank = FSMC_Bank1_NORSRAM3;//  ??????NE3 ,????BTCR[4],[5]?
 28e:	9509      	str	r5, [sp, #36]	; 0x24
  FSMC_NORSRAMInit(&FSMC_NORSRAMInitStructure);  //???FSMC??
 290:	f7ff fffe 	bl	0 <FSMC_NORSRAMInit>	290: R_ARM_THM_CALL	FSMC_NORSRAMInit

  FSMC_NORSRAMCmd(FSMC_Bank1_NORSRAM3, ENABLE);  // ??BANK3
 294:	4639      	mov	r1, r7
 296:	4628      	mov	r0, r5
 298:	f7ff fffe 	bl	0 <FSMC_NORSRAMCmd>	298: R_ARM_THM_CALL	FSMC_NORSRAMCmd
}
 29c:	b019      	add	sp, #100	; 0x64
 29e:	e8bd 8ff0 	ldmia.w	sp!, {r4, r5, r6, r7, r8, r9, sl, fp, pc}
 2a2:	bf00      	nop
 2a4:	40020c00 	.word	0x40020c00
 2a8:	40021000 	.word	0x40021000
 2ac:	40020400 	.word	0x40020400
 2b0:	40021400 	.word	0x40021400
 2b4:	40021800 	.word	0x40021800

Disassembly of section .text._Z16MAIN_vTick10msLpv:

00000000 <MAIN_vTick10msLp()>:


void MAIN_vTick10msLp(void)
{
  //mcI2C1->vStartNext();
}
   0:	4770      	bx	lr
   2:	bf00      	nop

Disassembly of section .text._Z18MAIN_vTick1000msLpv:

00000000 <MAIN_vTick1000msLp()>:
    this->Port()->BSRRH = PinBitMask();
  }

  inline void vToggle(void)
  {
    this->Port()->ODR ^= PinBitMask();
   0:	4904      	ldr	r1, [pc, #16]	; (14 <MAIN_vTick1000msLp()+0x14>)

void MAIN_vTick1000msLp(void)
{
  static uint8 lui8t = 0;
  mcLedRed.Toggle();
  lui8t++;
   2:	4a05      	ldr	r2, [pc, #20]	; (18 <MAIN_vTick1000msLp()+0x18>)
   4:	694b      	ldr	r3, [r1, #20]
   6:	f483 7300 	eor.w	r3, r3, #512	; 0x200
   a:	614b      	str	r3, [r1, #20]
   c:	7813      	ldrb	r3, [r2, #0]
   e:	3301      	adds	r3, #1
  10:	7013      	strb	r3, [r2, #0]
}
  12:	4770      	bx	lr
  14:	40021400 	.word	0x40021400
  18:	00000000 	.word	0x00000000	18: R_ARM_ABS32	.bss._ZZ18MAIN_vTick1000msLpvE5lui8t

Disassembly of section .text._Z16MAIN_vInitSystemv:

00000000 <MAIN_vInitSystem()>:
#ifdef _WIN32
void MAIN_vInitSystem(HWND hWnd)
#else
void MAIN_vInitSystem(void)
#endif
{
   0:	b508      	push	{r3, lr}

  #ifdef _WIN32
    mpcDisplay1 = new cWin32Display(0, 0,                        DISPLAY_X, DISPLAY_Y, mui8Zoom, hWnd);
  #else
    // Construct function
    SystemInit();
   2:	f7ff fffe 	bl	0 <SystemInit>	2: R_ARM_THM_CALL	SystemInit
    Update();
  };

  static void Update()
  {
    RCC_GetClocksFreq(&mstClocks);
   6:	4804      	ldr	r0, [pc, #16]	; (14 <RCC_GetClocksFreq+0x14>)
   8:	f7ff fffe 	bl	0 <RCC_GetClocksFreq>	8: R_ARM_THM_CALL	RCC_GetClocksFreq

    mcClkInfo.Update();

    FSMC_SRAM_Init();
   c:	f7ff fffe 	bl	0 <MAIN_vInitSystem()>	c: R_ARM_THM_CALL	FSMC_SRAM_Init()
                  MAIN_vTick10msLp   /*10ms_LP*/,
                  NULL               /*100ms_LP*/,
                  MAIN_vTick1000msLp /*1s_LP*/);
  #endif
  #endif
}
  10:	e8bd 4008 	ldmia.w	sp!, {r3, lr}
    ILI9341_Init();
  14:	f7ff bffe 	b.w	0 <ILI9341_Init>	14: R_ARM_THM_JUMP24	ILI9341_Init
  18:	00000000 	.word	0x00000000	18: R_ARM_ABS32	cClockInfo::mstClocks

Disassembly of section .text._ZN9cStrBaseTItE4SetfEPKcz:

00000000 <cStrBaseT<unsigned short>::Setf(char const*, ...)>:
     *  \section history History
     *  \since 17.11.2011
     *  - Erstellt
     */
     /****************************************************************************************/
    cStrBaseT& Setf(const char8* lpszfStr, ...)
   0:	b40e      	push	{r1, r2, r3}
   2:	e92d 4ff0 	stmdb	sp!, {r4, r5, r6, r7, r8, r9, sl, fp, lr}
   6:	b090      	sub	sp, #64	; 0x40
   8:	ab19      	add	r3, sp, #100	; 0x64
   a:	4681      	mov	r9, r0
   c:	f853 8b04 	ldr.w	r8, [r3], #4
      char8  lszValue[16];

      char8  lc8Zeichen;

      va_list lParList;
      va_start(lParList, lpszfStr);
  10:	930b      	str	r3, [sp, #44]	; 0x2c
        cbArrayExtT<tyCStrT>::muiLen = 0;
  12:	2300      	movs	r3, #0
  14:	7183      	strb	r3, [r0, #6]
  16:	71c3      	strb	r3, [r0, #7]
          *this += lc8Zeichen;
          continue;
        }

        /* Get an argument and put it in numeral */
        if (lui8Flags & 4)       lui64Value = va_arg(lParList, long);
  18:	9309      	str	r3, [sp, #36]	; 0x24
        lc8Zeichen = *lpszfStr++;       /* Get a char */
  1a:	f998 3000 	ldrsb.w	r3, [r8]
  1e:	f108 0201 	add.w	r2, r8, #1
        if (!lc8Zeichen) break;         /* End of format? */
  22:	b1b3      	cbz	r3, 52 <cStrBaseT<unsigned short>::Setf(char const*, ...)+0x52>
        if (lc8Zeichen != '%')
  24:	2b25      	cmp	r3, #37	; 0x25
  26:	d01a      	beq.n	5e <cStrBaseT<unsigned short>::Setf(char const*, ...)+0x5e>

    cbArrayExtT& Add(uint8 lui8Byte)
    {
      tyArrayExtIdxT luiFreeByteCnt;

      luiFreeByteCnt = cbArrayT<tyArrayExtIdxT>::muiSize - muiLen;
  28:	f8b9 1006 	ldrh.w	r1, [r9, #6]

      if (luiFreeByteCnt)
  2c:	f8b9 0000 	ldrh.w	r0, [r9]
  30:	4288      	cmp	r0, r1
  32:	d066      	beq.n	102 <cStrBaseT<unsigned short>::Setf(char const*, ...)+0x102>
      {
        cbArrayT<tyArrayExtIdxT>::mpu8Data[muiLen] = lui8Byte;
  34:	f8d9 0002 	ldr.w	r0, [r9, #2]
  38:	5443      	strb	r3, [r0, r1]
        muiLen++;
  3a:	f8b9 3006 	ldrh.w	r3, [r9, #6]
        lc8Zeichen = *lpszfStr++;       /* Get a char */
  3e:	4690      	mov	r8, r2
  40:	3301      	adds	r3, #1
  42:	f8a9 3006 	strh.w	r3, [r9, #6]
  46:	f998 3000 	ldrsb.w	r3, [r8]
  4a:	f108 0201 	add.w	r2, r8, #1
        if (!lc8Zeichen) break;         /* End of format? */
  4e:	2b00      	cmp	r3, #0
  50:	d1e8      	bne.n	24 <cStrBaseT<unsigned short>::Setf(char const*, ...)+0x24>

        while (li8Pos++ < li16Width) *this += ' ';
      }

      return *this;
    };
  52:	4648      	mov	r0, r9
  54:	b010      	add	sp, #64	; 0x40
  56:	e8bd 4ff0 	ldmia.w	sp!, {r4, r5, r6, r7, r8, r9, sl, fp, lr}
  5a:	b003      	add	sp, #12
  5c:	4770      	bx	lr
        lc8Zeichen = *lpszfStr++;          /* Get first char of the sequense */
  5e:	f998 6001 	ldrsb.w	r6, [r8, #1]
        if (lc8Zeichen == '0')
  62:	2e30      	cmp	r6, #48	; 0x30
  64:	d04f      	beq.n	106 <cStrBaseT<unsigned short>::Setf(char const*, ...)+0x106>
          if (lc8Zeichen == '-')
  66:	2e2d      	cmp	r6, #45	; 0x2d
  68:	d054      	beq.n	114 <cStrBaseT<unsigned short>::Setf(char const*, ...)+0x114>
        lui8Flags = 0;
  6a:	2300      	movs	r3, #0
        lc8Zeichen = *lpszfStr++;          /* Get first char of the sequense */
  6c:	f108 0802 	add.w	r8, r8, #2
        lui8Flags = 0;
  70:	9301      	str	r3, [sp, #4]
        for (li16Width = 0; (lc8Zeichen >= '0') && (lc8Zeichen <= '9'); lc8Zeichen = *lpszfStr++)
  72:	f1a6 0330 	sub.w	r3, r6, #48	; 0x30
  76:	b2da      	uxtb	r2, r3
  78:	2a09      	cmp	r2, #9
  7a:	f04f 0400 	mov.w	r4, #0
  7e:	d80b      	bhi.n	98 <cStrBaseT<unsigned short>::Setf(char const*, ...)+0x98>
  80:	f918 6b01 	ldrsb.w	r6, [r8], #1
          li16Width = li16Width * 10 + lc8Zeichen - '0';
  84:	eb04 0484 	add.w	r4, r4, r4, lsl #2
  88:	eb03 0444 	add.w	r4, r3, r4, lsl #1
        for (li16Width = 0; (lc8Zeichen >= '0') && (lc8Zeichen <= '9'); lc8Zeichen = *lpszfStr++)
  8c:	f1a6 0330 	sub.w	r3, r6, #48	; 0x30
  90:	b2da      	uxtb	r2, r3
  92:	2a09      	cmp	r2, #9
          li16Width = li16Width * 10 + lc8Zeichen - '0';
  94:	b224      	sxth	r4, r4
        for (li16Width = 0; (lc8Zeichen >= '0') && (lc8Zeichen <= '9'); lc8Zeichen = *lpszfStr++)
  96:	d9f3      	bls.n	80 <cStrBaseT<unsigned short>::Setf(char const*, ...)+0x80>
        if (lc8Zeichen == 'l' || lc8Zeichen == 'L')
  98:	f026 0320 	bic.w	r3, r6, #32
  9c:	2b4c      	cmp	r3, #76	; 0x4c
  9e:	d027      	beq.n	f0 <cStrBaseT<unsigned short>::Setf(char const*, ...)+0xf0>
        if (!lc8Zeichen) break;
  a0:	2e00      	cmp	r6, #0
  a2:	d0d6      	beq.n	52 <cStrBaseT<unsigned short>::Setf(char const*, ...)+0x52>
        if (li8Spec >= 'a') li8Spec -= 0x20;
  a4:	2e60      	cmp	r6, #96	; 0x60
  a6:	bfc6      	itte	gt
  a8:	f1a6 0220 	subgt.w	r2, r6, #32
  ac:	b252      	sxtbgt	r2, r2
  ae:	4632      	movle	r2, r6
        switch (li8Spec)
  b0:	f1a2 0342 	sub.w	r3, r2, #66	; 0x42
  b4:	f8b9 7000 	ldrh.w	r7, [r9]
  b8:	2b16      	cmp	r3, #22
  ba:	f200 8157 	bhi.w	36c <cStrBaseT<unsigned short>::Setf(char const*, ...)+0x36c>
  be:	e8df f013 	tbh	[pc, r3, lsl #1]
  c2:	00ed      	.short	0x00ed
  c4:	00d600db 	.word	0x00d600db
  c8:	01550155 	.word	0x01550155
  cc:	01550155 	.word	0x01550155
  d0:	01550155 	.word	0x01550155
  d4:	01550155 	.word	0x01550155
  d8:	01550155 	.word	0x01550155
  dc:	01550030 	.word	0x01550030
  e0:	01550155 	.word	0x01550155
  e4:	01550111 	.word	0x01550111
  e8:	015500d6 	.word	0x015500d6
  ec:	01000155 	.word	0x01000155
          lui8Flags |= 4; lc8Zeichen = *lpszfStr++;
  f0:	9b01      	ldr	r3, [sp, #4]
  f2:	f998 6000 	ldrsb.w	r6, [r8]
  f6:	f043 0304 	orr.w	r3, r3, #4
  fa:	9301      	str	r3, [sp, #4]
  fc:	f108 0801 	add.w	r8, r8, #1
 100:	e7ce      	b.n	a0 <cStrBaseT<unsigned short>::Setf(char const*, ...)+0xa0>
        lc8Zeichen = *lpszfStr++;       /* Get a char */
 102:	4690      	mov	r8, r2
 104:	e789      	b.n	1a <cStrBaseT<unsigned short>::Setf(char const*, ...)+0x1a>
          lui8Flags = 1; lc8Zeichen = *lpszfStr++;
 106:	2301      	movs	r3, #1
 108:	f998 6002 	ldrsb.w	r6, [r8, #2]
 10c:	9301      	str	r3, [sp, #4]
 10e:	f108 0803 	add.w	r8, r8, #3
 112:	e7ae      	b.n	72 <cStrBaseT<unsigned short>::Setf(char const*, ...)+0x72>
            lui8Flags = 2; lc8Zeichen = *lpszfStr++;
 114:	2302      	movs	r3, #2
 116:	f998 6002 	ldrsb.w	r6, [r8, #2]
 11a:	9301      	str	r3, [sp, #4]
 11c:	f108 0803 	add.w	r8, r8, #3
 120:	e7a7      	b.n	72 <cStrBaseT<unsigned short>::Setf(char const*, ...)+0x72>
        switch (li8Spec)
 122:	2008      	movs	r0, #8
 124:	2100      	movs	r1, #0
 126:	e9cd 0106 	strd	r0, r1, [sp, #24]
 12a:	9b0b      	ldr	r3, [sp, #44]	; 0x2c
        if (lui8Flags & 4)       lui64Value = va_arg(lParList, long);
 12c:	9801      	ldr	r0, [sp, #4]
 12e:	6819      	ldr	r1, [r3, #0]
 130:	0740      	lsls	r0, r0, #29
 132:	468a      	mov	sl, r1
 134:	ea4f 7be1 	mov.w	fp, r1, asr #31
 138:	f103 0304 	add.w	r3, r3, #4
 13c:	e9cd ab02 	strd	sl, fp, [sp, #8]
 140:	f140 8147 	bpl.w	3d2 <cStrBaseT<unsigned short>::Setf(char const*, ...)+0x3d2>
        if (li8Spec == 'D' && (lui64Value & 0x80000000))
 144:	2a44      	cmp	r2, #68	; 0x44
        if (lui8Flags & 4)       lui64Value = va_arg(lParList, long);
 146:	930b      	str	r3, [sp, #44]	; 0x2c
        if (li8Spec == 'D' && (lui64Value & 0x80000000))
 148:	f040 812b 	bne.w	3a2 <cStrBaseT<unsigned short>::Setf(char const*, ...)+0x3a2>
 14c:	2900      	cmp	r1, #0
 14e:	f280 8128 	bge.w	3a2 <cStrBaseT<unsigned short>::Setf(char const*, ...)+0x3a2>
          lui64Value = 0 - lui64Value;
 152:	e9dd 2302 	ldrd	r2, r3, [sp, #8]
 156:	4252      	negs	r2, r2
 158:	eb63 0343 	sbc.w	r3, r3, r3, lsl #1
 15c:	e9cd 2302 	strd	r2, r3, [sp, #8]
          lui8Flags |= 8;
 160:	9b01      	ldr	r3, [sp, #4]
 162:	f043 0308 	orr.w	r3, r3, #8
 166:	9301      	str	r3, [sp, #4]
 168:	2308      	movs	r3, #8
 16a:	9308      	str	r3, [sp, #32]
 16c:	f10d 0b30 	add.w	fp, sp, #48	; 0x30
        li8Idx = 0;
 170:	9404      	str	r4, [sp, #16]
 172:	f8cd 8014 	str.w	r8, [sp, #20]
 176:	e9dd 3402 	ldrd	r3, r4, [sp, #8]
        if (lui8Flags & 4)       lui64Value = va_arg(lParList, long);
 17a:	46da      	mov	sl, fp
        li8Idx = 0;
 17c:	f8cd 9008 	str.w	r9, [sp, #8]
 180:	2500      	movs	r5, #0
 182:	e9dd 8906 	ldrd	r8, r9, [sp, #24]
 186:	e002      	b.n	18e <cStrBaseT<unsigned short>::Setf(char const*, ...)+0x18e>
        } while (lui64Value && (li8Idx < (i8)sizeof(lszValue)));
 188:	2a10      	cmp	r2, #16
 18a:	f000 80fd 	beq.w	388 <cStrBaseT<unsigned short>::Setf(char const*, ...)+0x388>
 18e:	4618      	mov	r0, r3
 190:	4621      	mov	r1, r4
 192:	4642      	mov	r2, r8
 194:	464b      	mov	r3, r9
 196:	f7ff fffe 	bl	0 <__aeabi_uldivmod>	196: R_ARM_THM_CALL	__aeabi_uldivmod
          li8Spec = (char)(lui64Value % lui8Radix);
 19a:	fa4f fe82 	sxtb.w	lr, r2
          if (li8Spec > 9)
 19e:	f1be 0f09 	cmp.w	lr, #9
          lui64Value /= lui8Radix;
 1a2:	4603      	mov	r3, r0
 1a4:	460c      	mov	r4, r1
 1a6:	b2d2      	uxtb	r2, r2
          if (li8Spec > 9)
 1a8:	dd05      	ble.n	1b6 <cStrBaseT<unsigned short>::Setf(char const*, ...)+0x1b6>
            if (lc8Zeichen == 'x')
 1aa:	2e78      	cmp	r6, #120	; 0x78
              li8Spec += 0x27;
 1ac:	bf0c      	ite	eq
 1ae:	3227      	addeq	r2, #39	; 0x27
              li8Spec += 0x07;
 1b0:	3207      	addne	r2, #7
 1b2:	fa4f fe82 	sxtb.w	lr, r2
          lszValue[li8Idx++] = li8Spec + '0';
 1b6:	fa5f fc85 	uxtb.w	ip, r5
 1ba:	f10c 0201 	add.w	r2, ip, #1
 1be:	f10e 0e30 	add.w	lr, lr, #48	; 0x30
 1c2:	b2d2      	uxtb	r2, r2
        } while (lui64Value && (li8Idx < (i8)sizeof(lszValue)));
 1c4:	4301      	orrs	r1, r0
          lszValue[li8Idx++] = li8Spec + '0';
 1c6:	f80a eb01 	strb.w	lr, [sl], #1
 1ca:	b255      	sxtb	r5, r2
        } while (lui64Value && (li8Idx < (i8)sizeof(lszValue)));
 1cc:	d1dc      	bne.n	188 <cStrBaseT<unsigned short>::Setf(char const*, ...)+0x188>
 1ce:	9c04      	ldr	r4, [sp, #16]
 1d0:	f8dd 9008 	ldr.w	r9, [sp, #8]
 1d4:	f8dd 8014 	ldr.w	r8, [sp, #20]
 1d8:	462b      	mov	r3, r5
        if (lui8Flags & 8)
 1da:	9a08      	ldr	r2, [sp, #32]
 1dc:	b14a      	cbz	r2, 1f2 <cStrBaseT<unsigned short>::Setf(char const*, ...)+0x1f2>
          lszValue[li8Idx++] = '-';
 1de:	aa10      	add	r2, sp, #64	; 0x40
 1e0:	441a      	add	r2, r3
 1e2:	f10c 0c02 	add.w	ip, ip, #2
 1e6:	fa5f f38c 	uxtb.w	r3, ip
 1ea:	212d      	movs	r1, #45	; 0x2d
 1ec:	f802 1c10 	strb.w	r1, [r2, #-16]
 1f0:	b25d      	sxtb	r5, r3
        lszValue[li8Idx] = 0;
 1f2:	aa10      	add	r2, sp, #64	; 0x40
 1f4:	4413      	add	r3, r2
          lc8Zeichen = '0';
 1f6:	9a01      	ldr	r2, [sp, #4]
        lszValue[li8Idx] = 0;
 1f8:	9909      	ldr	r1, [sp, #36]	; 0x24
 1fa:	f803 1c10 	strb.w	r1, [r3, #-16]
          lc8Zeichen = '0';
 1fe:	f012 0f01 	tst.w	r2, #1
 202:	bf0c      	ite	eq
 204:	2020      	moveq	r0, #32
 206:	2030      	movne	r0, #48	; 0x30
        if (!(lui8Flags & 2))
 208:	0796      	lsls	r6, r2, #30
 20a:	f8b9 3006 	ldrh.w	r3, [r9, #6]
 20e:	f140 80cb 	bpl.w	3a8 <cStrBaseT<unsigned short>::Setf(char const*, ...)+0x3a8>
        li8Pos = li8Idx;
 212:	462a      	mov	r2, r5
 214:	3d01      	subs	r5, #1
 216:	fa5b f585 	uxtab	r5, fp, r5
 21a:	e004      	b.n	226 <cStrBaseT<unsigned short>::Setf(char const*, ...)+0x226>
 21c:	f8b9 7000 	ldrh.w	r7, [r9]
 220:	f8b9 3006 	ldrh.w	r3, [r9, #6]
 224:	3d01      	subs	r5, #1
      if (luiFreeByteCnt)
 226:	429f      	cmp	r7, r3
 228:	d008      	beq.n	23c <cStrBaseT<unsigned short>::Setf(char const*, ...)+0x23c>
        cbArrayT<tyArrayExtIdxT>::mpu8Data[muiLen] = lui8Byte;
 22a:	f8d9 1002 	ldr.w	r1, [r9, #2]
 22e:	7828      	ldrb	r0, [r5, #0]
 230:	54c8      	strb	r0, [r1, r3]
        muiLen++;
 232:	f8b9 3006 	ldrh.w	r3, [r9, #6]
 236:	3301      	adds	r3, #1
 238:	f8a9 3006 	strh.w	r3, [r9, #6]
        do
 23c:	45ab      	cmp	fp, r5
 23e:	d1ed      	bne.n	21c <cStrBaseT<unsigned short>::Setf(char const*, ...)+0x21c>
 240:	1c53      	adds	r3, r2, #1
        while (li8Pos++ < li16Width) *this += ' ';
 242:	42a2      	cmp	r2, r4
 244:	b25b      	sxtb	r3, r3
 246:	f6bf aee8 	bge.w	1a <cStrBaseT<unsigned short>::Setf(char const*, ...)+0x1a>
      luiFreeByteCnt = cbArrayT<tyArrayExtIdxT>::muiSize - muiLen;
 24a:	f8b9 2006 	ldrh.w	r2, [r9, #6]
      if (luiFreeByteCnt)
 24e:	f8b9 1000 	ldrh.w	r1, [r9]
 252:	4291      	cmp	r1, r2
 254:	d009      	beq.n	26a <cStrBaseT<unsigned short>::Setf(char const*, ...)+0x26a>
        cbArrayT<tyArrayExtIdxT>::mpu8Data[muiLen] = lui8Byte;
 256:	f8d9 1002 	ldr.w	r1, [r9, #2]
 25a:	f04f 0020 	mov.w	r0, #32
 25e:	5488      	strb	r0, [r1, r2]
        muiLen++;
 260:	f8b9 2006 	ldrh.w	r2, [r9, #6]
 264:	3201      	adds	r2, #1
 266:	f8a9 2006 	strh.w	r2, [r9, #6]
        li8Pos = li8Idx;
 26a:	461a      	mov	r2, r3
 26c:	e7e8      	b.n	240 <cStrBaseT<unsigned short>::Setf(char const*, ...)+0x240>
        switch (li8Spec)
 26e:	200a      	movs	r0, #10
 270:	2100      	movs	r1, #0
 272:	e9cd 0106 	strd	r0, r1, [sp, #24]
 276:	e758      	b.n	12a <cStrBaseT<unsigned short>::Setf(char const*, ...)+0x12a>
          lc8Zeichen = (int8)va_arg(lParList, int);
 278:	9a0b      	ldr	r2, [sp, #44]	; 0x2c
      luiFreeByteCnt = cbArrayT<tyArrayExtIdxT>::muiSize - muiLen;
 27a:	f8b9 3006 	ldrh.w	r3, [r9, #6]
 27e:	1d11      	adds	r1, r2, #4
      if (luiFreeByteCnt)
 280:	42bb      	cmp	r3, r7
 282:	910b      	str	r1, [sp, #44]	; 0x2c
 284:	f43f aec9 	beq.w	1a <cStrBaseT<unsigned short>::Setf(char const*, ...)+0x1a>
        cbArrayT<tyArrayExtIdxT>::mpu8Data[muiLen] = lui8Byte;
 288:	f8d9 1002 	ldr.w	r1, [r9, #2]
     *  - Erstellt
     */
     /****************************************************************************************/
    cStrBaseT& Add(char8 li8Char)
    {
      cbArrayExtT<tyCStrT>::Add(li8Char);
 28c:	6812      	ldr	r2, [r2, #0]
 28e:	54ca      	strb	r2, [r1, r3]
        muiLen++;
 290:	f8b9 3006 	ldrh.w	r3, [r9, #6]
 294:	3301      	adds	r3, #1
 296:	f8a9 3006 	strh.w	r3, [r9, #6]
 29a:	e6be      	b.n	1a <cStrBaseT<unsigned short>::Setf(char const*, ...)+0x1a>
 29c:	9b0b      	ldr	r3, [sp, #44]	; 0x2c
 29e:	6818      	ldr	r0, [r3, #0]
 2a0:	4601      	mov	r1, r0
 2a2:	17c2      	asrs	r2, r0, #31
 2a4:	e9cd 1202 	strd	r1, r2, [sp, #8]
        if (lui8Flags & 4)       lui64Value = va_arg(lParList, long);
 2a8:	9a01      	ldr	r2, [sp, #4]
 2aa:	0751      	lsls	r1, r2, #29
 2ac:	f103 0304 	add.w	r3, r3, #4
 2b0:	d472      	bmi.n	398 <cStrBaseT<unsigned short>::Setf(char const*, ...)+0x398>
 2b2:	2102      	movs	r1, #2
 2b4:	2200      	movs	r2, #0
 2b6:	e9cd 1206 	strd	r1, r2, [sp, #24]
        else                     lui64Value = (long)va_arg(lParList, unsigned int);
 2ba:	930b      	str	r3, [sp, #44]	; 0x2c
 2bc:	2300      	movs	r3, #0
 2be:	9308      	str	r3, [sp, #32]
 2c0:	e754      	b.n	16c <cStrBaseT<unsigned short>::Setf(char const*, ...)+0x16c>
 2c2:	9b0b      	ldr	r3, [sp, #44]	; 0x2c
 2c4:	6818      	ldr	r0, [r3, #0]
 2c6:	17c2      	asrs	r2, r0, #31
 2c8:	4601      	mov	r1, r0
 2ca:	e9cd 1202 	strd	r1, r2, [sp, #8]
        if (lui8Flags & 4)       lui64Value = va_arg(lParList, long);
 2ce:	9a01      	ldr	r2, [sp, #4]
 2d0:	0752      	lsls	r2, r2, #29
 2d2:	f103 0304 	add.w	r3, r3, #4
 2d6:	f100 8081 	bmi.w	3dc <cStrBaseT<unsigned short>::Setf(char const*, ...)+0x3dc>
 2da:	2110      	movs	r1, #16
 2dc:	2200      	movs	r2, #0
 2de:	e9cd 1206 	strd	r1, r2, [sp, #24]
 2e2:	e7ea      	b.n	2ba <cStrBaseT<unsigned short>::Setf(char const*, ...)+0x2ba>
          lszStr = va_arg(lParList, char8*);
 2e4:	9a0b      	ldr	r2, [sp, #44]	; 0x2c
 2e6:	6813      	ldr	r3, [r2, #0]
    for (lpszTemp = lpszSrc; *lpszTemp; ++lpszTemp);
 2e8:	f993 0000 	ldrsb.w	r0, [r3]
 2ec:	3204      	adds	r2, #4
 2ee:	920b      	str	r2, [sp, #44]	; 0x2c
 2f0:	461a      	mov	r2, r3
 2f2:	b118      	cbz	r0, 2fc <cStrBaseT<unsigned short>::Setf(char const*, ...)+0x2fc>
 2f4:	f912 1f01 	ldrsb.w	r1, [r2, #1]!
 2f8:	2900      	cmp	r1, #0
 2fa:	d1fb      	bne.n	2f4 <cStrBaseT<unsigned short>::Setf(char const*, ...)+0x2f4>
    return (lpszTemp - lpszSrc);
 2fc:	1ad2      	subs	r2, r2, r3
          li8Pos = CheckStrlen(0, (CSTRT_UINT)cStrT_strlen(lszStr));
 2fe:	4297      	cmp	r7, r2
 300:	bf28      	it	cs
 302:	4617      	movcs	r7, r2
          if (!(lui8Flags & 2))
 304:	9a01      	ldr	r2, [sp, #4]
 306:	0795      	lsls	r5, r2, #30
          li8Pos = CheckStrlen(0, (CSTRT_UINT)cStrT_strlen(lszStr));
 308:	b27f      	sxtb	r7, r7
          if (!(lui8Flags & 2))
 30a:	d519      	bpl.n	340 <cStrBaseT<unsigned short>::Setf(char const*, ...)+0x340>
        if (*lpszStr != 0) // ""-String
 30c:	2800      	cmp	r0, #0
 30e:	d172      	bne.n	3f6 <cStrBaseT<unsigned short>::Setf(char const*, ...)+0x3f6>
 310:	1c7b      	adds	r3, r7, #1
          while (li8Pos++ < li16Width) *this += ' ';
 312:	42a7      	cmp	r7, r4
 314:	b25b      	sxtb	r3, r3
 316:	f6bf ae80 	bge.w	1a <cStrBaseT<unsigned short>::Setf(char const*, ...)+0x1a>
      luiFreeByteCnt = cbArrayT<tyArrayExtIdxT>::muiSize - muiLen;
 31a:	f8b9 2006 	ldrh.w	r2, [r9, #6]
      if (luiFreeByteCnt)
 31e:	f8b9 1000 	ldrh.w	r1, [r9]
 322:	4291      	cmp	r1, r2
 324:	d009      	beq.n	33a <cStrBaseT<unsigned short>::Setf(char const*, ...)+0x33a>
        cbArrayT<tyArrayExtIdxT>::mpu8Data[muiLen] = lui8Byte;
 326:	f8d9 1002 	ldr.w	r1, [r9, #2]
 32a:	f04f 0020 	mov.w	r0, #32
 32e:	5488      	strb	r0, [r1, r2]
        muiLen++;
 330:	f8b9 2006 	ldrh.w	r2, [r9, #6]
 334:	3201      	adds	r2, #1
 336:	f8a9 2006 	strh.w	r2, [r9, #6]
        while (luixCount > 0) // 1 * 4 Byte = 16Byte
 33a:	461f      	mov	r7, r3
 33c:	e7e8      	b.n	310 <cStrBaseT<unsigned short>::Setf(char const*, ...)+0x310>
    for (lpszTemp = lpszSrc; *lpszTemp; ++lpszTemp);
 33e:	4617      	mov	r7, r2
 340:	1c7a      	adds	r2, r7, #1
            while (li8Pos++ < li16Width) *this += ' ';
 342:	42a7      	cmp	r7, r4
 344:	b252      	sxtb	r2, r2
 346:	da51      	bge.n	3ec <cStrBaseT<unsigned short>::Setf(char const*, ...)+0x3ec>
      luiFreeByteCnt = cbArrayT<tyArrayExtIdxT>::muiSize - muiLen;
 348:	f8b9 1006 	ldrh.w	r1, [r9, #6]
      if (luiFreeByteCnt)
 34c:	f8b9 0000 	ldrh.w	r0, [r9]
 350:	4288      	cmp	r0, r1
 352:	d0f4      	beq.n	33e <cStrBaseT<unsigned short>::Setf(char const*, ...)+0x33e>
        cbArrayT<tyArrayExtIdxT>::mpu8Data[muiLen] = lui8Byte;
 354:	f8d9 0002 	ldr.w	r0, [r9, #2]
 358:	f04f 0520 	mov.w	r5, #32
 35c:	5445      	strb	r5, [r0, r1]
        muiLen++;
 35e:	f8b9 1006 	ldrh.w	r1, [r9, #6]
 362:	3101      	adds	r1, #1
 364:	f8a9 1006 	strh.w	r1, [r9, #6]
 368:	4617      	mov	r7, r2
 36a:	e7e9      	b.n	340 <cStrBaseT<unsigned short>::Setf(char const*, ...)+0x340>
      luiFreeByteCnt = cbArrayT<tyArrayExtIdxT>::muiSize - muiLen;
 36c:	f8b9 3006 	ldrh.w	r3, [r9, #6]
      if (luiFreeByteCnt)
 370:	42bb      	cmp	r3, r7
 372:	f43f ae52 	beq.w	1a <cStrBaseT<unsigned short>::Setf(char const*, ...)+0x1a>
        cbArrayT<tyArrayExtIdxT>::mpu8Data[muiLen] = lui8Byte;
 376:	f8d9 2002 	ldr.w	r2, [r9, #2]
 37a:	54d6      	strb	r6, [r2, r3]
        muiLen++;
 37c:	f8b9 3006 	ldrh.w	r3, [r9, #6]
 380:	3301      	adds	r3, #1
 382:	f8a9 3006 	strh.w	r3, [r9, #6]
 386:	e648      	b.n	1a <cStrBaseT<unsigned short>::Setf(char const*, ...)+0x1a>
 388:	9c04      	ldr	r4, [sp, #16]
 38a:	f8dd 9008 	ldr.w	r9, [sp, #8]
 38e:	f8dd 8014 	ldr.w	r8, [sp, #20]
 392:	4615      	mov	r5, r2
 394:	4613      	mov	r3, r2
 396:	e720      	b.n	1da <cStrBaseT<unsigned short>::Setf(char const*, ...)+0x1da>
        if (lui8Flags & 4)       lui64Value = va_arg(lParList, long);
 398:	930b      	str	r3, [sp, #44]	; 0x2c
 39a:	2202      	movs	r2, #2
 39c:	2300      	movs	r3, #0
 39e:	e9cd 2306 	strd	r2, r3, [sp, #24]
 3a2:	2300      	movs	r3, #0
 3a4:	9308      	str	r3, [sp, #32]
 3a6:	e6e1      	b.n	16c <cStrBaseT<unsigned short>::Setf(char const*, ...)+0x16c>
        li8Pos = li8Idx;
 3a8:	4629      	mov	r1, r5
 3aa:	1c4a      	adds	r2, r1, #1
          while (li8Pos++ < li16Width) *this += lc8Zeichen;
 3ac:	42a1      	cmp	r1, r4
 3ae:	b252      	sxtb	r2, r2
 3b0:	f6bf af30 	bge.w	214 <cStrBaseT<unsigned short>::Setf(char const*, ...)+0x214>
      if (luiFreeByteCnt)
 3b4:	429f      	cmp	r7, r3
 3b6:	d00a      	beq.n	3ce <cStrBaseT<unsigned short>::Setf(char const*, ...)+0x3ce>
        cbArrayT<tyArrayExtIdxT>::mpu8Data[muiLen] = lui8Byte;
 3b8:	f8d9 1002 	ldr.w	r1, [r9, #2]
 3bc:	54c8      	strb	r0, [r1, r3]
        muiLen++;
 3be:	f8b9 3006 	ldrh.w	r3, [r9, #6]
 3c2:	f8b9 7000 	ldrh.w	r7, [r9]
 3c6:	3301      	adds	r3, #1
 3c8:	b29b      	uxth	r3, r3
 3ca:	f8a9 3006 	strh.w	r3, [r9, #6]
      if (luiFreeByteCnt)
 3ce:	4611      	mov	r1, r2
 3d0:	e7eb      	b.n	3aa <cStrBaseT<unsigned short>::Setf(char const*, ...)+0x3aa>
        else if (li8Spec == 'D') lui64Value = (long)va_arg(lParList, int);
 3d2:	2a44      	cmp	r2, #68	; 0x44
 3d4:	f47f af71 	bne.w	2ba <cStrBaseT<unsigned short>::Setf(char const*, ...)+0x2ba>
 3d8:	930b      	str	r3, [sp, #44]	; 0x2c
 3da:	e6b7      	b.n	14c <cStrBaseT<unsigned short>::Setf(char const*, ...)+0x14c>
        if (lui8Flags & 4)       lui64Value = va_arg(lParList, long);
 3dc:	930b      	str	r3, [sp, #44]	; 0x2c
 3de:	2300      	movs	r3, #0
 3e0:	9308      	str	r3, [sp, #32]
 3e2:	2210      	movs	r2, #16
 3e4:	2300      	movs	r3, #0
 3e6:	e9cd 2306 	strd	r2, r3, [sp, #24]
 3ea:	e6bf      	b.n	16c <cStrBaseT<unsigned short>::Setf(char const*, ...)+0x16c>
 3ec:	f993 0000 	ldrsb.w	r0, [r3]
            while (li8Pos++ < li16Width) *this += ' ';
 3f0:	4617      	mov	r7, r2
        if (*lpszStr != 0) // ""-String
 3f2:	2800      	cmp	r0, #0
 3f4:	d08c      	beq.n	310 <cStrBaseT<unsigned short>::Setf(char const*, ...)+0x310>
 3f6:	4619      	mov	r1, r3
 3f8:	f911 2f01 	ldrsb.w	r2, [r1, #1]!
 3fc:	2a00      	cmp	r2, #0
 3fe:	d1fb      	bne.n	3f8 <cStrBaseT<unsigned short>::Setf(char const*, ...)+0x3f8>
      luiFreeByteCnt = cbArrayT<tyArrayExtIdxT>::muiSize - muiLen;
 400:	f8b9 e006 	ldrh.w	lr, [r9, #6]
 404:	f8b9 2000 	ldrh.w	r2, [r9]
 408:	eba2 020e 	sub.w	r2, r2, lr
 40c:	b290      	uxth	r0, r2
      if (luiFreeByteCnt)
 40e:	2800      	cmp	r0, #0
 410:	f43f af7e 	beq.w	310 <cStrBaseT<unsigned short>::Setf(char const*, ...)+0x310>
    return (lpszTemp - lpszSrc);
 414:	1aca      	subs	r2, r1, r3
 416:	b292      	uxth	r2, r2
 418:	4282      	cmp	r2, r0
 41a:	bf28      	it	cs
 41c:	4602      	movcs	r2, r0
        cbArrayExtT_vMemCpy(cbArrayT<tyArrayExtIdxT>::mpu8Data + muiLen, lpaArray, luiSize);
 41e:	f8d9 5002 	ldr.w	r5, [r9, #2]
      if (luixSize > 15)
 422:	2a0f      	cmp	r2, #15
 424:	4694      	mov	ip, r2
 426:	4475      	add	r5, lr
 428:	d922      	bls.n	470 <cStrBaseT<unsigned short>::Setf(char const*, ...)+0x470>
        luixCount = luixSize >> 4; // 16Byte Blcke
 42a:	ea4f 1b12 	mov.w	fp, r2, lsr #4
 42e:	ea4f 1b0b 	mov.w	fp, fp, lsl #4
 432:	f103 0110 	add.w	r1, r3, #16
 436:	eb01 0a0b 	add.w	sl, r1, fp
        luixSize &= 15;
 43a:	f002 0c0f 	and.w	ip, r2, #15
 43e:	f105 0610 	add.w	r6, r5, #16
          *lpui32Dest++ = *lpui32Source++;
 442:	f851 0c10 	ldr.w	r0, [r1, #-16]
 446:	f846 0c10 	str.w	r0, [r6, #-16]
          *lpui32Dest++ = *lpui32Source++;
 44a:	f851 0c0c 	ldr.w	r0, [r1, #-12]
 44e:	f846 0c0c 	str.w	r0, [r6, #-12]
          *lpui32Dest++ = *lpui32Source++;
 452:	f851 0c08 	ldr.w	r0, [r1, #-8]
 456:	f846 0c08 	str.w	r0, [r6, #-8]
          *lpui32Dest++ = *lpui32Source++;
 45a:	f851 0c04 	ldr.w	r0, [r1, #-4]
 45e:	f846 0c04 	str.w	r0, [r6, #-4]
 462:	3110      	adds	r1, #16
        while (luixCount > 0) // 4 * 4 Byte = 16Byte
 464:	458a      	cmp	sl, r1
 466:	f106 0610 	add.w	r6, r6, #16
 46a:	d1ea      	bne.n	442 <cStrBaseT<unsigned short>::Setf(char const*, ...)+0x442>
 46c:	445b      	add	r3, fp
 46e:	445d      	add	r5, fp
      if (luixSize > 3)
 470:	f1bc 0f03 	cmp.w	ip, #3
 474:	d90f      	bls.n	496 <cStrBaseT<unsigned short>::Setf(char const*, ...)+0x496>
        luixCount = luixSize >> 2; // 4Byte Blcke
 476:	ea4f 0a9c 	mov.w	sl, ip, lsr #2
 47a:	ea4f 0a8a 	mov.w	sl, sl, lsl #2
        luixSize &= 3;
 47e:	f00c 0c03 	and.w	ip, ip, #3
 482:	eb03 060a 	add.w	r6, r3, sl
 486:	1f29      	subs	r1, r5, #4
          *lpui32Dest++ = *lpui32Source++;
 488:	f853 0b04 	ldr.w	r0, [r3], #4
 48c:	f841 0f04 	str.w	r0, [r1, #4]!
        while (luixCount > 0) // 1 * 4 Byte = 16Byte
 490:	42b3      	cmp	r3, r6
 492:	d1f9      	bne.n	488 <cStrBaseT<unsigned short>::Setf(char const*, ...)+0x488>
 494:	4455      	add	r5, sl
      while (luixSize > 0)
 496:	f1bc 0f00 	cmp.w	ip, #0
 49a:	d009      	beq.n	4b0 <cStrBaseT<unsigned short>::Setf(char const*, ...)+0x4b0>
 49c:	3d01      	subs	r5, #1
 49e:	449c      	add	ip, r3
        *lpui8Dest++ = *lpui8Source++;
 4a0:	f813 1b01 	ldrb.w	r1, [r3], #1
 4a4:	f805 1f01 	strb.w	r1, [r5, #1]!
      while (luixSize > 0)
 4a8:	4563      	cmp	r3, ip
 4aa:	d1f9      	bne.n	4a0 <cStrBaseT<unsigned short>::Setf(char const*, ...)+0x4a0>
 4ac:	f8b9 e006 	ldrh.w	lr, [r9, #6]
        muiLen += luiSize;
 4b0:	4472      	add	r2, lr
 4b2:	f8a9 2006 	strh.w	r2, [r9, #6]
 4b6:	e72b      	b.n	310 <cStrBaseT<unsigned short>::Setf(char const*, ...)+0x310>

Disassembly of section .text.startup.main:

00000000 <main>:

int main(void)
{
       0:	e92d 4ff0 	stmdb	sp!, {r4, r5, r6, r7, r8, r9, sl, fp, lr}
  static volatile float  lfValue3 = 3.0f;

  UNUSED(lu32Value3);
  UNUSED(lfValue3);

  float MyMatA[4][4] = { {1.0f,     2.0f,     3.0f,    4.0f},
       4:	4ec1      	ldr	r6, [pc, #772]	; (30c <main+0x30c>)
  UNUSED(lu32Value3);
       6:	4cc2      	ldr	r4, [pc, #776]	; (310 <main+0x310>)
  UNUSED(lfValue3);
       8:	4dc2      	ldr	r5, [pc, #776]	; (314 <main+0x314>)
  UNUSED(lu32Value3);
       a:	6823      	ldr	r3, [r4, #0]
  UNUSED(lfValue3);
       c:	682b      	ldr	r3, [r5, #0]
{
       e:	ed2d 8b0a 	vpush	{d8-d12}
  float MyMatA[4][4] = { {1.0f,     2.0f,     3.0f,    4.0f},
      12:	ce0f      	ldmia	r6!, {r0, r1, r2, r3}
{
      14:	f5ad 7d27 	sub.w	sp, sp, #668	; 0x29c
  float MyMatA[4][4] = { {1.0f,     2.0f,     3.0f,    4.0f},
      18:	af2e      	add	r7, sp, #184	; 0xb8
      1a:	c70f      	stmia	r7!, {r0, r1, r2, r3}
      1c:	ce0f      	ldmia	r6!, {r0, r1, r2, r3}
      1e:	c70f      	stmia	r7!, {r0, r1, r2, r3}
      20:	ce0f      	ldmia	r6!, {r0, r1, r2, r3}
      22:	c70f      	stmia	r7!, {r0, r1, r2, r3}
      24:	e896 000f 	ldmia.w	r6, {r0, r1, r2, r3}
                         {1.0f,     2.0f,     3.0f,    4.0f},
                         {1.0f,     2.0f,     3.0f,    4.0f},
                         {1.0f,     2.0f,     3.0f,    4.0f}};

  float MyMatB[4][4] = { {1.0f,     2.0f,     3.0f,    4.0f},
      28:	f1a6 0e30 	sub.w	lr, r6, #48	; 0x30
  float MyMatA[4][4] = { {1.0f,     2.0f,     3.0f,    4.0f},
      2c:	e887 000f 	stmia.w	r7, {r0, r1, r2, r3}
  float MyMatB[4][4] = { {1.0f,     2.0f,     3.0f,    4.0f},
      30:	e8be 000f 	ldmia.w	lr!, {r0, r1, r2, r3}
      34:	f10d 08f8 	add.w	r8, sp, #248	; 0xf8
      38:	46c4      	mov	ip, r8
      3a:	e8ac 000f 	stmia.w	ip!, {r0, r1, r2, r3}
      3e:	e8be 000f 	ldmia.w	lr!, {r0, r1, r2, r3}
      42:	e8ac 000f 	stmia.w	ip!, {r0, r1, r2, r3}
      46:	e8be 000f 	ldmia.w	lr!, {r0, r1, r2, r3}
      4a:	e8ac 000f 	stmia.w	ip!, {r0, r1, r2, r3}
      4e:	e896 000f 	ldmia.w	r6, {r0, r1, r2, r3}
                             {  10.0,   20.0,   30.0,   40.0},
                             {  10.0,   20.0,   30.0,   40.0}};

  UNUSED(MyMatAmulB);

  cMatrix_4x4           lcMat1(false);
      52:	af4e      	add	r7, sp, #312	; 0x138
  float MyMatB[4][4] = { {1.0f,     2.0f,     3.0f,    4.0f},
      54:	e88c 000f 	stmia.w	ip, {r0, r1, r2, r3}
  cMatrix_4x4           lcMat2(false);
      58:	f50d 79c8 	add.w	r9, sp, #400	; 0x190
  cMatrix_4x4           lcMat1(false);
      5c:	2100      	movs	r1, #0
      5e:	4638      	mov	r0, r7
      60:	f7ff fffe 	bl	0 <main>	60: R_ARM_THM_CALL	cMatrix_4x4::cMatrix_4x4(bool)
  cMatrix_4x4           lcMat3(false);
      64:	f50d 7bf4 	add.w	fp, sp, #488	; 0x1e8
  cMatrix_4x4           lcMat2(false);
      68:	2100      	movs	r1, #0
      6a:	4648      	mov	r0, r9
      6c:	f7ff fffe 	bl	0 <main>	6c: R_ARM_THM_CALL	cMatrix_4x4::cMatrix_4x4(bool)
  cMatrix_4x4           lcMat3(false);
      70:	4658      	mov	r0, fp
      72:	2100      	movs	r1, #0
      74:	f7ff fffe 	bl	0 <main>	74: R_ARM_THM_CALL	cMatrix_4x4::cMatrix_4x4(bool)
      78:	ab2e      	add	r3, sp, #184	; 0xb8
      7a:	463a      	mov	r2, r7
        m[c][r] = lMatrix[c][r];
      7c:	f8d3 c000 	ldr.w	ip, [r3]
      80:	685e      	ldr	r6, [r3, #4]
      82:	6898      	ldr	r0, [r3, #8]
      84:	68d9      	ldr	r1, [r3, #12]
      86:	f8c2 c000 	str.w	ip, [r2]
      8a:	3310      	adds	r3, #16
    for (c = 0; c < 4; c++)
      8c:	4598      	cmp	r8, r3
        m[c][r] = lMatrix[c][r];
      8e:	6056      	str	r6, [r2, #4]
      90:	6090      	str	r0, [r2, #8]
      92:	60d1      	str	r1, [r2, #12]
      94:	f102 0210 	add.w	r2, r2, #16
    for (c = 0; c < 4; c++)
      98:	d1f0      	bne.n	7c <main+0x7c>
      9a:	464b      	mov	r3, r9
        m[c][r] = lMatrix[c][r];
      9c:	f8d8 6000 	ldr.w	r6, [r8]
      a0:	f8d8 0004 	ldr.w	r0, [r8, #4]
      a4:	f8d8 1008 	ldr.w	r1, [r8, #8]
      a8:	f8d8 200c 	ldr.w	r2, [r8, #12]
      ac:	601e      	str	r6, [r3, #0]
      ae:	f108 0810 	add.w	r8, r8, #16
    for (c = 0; c < 4; c++)
      b2:	4547      	cmp	r7, r8
        m[c][r] = lMatrix[c][r];
      b4:	6058      	str	r0, [r3, #4]
      b6:	6099      	str	r1, [r3, #8]
      b8:	60da      	str	r2, [r3, #12]
      ba:	f103 0310 	add.w	r3, r3, #16
    for (c = 0; c < 4; c++)
      be:	d1ed      	bne.n	9c <main+0x9c>
  lcMat2.Set(MyMatB);

  float MyVec[4] = { 1.0f,   2.0f,   3.0f,  4.0f };

  cVector4f             lcVec1;
  cVector4f             lcVec2;
      c0:	f10d 0880 	add.w	r8, sp, #128	; 0x80
  cVector4f             lcVec1;
      c4:	a812      	add	r0, sp, #72	; 0x48
      c6:	f7ff fffe 	bl	0 <main>	c6: R_ARM_THM_CALL	cVector4f::cVector4f()
  cVector4f             lcVec2;
      ca:	4640      	mov	r0, r8
      cc:	f7ff fffe 	bl	0 <main>	cc: R_ARM_THM_CALL	cVector4f::cVector4f()
      n[c] = lVec[c];
      d0:	f04f 537e 	mov.w	r3, #1065353216	; 0x3f800000
      d4:	4a90      	ldr	r2, [pc, #576]	; (318 <main+0x318>)
      d6:	9312      	str	r3, [sp, #72]	; 0x48
      d8:	f04f 4180 	mov.w	r1, #1073741824	; 0x40000000
    uint8         *mpu8Data;

    cbArrayT()
    {
      mpu8Data = null;
      muiSize  = 0;
      dc:	2600      	movs	r6, #0
      de:	f8c8 3000 	str.w	r3, [r8]
        if (cbArrayT<tyCStrT>::mpu8Data == null)
        {
          // Auf vielfaches von 4 aufrunden
          luiStrLen = (luiStrLen + 3) & (~3);

          cbArrayT<tyCStrT>::mpu8Data = (uint8*)CSTRT_pui8GETMEM(luiStrLen);
      e2:	2040      	movs	r0, #64	; 0x40
      e4:	f04f 4381 	mov.w	r3, #1082130432	; 0x40800000
      e8:	9214      	str	r2, [sp, #80]	; 0x50
      ea:	f8c8 2008 	str.w	r2, [r8, #8]
      ee:	9113      	str	r1, [sp, #76]	; 0x4c
      f0:	f8c8 1004 	str.w	r1, [r8, #4]
      f4:	9315      	str	r3, [sp, #84]	; 0x54
      f6:	f8c8 300c 	str.w	r3, [r8, #12]
      mpu8Data = null;
      fa:	e9cd 6610 	strd	r6, r6, [sp, #64]	; 0x40
      fe:	f7ff fffe 	bl	0 <operator new[](unsigned int)>	fe: R_ARM_THM_CALL	operator new[](unsigned int)

          if (cbArrayT<tyCStrT>::mpu8Data != null)
          {
            // Speicher konnte angefordert werden
            cbArrayT<tyCStrT>::muiSize = luiStrLen;
     102:	2340      	movs	r3, #64	; 0x40
     104:	f8ad 3040 	strh.w	r3, [sp, #64]	; 0x40
          cbArrayT<tyCStrT>::mpu8Data = (uint8*)CSTRT_pui8GETMEM(luiStrLen);
     108:	f8cd 0042 	str.w	r0, [sp, #66]	; 0x42
            cbArrayExtT<tyCStrT>::muiLen  = 0;
     10c:	f8ad 6046 	strh.w	r6, [sp, #70]	; 0x46
  lcVec1.Set(MyVec);
  lcVec2.Set(MyVec);

  cDStr lcStrOutput(64);

  MAIN_vInitSystem();
     110:	f7ff fffe 	bl	0 <main>	110: R_ARM_THM_CALL	MAIN_vInitSystem()

  mc16GScreen1.vFill(0x0);
     114:	4631      	mov	r1, r6
     116:	4881      	ldr	r0, [pc, #516]	; (31c <main+0x31c>)
     118:	f7ff fffe 	bl	0 <main>	118: R_ARM_THM_CALL	cScreen_Bpp16_5R6G5B::vFill(unsigned long)

  cRFont_Res8b_Bpp1_1G_Full.mui32Col = mc16GScreen1.u32GetCol(0xFFFFFF);
     11c:	4980      	ldr	r1, [pc, #512]	; (320 <main+0x320>)
    for (lpszTemp = lpszSrc; *lpszTemp; ++lpszTemp);
     11e:	f8df c228 	ldr.w	ip, [pc, #552]	; 348 <main+0x348>
      mstStartPos.x = lixDestX;
     122:	f44f 2320 	mov.w	r3, #655360	; 0xa0000
     126:	f64f 72ff 	movw	r2, #65535	; 0xffff
     12a:	624b      	str	r3, [r1, #36]	; 0x24
     12c:	618a      	str	r2, [r1, #24]
     12e:	4663      	mov	r3, ip
     130:	f913 2f01 	ldrsb.w	r2, [r3, #1]!
     134:	2a00      	cmp	r2, #0
     136:	d1fb      	bne.n	130 <main+0x130>
    return (lpszTemp - lpszSrc);
     138:	eba3 030c 	sub.w	r3, r3, ip
      return i8PutString(lpcScr, lbSizeOnly);
     13c:	4878      	ldr	r0, [pc, #480]	; (320 <main+0x320>)
     13e:	4977      	ldr	r1, [pc, #476]	; (31c <main+0x31c>)
      cbArrayT<tyCStrT>::mpu8Data = (uint8*)lszStr;
     140:	f8c0 c01e 	str.w	ip, [r0, #30]
      cbArrayExtT<tyCStrT>::muiLen = (CSTRT_UINT)cStrT_strlen(lszStr);
     144:	b29b      	uxth	r3, r3
     146:	8443      	strh	r3, [r0, #34]	; 0x22
      cbArrayT<tyCStrT>::muiSize = cbArrayExtT<tyCStrT>::muiLen;
     148:	8383      	strh	r3, [r0, #28]
     14a:	f7ff fffe 	bl	0 <main>	14a: R_ARM_THM_CALL	cRFont_Res8b_Bpp1_1G::i8PutString(cScreen*, bool)
     14e:	9005      	str	r0, [sp, #20]
  cRFont_Res8b_Bpp1_1G_Full.i8PutStringXY(0, 10, (const char*)"MemTest", &mc16GScreen1);
  ILI9341_Show(&mc16GBm);
     150:	4874      	ldr	r0, [pc, #464]	; (324 <main+0x324>)
     152:	f7ff fffe 	bl	0 <ILI9341_Show>	152: R_ARM_THM_CALL	ILI9341_Show
    mu32LastTimerValue = u32GetTimer();
     156:	f7ff fffe 	bl	0 <u32GetTimer>	156: R_ARM_THM_CALL	u32GetTimer
     15a:	4b73      	ldr	r3, [pc, #460]	; (328 <main+0x328>)
     15c:	4973      	ldr	r1, [pc, #460]	; (32c <main+0x32c>)
     15e:	60d8      	str	r0, [r3, #12]
     160:	2664      	movs	r6, #100	; 0x64
      lui32Value[0] = lui8Value;
     162:	f04f 3255 	mov.w	r2, #1431655765	; 0x55555555
     166:	4b72      	ldr	r3, [pc, #456]	; (330 <main+0x330>)
     168:	9290      	str	r2, [sp, #576]	; 0x240
          *lpui32Dest++ = *(uint32*)lui32Value;
     16a:	e943 2204 	strd	r2, r2, [r3, #-16]
          *lpui32Dest++ = *(uint32*)lui32Value;
     16e:	e943 2202 	strd	r2, r2, [r3, #-8]
     172:	3310      	adds	r3, #16
        while (luixCount > 0) // 4 * 4 Byte = 16Byte
     174:	4299      	cmp	r1, r3
     176:	d1f8      	bne.n	16a <main+0x16a>
     178:	1e73      	subs	r3, r6, #1


  mcDiffTimer.start();
  for (lu8t = 0; lu8t < 100; lu8t++)
     17a:	f013 06ff 	ands.w	r6, r3, #255	; 0xff
     17e:	d1f2      	bne.n	166 <main+0x166>
  {
    cMemTools::vMemSet(mExtMemory, 0x55, 10000);
  }
  lcStrOutput.Setf("ExtMem Test: %s us", mcDiffTimer.toString());
     180:	4869      	ldr	r0, [pc, #420]	; (328 <main+0x328>)
     182:	f7ff fffe 	bl	0 <main>	182: R_ARM_THM_CALL	cDiffTimer::toString()
     186:	496b      	ldr	r1, [pc, #428]	; (334 <main+0x334>)
     188:	4602      	mov	r2, r0
     18a:	a810      	add	r0, sp, #64	; 0x40
     18c:	f7ff fffe 	bl	0 <main>	18c: R_ARM_THM_CALL	cStrBaseT<unsigned short>::Setf(char const*, ...)
      luiFreeByteCnt = cbArrayT<tyArrayExtIdxT>::muiSize - muiLen;
     190:	f8bd 3046 	ldrh.w	r3, [sp, #70]	; 0x46
      if (luiFreeByteCnt)
     194:	f8bd 2040 	ldrh.w	r2, [sp, #64]	; 0x40
     198:	429a      	cmp	r2, r3
     19a:	d007      	beq.n	1ac <main+0x1ac>
        cbArrayT<tyArrayExtIdxT>::mpu8Data[muiLen] = lui8Byte;
     19c:	f8dd 2042 	ldr.w	r2, [sp, #66]	; 0x42
     1a0:	54d6      	strb	r6, [r2, r3]
        muiLen++;
     1a2:	f8bd 3046 	ldrh.w	r3, [sp, #70]	; 0x46
     1a6:	3301      	adds	r3, #1
     1a8:	f8ad 3046 	strh.w	r3, [sp, #70]	; 0x46
      mstStartPos.x = lixDestX;
     1ac:	4a5c      	ldr	r2, [pc, #368]	; (320 <main+0x320>)
      return (char8*)cbArrayT<tyCStrT>::mpu8Data;
     1ae:	f8dd 6042 	ldr.w	r6, [sp, #66]	; 0x42
     1b2:	f44f 13f0 	mov.w	r3, #1966080	; 0x1e0000
     1b6:	6253      	str	r3, [r2, #36]	; 0x24
    for (lpszTemp = lpszSrc; *lpszTemp; ++lpszTemp);
     1b8:	f996 3000 	ldrsb.w	r3, [r6]
     1bc:	2b00      	cmp	r3, #0
     1be:	f001 80e3 	beq.w	1388 <main+0x1388>
     1c2:	4633      	mov	r3, r6
     1c4:	f913 2f01 	ldrsb.w	r2, [r3, #1]!
     1c8:	2a00      	cmp	r2, #0
     1ca:	d1fb      	bne.n	1c4 <main+0x1c4>
      cbArrayExtT<tyCStrT>::muiLen = (CSTRT_UINT)cStrT_strlen(lszStr);
     1cc:	4854      	ldr	r0, [pc, #336]	; (320 <main+0x320>)
      return i8PutString(lpcScr, lbSizeOnly);
     1ce:	4953      	ldr	r1, [pc, #332]	; (31c <main+0x31c>)
      cbArrayT<tyCStrT>::mpu8Data = (uint8*)lszStr;
     1d0:	f8c0 601e 	str.w	r6, [r0, #30]
    return (lpszTemp - lpszSrc);
     1d4:	1b9b      	subs	r3, r3, r6
      cbArrayExtT<tyCStrT>::muiLen = (CSTRT_UINT)cStrT_strlen(lszStr);
     1d6:	b29b      	uxth	r3, r3
     1d8:	2200      	movs	r2, #0
     1da:	8443      	strh	r3, [r0, #34]	; 0x22
      cbArrayT<tyCStrT>::muiSize = cbArrayExtT<tyCStrT>::muiLen;
     1dc:	8383      	strh	r3, [r0, #28]
     1de:	f7ff fffe 	bl	0 <main>	1de: R_ARM_THM_CALL	cRFont_Res8b_Bpp1_1G::i8PutString(cScreen*, bool)
     1e2:	9006      	str	r0, [sp, #24]
  cRFont_Res8b_Bpp1_1G_Full.i8PutStringXY(0, lu16Y, lcStrOutput.ToString(), &mc16GScreen1);
  ILI9341_Show(&mc16GBm);
     1e4:	484f      	ldr	r0, [pc, #316]	; (324 <main+0x324>)
     1e6:	f7ff fffe 	bl	0 <ILI9341_Show>	1e6: R_ARM_THM_CALL	ILI9341_Show
     1ea:	f7ff fffe 	bl	0 <u32GetTimer>	1ea: R_ARM_THM_CALL	u32GetTimer
     1ee:	4b4e      	ldr	r3, [pc, #312]	; (328 <main+0x328>)
     1f0:	4951      	ldr	r1, [pc, #324]	; (338 <main+0x338>)
     1f2:	60d8      	str	r0, [r3, #12]
     1f4:	2664      	movs	r6, #100	; 0x64
      lui32Value[0] = lui8Value;
     1f6:	f04f 3255 	mov.w	r2, #1431655765	; 0x55555555
     1fa:	4b50      	ldr	r3, [pc, #320]	; (33c <main+0x33c>)
     1fc:	9290      	str	r2, [sp, #576]	; 0x240
          *lpui32Dest++ = *(uint32*)lui32Value;
     1fe:	e943 2204 	strd	r2, r2, [r3, #-16]
          *lpui32Dest++ = *(uint32*)lui32Value;
     202:	e943 2202 	strd	r2, r2, [r3, #-8]
     206:	3310      	adds	r3, #16
        while (luixCount > 0) // 4 * 4 Byte = 16Byte
     208:	4299      	cmp	r1, r3
     20a:	d1f8      	bne.n	1fe <main+0x1fe>
     20c:	1e73      	subs	r3, r6, #1

  lu16Y += 10;
  mcDiffTimer.start();
  for (lu8t = 0; lu8t < 100; lu8t++)
     20e:	f013 06ff 	ands.w	r6, r3, #255	; 0xff
     212:	d1f2      	bne.n	1fa <main+0x1fa>
  {
    cMemTools::vMemSet(mIntMemory, 0x55, 10000);
  }
  lcStrOutput.Setf("IntMem Test: %s us", mcDiffTimer.toString());
     214:	4844      	ldr	r0, [pc, #272]	; (328 <main+0x328>)
     216:	f7ff fffe 	bl	0 <main>	216: R_ARM_THM_CALL	cDiffTimer::toString()
     21a:	4949      	ldr	r1, [pc, #292]	; (340 <main+0x340>)
     21c:	4602      	mov	r2, r0
     21e:	a810      	add	r0, sp, #64	; 0x40
     220:	f7ff fffe 	bl	0 <main>	220: R_ARM_THM_CALL	cStrBaseT<unsigned short>::Setf(char const*, ...)
      luiFreeByteCnt = cbArrayT<tyArrayExtIdxT>::muiSize - muiLen;
     224:	f8bd 3046 	ldrh.w	r3, [sp, #70]	; 0x46
      if (luiFreeByteCnt)
     228:	f8bd 2040 	ldrh.w	r2, [sp, #64]	; 0x40
     22c:	429a      	cmp	r2, r3
     22e:	d007      	beq.n	240 <main+0x240>
        cbArrayT<tyArrayExtIdxT>::mpu8Data[muiLen] = lui8Byte;
     230:	f8dd 2042 	ldr.w	r2, [sp, #66]	; 0x42
     234:	54d6      	strb	r6, [r2, r3]
        muiLen++;
     236:	f8bd 3046 	ldrh.w	r3, [sp, #70]	; 0x46
     23a:	3301      	adds	r3, #1
     23c:	f8ad 3046 	strh.w	r3, [sp, #70]	; 0x46
      mstStartPos.x = lixDestX;
     240:	4a37      	ldr	r2, [pc, #220]	; (320 <main+0x320>)
      return (char8*)cbArrayT<tyCStrT>::mpu8Data;
     242:	f8dd 6042 	ldr.w	r6, [sp, #66]	; 0x42
     246:	f44f 1320 	mov.w	r3, #2621440	; 0x280000
     24a:	6253      	str	r3, [r2, #36]	; 0x24
    for (lpszTemp = lpszSrc; *lpszTemp; ++lpszTemp);
     24c:	f996 3000 	ldrsb.w	r3, [r6]
     250:	2b00      	cmp	r3, #0
     252:	f001 8096 	beq.w	1382 <main+0x1382>
     256:	4633      	mov	r3, r6
     258:	f913 2f01 	ldrsb.w	r2, [r3, #1]!
     25c:	2a00      	cmp	r2, #0
     25e:	d1fb      	bne.n	258 <main+0x258>
      cbArrayExtT<tyCStrT>::muiLen = (CSTRT_UINT)cStrT_strlen(lszStr);
     260:	482f      	ldr	r0, [pc, #188]	; (320 <main+0x320>)
      return i8PutString(lpcScr, lbSizeOnly);
     262:	492e      	ldr	r1, [pc, #184]	; (31c <main+0x31c>)
      cbArrayT<tyCStrT>::mpu8Data = (uint8*)lszStr;
     264:	f8c0 601e 	str.w	r6, [r0, #30]
    return (lpszTemp - lpszSrc);
     268:	1b9b      	subs	r3, r3, r6
      cbArrayExtT<tyCStrT>::muiLen = (CSTRT_UINT)cStrT_strlen(lszStr);
     26a:	b29b      	uxth	r3, r3
     26c:	2200      	movs	r2, #0
     26e:	8443      	strh	r3, [r0, #34]	; 0x22
      cbArrayT<tyCStrT>::muiSize = cbArrayExtT<tyCStrT>::muiLen;
     270:	8383      	strh	r3, [r0, #28]
     272:	f7ff fffe 	bl	0 <main>	272: R_ARM_THM_CALL	cRFont_Res8b_Bpp1_1G::i8PutString(cScreen*, bool)
     276:	9007      	str	r0, [sp, #28]
  cRFont_Res8b_Bpp1_1G_Full.i8PutStringXY(0, lu16Y, lcStrOutput.ToString(), &mc16GScreen1);
  ILI9341_Show(&mc16GBm);
     278:	482a      	ldr	r0, [pc, #168]	; (324 <main+0x324>)
     27a:	f7ff fffe 	bl	0 <ILI9341_Show>	27a: R_ARM_THM_CALL	ILI9341_Show

  #define TEST_REPETITIONS 10000

  // ----- Nop -----
  lu16Y += 10;
  asm("nop"); // for breakpoint
     27e:	bf00      	nop
  asm("nop"); // for breakpoint
     280:	bf00      	nop
     282:	f7ff fffe 	bl	0 <u32GetTimer>	282: R_ARM_THM_CALL	u32GetTimer
     286:	4b28      	ldr	r3, [pc, #160]	; (328 <main+0x328>)
     288:	f242 7610 	movw	r6, #10000	; 0x2710
     28c:	60d8      	str	r0, [r3, #12]

  mcDiffTimer.start();
  #define MyTest asm("nop")
  for (lu32TestLoop = 0; lu32TestLoop < TEST_REPETITIONS; lu32TestLoop++)
  {
    MyTest; MyTest; MyTest; MyTest; MyTest;
     28e:	bf00      	nop
     290:	bf00      	nop
     292:	bf00      	nop
     294:	bf00      	nop
     296:	bf00      	nop
    MyTest; MyTest; MyTest; MyTest; MyTest;
     298:	bf00      	nop
     29a:	bf00      	nop
     29c:	bf00      	nop
     29e:	bf00      	nop
     2a0:	bf00      	nop
  for (lu32TestLoop = 0; lu32TestLoop < TEST_REPETITIONS; lu32TestLoop++)
     2a2:	3e01      	subs	r6, #1
     2a4:	d1f3      	bne.n	28e <main+0x28e>
  }
  #undef MyTest
  lcStrOutput.Setf("Just NOP Test: %s us", mcDiffTimer.toString());
     2a6:	4820      	ldr	r0, [pc, #128]	; (328 <main+0x328>)
     2a8:	f7ff fffe 	bl	0 <main>	2a8: R_ARM_THM_CALL	cDiffTimer::toString()
     2ac:	4925      	ldr	r1, [pc, #148]	; (344 <main+0x344>)
     2ae:	4602      	mov	r2, r0
     2b0:	a810      	add	r0, sp, #64	; 0x40
     2b2:	f7ff fffe 	bl	0 <main>	2b2: R_ARM_THM_CALL	cStrBaseT<unsigned short>::Setf(char const*, ...)
      luiFreeByteCnt = cbArrayT<tyArrayExtIdxT>::muiSize - muiLen;
     2b6:	f8bd 3046 	ldrh.w	r3, [sp, #70]	; 0x46
      if (luiFreeByteCnt)
     2ba:	f8bd 2040 	ldrh.w	r2, [sp, #64]	; 0x40
     2be:	429a      	cmp	r2, r3
     2c0:	d007      	beq.n	2d2 <main+0x2d2>
        cbArrayT<tyArrayExtIdxT>::mpu8Data[muiLen] = lui8Byte;
     2c2:	f8dd 2042 	ldr.w	r2, [sp, #66]	; 0x42
     2c6:	54d6      	strb	r6, [r2, r3]
        muiLen++;
     2c8:	f8bd 3046 	ldrh.w	r3, [sp, #70]	; 0x46
     2cc:	3301      	adds	r3, #1
     2ce:	f8ad 3046 	strh.w	r3, [sp, #70]	; 0x46
      mstStartPos.x = lixDestX;
     2d2:	4a13      	ldr	r2, [pc, #76]	; (320 <main+0x320>)
      return (char8*)cbArrayT<tyCStrT>::mpu8Data;
     2d4:	f8dd 6042 	ldr.w	r6, [sp, #66]	; 0x42
     2d8:	f44f 1348 	mov.w	r3, #3276800	; 0x320000
     2dc:	6253      	str	r3, [r2, #36]	; 0x24
    for (lpszTemp = lpszSrc; *lpszTemp; ++lpszTemp);
     2de:	f996 3000 	ldrsb.w	r3, [r6]
     2e2:	2b00      	cmp	r3, #0
     2e4:	f001 804a 	beq.w	137c <main+0x137c>
     2e8:	4633      	mov	r3, r6
     2ea:	f913 2f01 	ldrsb.w	r2, [r3, #1]!
     2ee:	2a00      	cmp	r2, #0
     2f0:	d1fb      	bne.n	2ea <main+0x2ea>
      cbArrayExtT<tyCStrT>::muiLen = (CSTRT_UINT)cStrT_strlen(lszStr);
     2f2:	480b      	ldr	r0, [pc, #44]	; (320 <main+0x320>)
      return i8PutString(lpcScr, lbSizeOnly);
     2f4:	4909      	ldr	r1, [pc, #36]	; (31c <main+0x31c>)
      cbArrayT<tyCStrT>::mpu8Data = (uint8*)lszStr;
     2f6:	f8c0 601e 	str.w	r6, [r0, #30]
    return (lpszTemp - lpszSrc);
     2fa:	1b9b      	subs	r3, r3, r6
      cbArrayExtT<tyCStrT>::muiLen = (CSTRT_UINT)cStrT_strlen(lszStr);
     2fc:	b29b      	uxth	r3, r3
     2fe:	2200      	movs	r2, #0
     300:	8443      	strh	r3, [r0, #34]	; 0x22
      cbArrayT<tyCStrT>::muiSize = cbArrayExtT<tyCStrT>::muiLen;
     302:	8383      	strh	r3, [r0, #28]
     304:	f7ff fffe 	bl	0 <main>	304: R_ARM_THM_CALL	cRFont_Res8b_Bpp1_1G::i8PutString(cScreen*, bool)
     308:	9008      	str	r0, [sp, #32]
     30a:	e01f      	b.n	34c <main+0x34c>
     30c:	00000040 	.word	0x00000040	30c: R_ARM_ABS32	.rodata
	...
	310: R_ARM_ABS32	.data._ZZ4mainE10lu32Value3
	314: R_ARM_ABS32	.data._ZZ4mainE8lfValue3
     318:	40400000 	.word	0x40400000
	...
	31c: R_ARM_ABS32	.bss.mc16GScreen1
	320: R_ARM_ABS32	.bss.cRFont_Res8b_Bpp1_1G_Full
	324: R_ARM_ABS32	.bss.mc16GBm
	328: R_ARM_ABS32	.bss.mcDiffTimer
     32c:	00002720 	.word	0x00002720	32c: R_ARM_ABS32	mExtMemory
     330:	00000010 	.word	0x00000010	330: R_ARM_ABS32	mExtMemory
     334:	00000008 	.word	0x00000008	334: R_ARM_ABS32	.rodata.main.str1.4
     338:	00002720 	.word	0x00002720	338: R_ARM_ABS32	mIntMemory
     33c:	00000010 	.word	0x00000010	33c: R_ARM_ABS32	mIntMemory
     340:	0000001c 	.word	0x0000001c	340: R_ARM_ABS32	.rodata.main.str1.4
     344:	00000030 	.word	0x00000030	344: R_ARM_ABS32	.rodata.main.str1.4
     348:	00000000 	.word	0x00000000	348: R_ARM_ABS32	.rodata.main.str1.4
  cRFont_Res8b_Bpp1_1G_Full.i8PutStringXY(0, lu16Y, lcStrOutput.ToString(), &mc16GScreen1);
  ILI9341_Show(&mc16GBm);
     34c:	48bd      	ldr	r0, [pc, #756]	; (2f8 <ILI9341_Show+0x2f8>)
     34e:	f7ff fffe 	bl	0 <ILI9341_Show>	34e: R_ARM_THM_CALL	ILI9341_Show

  asm("nop"); // for breakpoint
     352:	bf00      	nop
  asm("nop"); // for breakpoint
     354:	bf00      	nop
     356:	f7ff fffe 	bl	0 <u32GetTimer>	356: R_ARM_THM_CALL	u32GetTimer
     35a:	4bbb      	ldr	r3, [pc, #748]	; (648 <main+0x648>)
     35c:	4ebb      	ldr	r6, [pc, #748]	; (64c <main+0x64c>)
     35e:	60d8      	str	r0, [r3, #12]
     360:	f242 7a10 	movw	sl, #10000	; 0x2710
  lu16Y += 10;
  mcDiffTimer.start();
  #define MyTest lu32Value3 = lu32Value3 * lu32Value2
  for (lu32TestLoop = 0; lu32TestLoop < TEST_REPETITIONS; lu32TestLoop++)
  {
    MyTest; MyTest; MyTest; MyTest; MyTest;
     364:	6822      	ldr	r2, [r4, #0]
     366:	6833      	ldr	r3, [r6, #0]
     368:	fb03 f302 	mul.w	r3, r3, r2
     36c:	6023      	str	r3, [r4, #0]
     36e:	6822      	ldr	r2, [r4, #0]
     370:	6833      	ldr	r3, [r6, #0]
     372:	fb03 f302 	mul.w	r3, r3, r2
     376:	6023      	str	r3, [r4, #0]
     378:	6822      	ldr	r2, [r4, #0]
     37a:	6833      	ldr	r3, [r6, #0]
     37c:	fb03 f302 	mul.w	r3, r3, r2
     380:	6023      	str	r3, [r4, #0]
     382:	6822      	ldr	r2, [r4, #0]
     384:	6833      	ldr	r3, [r6, #0]
     386:	fb03 f302 	mul.w	r3, r3, r2
     38a:	6023      	str	r3, [r4, #0]
     38c:	6822      	ldr	r2, [r4, #0]
     38e:	6833      	ldr	r3, [r6, #0]
     390:	fb03 f302 	mul.w	r3, r3, r2
     394:	6023      	str	r3, [r4, #0]
    MyTest; MyTest; MyTest; MyTest; MyTest;
     396:	6822      	ldr	r2, [r4, #0]
     398:	6833      	ldr	r3, [r6, #0]
     39a:	fb03 f302 	mul.w	r3, r3, r2
     39e:	6023      	str	r3, [r4, #0]
     3a0:	6822      	ldr	r2, [r4, #0]
     3a2:	6833      	ldr	r3, [r6, #0]
     3a4:	fb03 f302 	mul.w	r3, r3, r2
     3a8:	6023      	str	r3, [r4, #0]
     3aa:	6822      	ldr	r2, [r4, #0]
     3ac:	6833      	ldr	r3, [r6, #0]
     3ae:	fb03 f302 	mul.w	r3, r3, r2
     3b2:	6023      	str	r3, [r4, #0]
     3b4:	6822      	ldr	r2, [r4, #0]
     3b6:	6833      	ldr	r3, [r6, #0]
     3b8:	fb03 f302 	mul.w	r3, r3, r2
     3bc:	6023      	str	r3, [r4, #0]
     3be:	6822      	ldr	r2, [r4, #0]
     3c0:	6833      	ldr	r3, [r6, #0]
  for (lu32TestLoop = 0; lu32TestLoop < TEST_REPETITIONS; lu32TestLoop++)
     3c2:	f1ba 0a01 	subs.w	sl, sl, #1
    MyTest; MyTest; MyTest; MyTest; MyTest;
     3c6:	fb03 f302 	mul.w	r3, r3, r2
     3ca:	6023      	str	r3, [r4, #0]
  for (lu32TestLoop = 0; lu32TestLoop < TEST_REPETITIONS; lu32TestLoop++)
     3cc:	d1ca      	bne.n	364 <main+0x364>
  }
  #undef MyTest
  lcStrOutput.Setf("Int mul: %s us", mcDiffTimer.toString());
     3ce:	489e      	ldr	r0, [pc, #632]	; (648 <main+0x648>)
     3d0:	f7ff fffe 	bl	0 <main>	3d0: R_ARM_THM_CALL	cDiffTimer::toString()
     3d4:	499e      	ldr	r1, [pc, #632]	; (650 <main+0x650>)
     3d6:	4602      	mov	r2, r0
     3d8:	a810      	add	r0, sp, #64	; 0x40
     3da:	f7ff fffe 	bl	0 <main>	3da: R_ARM_THM_CALL	cStrBaseT<unsigned short>::Setf(char const*, ...)
      luiFreeByteCnt = cbArrayT<tyArrayExtIdxT>::muiSize - muiLen;
     3de:	f8bd 3046 	ldrh.w	r3, [sp, #70]	; 0x46
      if (luiFreeByteCnt)
     3e2:	f8bd 2040 	ldrh.w	r2, [sp, #64]	; 0x40
     3e6:	429a      	cmp	r2, r3
     3e8:	d008      	beq.n	3fc <main+0x3fc>
        cbArrayT<tyArrayExtIdxT>::mpu8Data[muiLen] = lui8Byte;
     3ea:	f8dd 2042 	ldr.w	r2, [sp, #66]	; 0x42
     3ee:	f802 a003 	strb.w	sl, [r2, r3]
        muiLen++;
     3f2:	f8bd 3046 	ldrh.w	r3, [sp, #70]	; 0x46
     3f6:	3301      	adds	r3, #1
     3f8:	f8ad 3046 	strh.w	r3, [sp, #70]	; 0x46
      mstStartPos.x = lixDestX;
     3fc:	4a95      	ldr	r2, [pc, #596]	; (654 <main+0x654>)
      return (char8*)cbArrayT<tyCStrT>::mpu8Data;
     3fe:	f8dd c042 	ldr.w	ip, [sp, #66]	; 0x42
     402:	f44f 1370 	mov.w	r3, #3932160	; 0x3c0000
     406:	6253      	str	r3, [r2, #36]	; 0x24
    for (lpszTemp = lpszSrc; *lpszTemp; ++lpszTemp);
     408:	f99c 3000 	ldrsb.w	r3, [ip]
     40c:	2b00      	cmp	r3, #0
     40e:	f000 87b2 	beq.w	1376 <main+0x1376>
     412:	4663      	mov	r3, ip
     414:	f913 2f01 	ldrsb.w	r2, [r3, #1]!
     418:	2a00      	cmp	r2, #0
     41a:	d1fb      	bne.n	414 <main+0x414>
    return (lpszTemp - lpszSrc);
     41c:	eba3 030c 	sub.w	r3, r3, ip
      cbArrayExtT<tyCStrT>::muiLen = (CSTRT_UINT)cStrT_strlen(lszStr);
     420:	488c      	ldr	r0, [pc, #560]	; (654 <main+0x654>)
      return i8PutString(lpcScr, lbSizeOnly);
     422:	498d      	ldr	r1, [pc, #564]	; (658 <main+0x658>)
      cbArrayT<tyCStrT>::mpu8Data = (uint8*)lszStr;
     424:	f8c0 c01e 	str.w	ip, [r0, #30]
      cbArrayExtT<tyCStrT>::muiLen = (CSTRT_UINT)cStrT_strlen(lszStr);
     428:	b29b      	uxth	r3, r3
     42a:	2200      	movs	r2, #0
     42c:	8443      	strh	r3, [r0, #34]	; 0x22
      cbArrayT<tyCStrT>::muiSize = cbArrayExtT<tyCStrT>::muiLen;
     42e:	8383      	strh	r3, [r0, #28]
     430:	f7ff fffe 	bl	0 <main>	430: R_ARM_THM_CALL	cRFont_Res8b_Bpp1_1G::i8PutString(cScreen*, bool)
     434:	9009      	str	r0, [sp, #36]	; 0x24
  cRFont_Res8b_Bpp1_1G_Full.i8PutStringXY(0, lu16Y, lcStrOutput.ToString(), &mc16GScreen1);
  ILI9341_Show(&mc16GBm);
     436:	4883      	ldr	r0, [pc, #524]	; (644 <main+0x644>)
     438:	f7ff fffe 	bl	0 <ILI9341_Show>	438: R_ARM_THM_CALL	ILI9341_Show

  asm("nop"); // for breakpoint
     43c:	bf00      	nop
  asm("nop"); // for breakpoint
     43e:	bf00      	nop


  // ----- Integer division -----
  lu16Y += 10;
  lu32Value3 = 1000000;
     440:	4b86      	ldr	r3, [pc, #536]	; (65c <main+0x65c>)
     442:	6023      	str	r3, [r4, #0]
     444:	f7ff fffe 	bl	0 <u32GetTimer>	444: R_ARM_THM_CALL	u32GetTimer
     448:	4b7f      	ldr	r3, [pc, #508]	; (648 <main+0x648>)
     44a:	f242 7a10 	movw	sl, #10000	; 0x2710
     44e:	60d8      	str	r0, [r3, #12]
  mcDiffTimer.start();
  #define MyTest lu32Value3 = lu32Value3 / lu32Value2
  for (lu32TestLoop = 0; lu32TestLoop < TEST_REPETITIONS; lu32TestLoop++)
  {
    MyTest; MyTest; MyTest; MyTest; MyTest;
     450:	6823      	ldr	r3, [r4, #0]
     452:	6832      	ldr	r2, [r6, #0]
     454:	fbb3 f3f2 	udiv	r3, r3, r2
     458:	6023      	str	r3, [r4, #0]
     45a:	6823      	ldr	r3, [r4, #0]
     45c:	6832      	ldr	r2, [r6, #0]
     45e:	fbb3 f3f2 	udiv	r3, r3, r2
     462:	6023      	str	r3, [r4, #0]
     464:	6823      	ldr	r3, [r4, #0]
     466:	6832      	ldr	r2, [r6, #0]
     468:	fbb3 f3f2 	udiv	r3, r3, r2
     46c:	6023      	str	r3, [r4, #0]
     46e:	6823      	ldr	r3, [r4, #0]
     470:	6832      	ldr	r2, [r6, #0]
     472:	fbb3 f3f2 	udiv	r3, r3, r2
     476:	6023      	str	r3, [r4, #0]
     478:	6823      	ldr	r3, [r4, #0]
     47a:	6832      	ldr	r2, [r6, #0]
     47c:	fbb3 f3f2 	udiv	r3, r3, r2
     480:	6023      	str	r3, [r4, #0]
    MyTest; MyTest; MyTest; MyTest; MyTest;
     482:	6823      	ldr	r3, [r4, #0]
     484:	6832      	ldr	r2, [r6, #0]
     486:	fbb3 f3f2 	udiv	r3, r3, r2
     48a:	6023      	str	r3, [r4, #0]
     48c:	6823      	ldr	r3, [r4, #0]
     48e:	6832      	ldr	r2, [r6, #0]
     490:	fbb3 f3f2 	udiv	r3, r3, r2
     494:	6023      	str	r3, [r4, #0]
     496:	6823      	ldr	r3, [r4, #0]
     498:	6832      	ldr	r2, [r6, #0]
     49a:	fbb3 f3f2 	udiv	r3, r3, r2
     49e:	6023      	str	r3, [r4, #0]
     4a0:	6823      	ldr	r3, [r4, #0]
     4a2:	6832      	ldr	r2, [r6, #0]
     4a4:	fbb3 f3f2 	udiv	r3, r3, r2
  for (lu32TestLoop = 0; lu32TestLoop < TEST_REPETITIONS; lu32TestLoop++)
     4a8:	f1ba 0a01 	subs.w	sl, sl, #1
    MyTest; MyTest; MyTest; MyTest; MyTest;
     4ac:	6023      	str	r3, [r4, #0]
     4ae:	6823      	ldr	r3, [r4, #0]
     4b0:	6832      	ldr	r2, [r6, #0]
     4b2:	fbb3 f3f2 	udiv	r3, r3, r2
     4b6:	6023      	str	r3, [r4, #0]
  for (lu32TestLoop = 0; lu32TestLoop < TEST_REPETITIONS; lu32TestLoop++)
     4b8:	d1ca      	bne.n	450 <main+0x450>
  }
  #undef MyTest
  lcStrOutput.Setf("Int div: %s us", mcDiffTimer.toString());
     4ba:	4863      	ldr	r0, [pc, #396]	; (648 <main+0x648>)
     4bc:	f7ff fffe 	bl	0 <main>	4bc: R_ARM_THM_CALL	cDiffTimer::toString()
     4c0:	4967      	ldr	r1, [pc, #412]	; (660 <main+0x660>)
     4c2:	4602      	mov	r2, r0
     4c4:	a810      	add	r0, sp, #64	; 0x40
     4c6:	f7ff fffe 	bl	0 <main>	4c6: R_ARM_THM_CALL	cStrBaseT<unsigned short>::Setf(char const*, ...)
      luiFreeByteCnt = cbArrayT<tyArrayExtIdxT>::muiSize - muiLen;
     4ca:	f8bd 3046 	ldrh.w	r3, [sp, #70]	; 0x46
      if (luiFreeByteCnt)
     4ce:	f8bd 2040 	ldrh.w	r2, [sp, #64]	; 0x40
     4d2:	429a      	cmp	r2, r3
     4d4:	d008      	beq.n	4e8 <main+0x4e8>
        cbArrayT<tyArrayExtIdxT>::mpu8Data[muiLen] = lui8Byte;
     4d6:	f8dd 2042 	ldr.w	r2, [sp, #66]	; 0x42
     4da:	f802 a003 	strb.w	sl, [r2, r3]
        muiLen++;
     4de:	f8bd 3046 	ldrh.w	r3, [sp, #70]	; 0x46
     4e2:	3301      	adds	r3, #1
     4e4:	f8ad 3046 	strh.w	r3, [sp, #70]	; 0x46
      mstStartPos.x = lixDestX;
     4e8:	4a5a      	ldr	r2, [pc, #360]	; (654 <main+0x654>)
      return (char8*)cbArrayT<tyCStrT>::mpu8Data;
     4ea:	f8dd 4042 	ldr.w	r4, [sp, #66]	; 0x42
     4ee:	f44f 038c 	mov.w	r3, #4587520	; 0x460000
     4f2:	6253      	str	r3, [r2, #36]	; 0x24
    for (lpszTemp = lpszSrc; *lpszTemp; ++lpszTemp);
     4f4:	f994 3000 	ldrsb.w	r3, [r4]
     4f8:	2b00      	cmp	r3, #0
     4fa:	f000 8739 	beq.w	1370 <main+0x1370>
     4fe:	4623      	mov	r3, r4
     500:	f913 2f01 	ldrsb.w	r2, [r3, #1]!
     504:	2a00      	cmp	r2, #0
     506:	d1fb      	bne.n	500 <main+0x500>
      cbArrayExtT<tyCStrT>::muiLen = (CSTRT_UINT)cStrT_strlen(lszStr);
     508:	4852      	ldr	r0, [pc, #328]	; (654 <main+0x654>)
      return i8PutString(lpcScr, lbSizeOnly);
     50a:	4953      	ldr	r1, [pc, #332]	; (658 <main+0x658>)
      cbArrayT<tyCStrT>::mpu8Data = (uint8*)lszStr;
     50c:	f8c0 401e 	str.w	r4, [r0, #30]
    return (lpszTemp - lpszSrc);
     510:	1b1b      	subs	r3, r3, r4
      cbArrayExtT<tyCStrT>::muiLen = (CSTRT_UINT)cStrT_strlen(lszStr);
     512:	b29b      	uxth	r3, r3
     514:	2200      	movs	r2, #0
     516:	8443      	strh	r3, [r0, #34]	; 0x22
      cbArrayT<tyCStrT>::muiSize = cbArrayExtT<tyCStrT>::muiLen;
     518:	8383      	strh	r3, [r0, #28]
     51a:	f7ff fffe 	bl	0 <main>	51a: R_ARM_THM_CALL	cRFont_Res8b_Bpp1_1G::i8PutString(cScreen*, bool)
     51e:	900a      	str	r0, [sp, #40]	; 0x28
  cRFont_Res8b_Bpp1_1G_Full.i8PutStringXY(0, lu16Y, lcStrOutput.ToString(), &mc16GScreen1);
  ILI9341_Show(&mc16GBm);
     520:	4848      	ldr	r0, [pc, #288]	; (644 <main+0x644>)
     522:	f7ff fffe 	bl	0 <ILI9341_Show>	522: R_ARM_THM_CALL	ILI9341_Show

  asm("nop"); // for breakpoint
     526:	bf00      	nop
  asm("nop"); // for breakpoint
     528:	bf00      	nop
     52a:	f7ff fffe 	bl	0 <u32GetTimer>	52a: R_ARM_THM_CALL	u32GetTimer
     52e:	4b46      	ldr	r3, [pc, #280]	; (648 <main+0x648>)
     530:	4c4c      	ldr	r4, [pc, #304]	; (664 <main+0x664>)
     532:	60d8      	str	r0, [r3, #12]
     534:	f242 7610 	movw	r6, #10000	; 0x2710
  lu16Y += 10;
  mcDiffTimer.start();
  #define MyTest lfValue3 = lfValue3 * lfValue2
  for (lu32TestLoop = 0; lu32TestLoop < TEST_REPETITIONS; lu32TestLoop++)
  {
    MyTest; MyTest; MyTest; MyTest; MyTest;
     538:	ed95 7a00 	vldr	s14, [r5]
     53c:	edd4 7a00 	vldr	s15, [r4]
     540:	ee67 7a27 	vmul.f32	s15, s14, s15
  for (lu32TestLoop = 0; lu32TestLoop < TEST_REPETITIONS; lu32TestLoop++)
     544:	3e01      	subs	r6, #1
    MyTest; MyTest; MyTest; MyTest; MyTest;
     546:	edc5 7a00 	vstr	s15, [r5]
     54a:	ed95 7a00 	vldr	s14, [r5]
     54e:	edd4 7a00 	vldr	s15, [r4]
     552:	ee67 7a27 	vmul.f32	s15, s14, s15
     556:	edc5 7a00 	vstr	s15, [r5]
     55a:	ed95 7a00 	vldr	s14, [r5]
     55e:	edd4 7a00 	vldr	s15, [r4]
     562:	ee67 7a27 	vmul.f32	s15, s14, s15
     566:	edc5 7a00 	vstr	s15, [r5]
     56a:	ed95 7a00 	vldr	s14, [r5]
     56e:	edd4 7a00 	vldr	s15, [r4]
     572:	ee67 7a27 	vmul.f32	s15, s14, s15
     576:	edc5 7a00 	vstr	s15, [r5]
     57a:	ed95 7a00 	vldr	s14, [r5]
     57e:	edd4 7a00 	vldr	s15, [r4]
     582:	ee67 7a27 	vmul.f32	s15, s14, s15
     586:	edc5 7a00 	vstr	s15, [r5]
    MyTest; MyTest; MyTest; MyTest; MyTest;
     58a:	ed95 7a00 	vldr	s14, [r5]
     58e:	edd4 7a00 	vldr	s15, [r4]
     592:	ee67 7a27 	vmul.f32	s15, s14, s15
     596:	edc5 7a00 	vstr	s15, [r5]
     59a:	ed95 7a00 	vldr	s14, [r5]
     59e:	edd4 7a00 	vldr	s15, [r4]
     5a2:	ee67 7a27 	vmul.f32	s15, s14, s15
     5a6:	edc5 7a00 	vstr	s15, [r5]
     5aa:	ed95 7a00 	vldr	s14, [r5]
     5ae:	edd4 7a00 	vldr	s15, [r4]
     5b2:	ee67 7a27 	vmul.f32	s15, s14, s15
     5b6:	edc5 7a00 	vstr	s15, [r5]
     5ba:	ed95 7a00 	vldr	s14, [r5]
     5be:	edd4 7a00 	vldr	s15, [r4]
     5c2:	ee67 7a27 	vmul.f32	s15, s14, s15
     5c6:	edc5 7a00 	vstr	s15, [r5]
     5ca:	ed95 7a00 	vldr	s14, [r5]
     5ce:	edd4 7a00 	vldr	s15, [r4]
     5d2:	ee67 7a27 	vmul.f32	s15, s14, s15
     5d6:	edc5 7a00 	vstr	s15, [r5]
  for (lu32TestLoop = 0; lu32TestLoop < TEST_REPETITIONS; lu32TestLoop++)
     5da:	d1ad      	bne.n	538 <main+0x538>
  }
  #undef MyTest
  lcStrOutput.Setf("Float mul: %s us", mcDiffTimer.toString());
     5dc:	481a      	ldr	r0, [pc, #104]	; (648 <main+0x648>)
     5de:	f7ff fffe 	bl	0 <main>	5de: R_ARM_THM_CALL	cDiffTimer::toString()
     5e2:	4921      	ldr	r1, [pc, #132]	; (668 <main+0x668>)
     5e4:	4602      	mov	r2, r0
     5e6:	a810      	add	r0, sp, #64	; 0x40
     5e8:	f7ff fffe 	bl	0 <main>	5e8: R_ARM_THM_CALL	cStrBaseT<unsigned short>::Setf(char const*, ...)
      luiFreeByteCnt = cbArrayT<tyArrayExtIdxT>::muiSize - muiLen;
     5ec:	f8bd 3046 	ldrh.w	r3, [sp, #70]	; 0x46
      if (luiFreeByteCnt)
     5f0:	f8bd 2040 	ldrh.w	r2, [sp, #64]	; 0x40
     5f4:	429a      	cmp	r2, r3
     5f6:	d007      	beq.n	608 <main+0x608>
        cbArrayT<tyArrayExtIdxT>::mpu8Data[muiLen] = lui8Byte;
     5f8:	f8dd 2042 	ldr.w	r2, [sp, #66]	; 0x42
     5fc:	54d6      	strb	r6, [r2, r3]
        muiLen++;
     5fe:	f8bd 3046 	ldrh.w	r3, [sp, #70]	; 0x46
     602:	3301      	adds	r3, #1
     604:	f8ad 3046 	strh.w	r3, [sp, #70]	; 0x46
      mstStartPos.x = lixDestX;
     608:	4a12      	ldr	r2, [pc, #72]	; (654 <main+0x654>)
      return (char8*)cbArrayT<tyCStrT>::mpu8Data;
     60a:	f8dd 6042 	ldr.w	r6, [sp, #66]	; 0x42
     60e:	f44f 03a0 	mov.w	r3, #5242880	; 0x500000
     612:	6253      	str	r3, [r2, #36]	; 0x24
    for (lpszTemp = lpszSrc; *lpszTemp; ++lpszTemp);
     614:	f996 3000 	ldrsb.w	r3, [r6]
     618:	2b00      	cmp	r3, #0
     61a:	f000 86a6 	beq.w	136a <main+0x136a>
     61e:	4633      	mov	r3, r6
     620:	f913 2f01 	ldrsb.w	r2, [r3, #1]!
     624:	2a00      	cmp	r2, #0
     626:	d1fb      	bne.n	620 <main+0x620>
      cbArrayExtT<tyCStrT>::muiLen = (CSTRT_UINT)cStrT_strlen(lszStr);
     628:	480a      	ldr	r0, [pc, #40]	; (654 <main+0x654>)
      return i8PutString(lpcScr, lbSizeOnly);
     62a:	490b      	ldr	r1, [pc, #44]	; (658 <main+0x658>)
      cbArrayT<tyCStrT>::mpu8Data = (uint8*)lszStr;
     62c:	f8c0 601e 	str.w	r6, [r0, #30]
    return (lpszTemp - lpszSrc);
     630:	1b9b      	subs	r3, r3, r6
      cbArrayExtT<tyCStrT>::muiLen = (CSTRT_UINT)cStrT_strlen(lszStr);
     632:	b29b      	uxth	r3, r3
     634:	2200      	movs	r2, #0
     636:	8443      	strh	r3, [r0, #34]	; 0x22
      cbArrayT<tyCStrT>::muiSize = cbArrayExtT<tyCStrT>::muiLen;
     638:	8383      	strh	r3, [r0, #28]
     63a:	f7ff fffe 	bl	0 <main>	63a: R_ARM_THM_CALL	cRFont_Res8b_Bpp1_1G::i8PutString(cScreen*, bool)
     63e:	900b      	str	r0, [sp, #44]	; 0x2c
     640:	e014      	b.n	66c <main+0x66c>
     642:	bf00      	nop
	...
	644: R_ARM_ABS32	.bss.mc16GBm
	648: R_ARM_ABS32	.bss.mcDiffTimer
	64c: R_ARM_ABS32	.data._ZZ4mainE10lu32Value2
     650:	00000048 	.word	0x00000048	650: R_ARM_ABS32	.rodata.main.str1.4
	...
	654: R_ARM_ABS32	.bss.cRFont_Res8b_Bpp1_1G_Full
	658: R_ARM_ABS32	.bss.mc16GScreen1
     65c:	000f4240 	.word	0x000f4240
     660:	00000058 	.word	0x00000058	660: R_ARM_ABS32	.rodata.main.str1.4
     664:	00000000 	.word	0x00000000	664: R_ARM_ABS32	.data._ZZ4mainE8lfValue2
     668:	00000068 	.word	0x00000068	668: R_ARM_ABS32	.rodata.main.str1.4
  cRFont_Res8b_Bpp1_1G_Full.i8PutStringXY(0, lu16Y, lcStrOutput.ToString(), &mc16GScreen1);
  ILI9341_Show(&mc16GBm);
     66c:	48d8      	ldr	r0, [pc, #864]	; (364 <ILI9341_Show+0x364>)
     66e:	f7ff fffe 	bl	0 <ILI9341_Show>	66e: R_ARM_THM_CALL	ILI9341_Show

  asm("nop"); // for breakpoint
     672:	bf00      	nop
  asm("nop"); // for breakpoint
     674:	bf00      	nop
     676:	f7ff fffe 	bl	0 <u32GetTimer>	676: R_ARM_THM_CALL	u32GetTimer
     67a:	4bd6      	ldr	r3, [pc, #856]	; (9d4 <main+0x9d4>)
     67c:	f242 7610 	movw	r6, #10000	; 0x2710
     680:	60d8      	str	r0, [r3, #12]
  lu16Y += 10;
  mcDiffTimer.start();
  #define MyTest lfValue3 = lfValue3 / lfValue2
  for (lu32TestLoop = 0; lu32TestLoop < TEST_REPETITIONS; lu32TestLoop++)
  {
    MyTest; MyTest; MyTest; MyTest; MyTest;
     682:	edd5 6a00 	vldr	s13, [r5]
     686:	ed94 7a00 	vldr	s14, [r4]
     68a:	eec6 7a87 	vdiv.f32	s15, s13, s14
  for (lu32TestLoop = 0; lu32TestLoop < TEST_REPETITIONS; lu32TestLoop++)
     68e:	3e01      	subs	r6, #1
    MyTest; MyTest; MyTest; MyTest; MyTest;
     690:	edc5 7a00 	vstr	s15, [r5]
     694:	edd5 6a00 	vldr	s13, [r5]
     698:	ed94 7a00 	vldr	s14, [r4]
     69c:	eec6 7a87 	vdiv.f32	s15, s13, s14
     6a0:	edc5 7a00 	vstr	s15, [r5]
     6a4:	edd5 6a00 	vldr	s13, [r5]
     6a8:	ed94 7a00 	vldr	s14, [r4]
     6ac:	eec6 7a87 	vdiv.f32	s15, s13, s14
     6b0:	edc5 7a00 	vstr	s15, [r5]
     6b4:	edd5 6a00 	vldr	s13, [r5]
     6b8:	ed94 7a00 	vldr	s14, [r4]
     6bc:	eec6 7a87 	vdiv.f32	s15, s13, s14
     6c0:	edc5 7a00 	vstr	s15, [r5]
     6c4:	edd5 6a00 	vldr	s13, [r5]
     6c8:	ed94 7a00 	vldr	s14, [r4]
     6cc:	eec6 7a87 	vdiv.f32	s15, s13, s14
     6d0:	edc5 7a00 	vstr	s15, [r5]
    MyTest; MyTest; MyTest; MyTest; MyTest;
     6d4:	edd5 6a00 	vldr	s13, [r5]
     6d8:	ed94 7a00 	vldr	s14, [r4]
     6dc:	eec6 7a87 	vdiv.f32	s15, s13, s14
     6e0:	edc5 7a00 	vstr	s15, [r5]
     6e4:	edd5 6a00 	vldr	s13, [r5]
     6e8:	ed94 7a00 	vldr	s14, [r4]
     6ec:	eec6 7a87 	vdiv.f32	s15, s13, s14
     6f0:	edc5 7a00 	vstr	s15, [r5]
     6f4:	edd5 6a00 	vldr	s13, [r5]
     6f8:	ed94 7a00 	vldr	s14, [r4]
     6fc:	eec6 7a87 	vdiv.f32	s15, s13, s14
     700:	edc5 7a00 	vstr	s15, [r5]
     704:	edd5 6a00 	vldr	s13, [r5]
     708:	ed94 7a00 	vldr	s14, [r4]
     70c:	eec6 7a87 	vdiv.f32	s15, s13, s14
     710:	edc5 7a00 	vstr	s15, [r5]
     714:	edd5 6a00 	vldr	s13, [r5]
     718:	ed94 7a00 	vldr	s14, [r4]
     71c:	eec6 7a87 	vdiv.f32	s15, s13, s14
     720:	edc5 7a00 	vstr	s15, [r5]
  for (lu32TestLoop = 0; lu32TestLoop < TEST_REPETITIONS; lu32TestLoop++)
     724:	d1ad      	bne.n	682 <main+0x682>
  }
  #undef MyTest
  lcStrOutput.Setf("Float div: %s us", mcDiffTimer.toString());
     726:	48ab      	ldr	r0, [pc, #684]	; (9d4 <main+0x9d4>)
     728:	f7ff fffe 	bl	0 <main>	728: R_ARM_THM_CALL	cDiffTimer::toString()
     72c:	49aa      	ldr	r1, [pc, #680]	; (9d8 <main+0x9d8>)
     72e:	4602      	mov	r2, r0
     730:	a810      	add	r0, sp, #64	; 0x40
     732:	f7ff fffe 	bl	0 <main>	732: R_ARM_THM_CALL	cStrBaseT<unsigned short>::Setf(char const*, ...)
      luiFreeByteCnt = cbArrayT<tyArrayExtIdxT>::muiSize - muiLen;
     736:	f8bd 3046 	ldrh.w	r3, [sp, #70]	; 0x46
      if (luiFreeByteCnt)
     73a:	f8bd 2040 	ldrh.w	r2, [sp, #64]	; 0x40
     73e:	429a      	cmp	r2, r3
     740:	d007      	beq.n	752 <main+0x752>
        cbArrayT<tyArrayExtIdxT>::mpu8Data[muiLen] = lui8Byte;
     742:	f8dd 2042 	ldr.w	r2, [sp, #66]	; 0x42
     746:	54d6      	strb	r6, [r2, r3]
        muiLen++;
     748:	f8bd 3046 	ldrh.w	r3, [sp, #70]	; 0x46
     74c:	3301      	adds	r3, #1
     74e:	f8ad 3046 	strh.w	r3, [sp, #70]	; 0x46
      mstStartPos.x = lixDestX;
     752:	4aa2      	ldr	r2, [pc, #648]	; (9dc <main+0x9dc>)
      return (char8*)cbArrayT<tyCStrT>::mpu8Data;
     754:	f8dd 4042 	ldr.w	r4, [sp, #66]	; 0x42
     758:	f44f 03b4 	mov.w	r3, #5898240	; 0x5a0000
     75c:	6253      	str	r3, [r2, #36]	; 0x24
    for (lpszTemp = lpszSrc; *lpszTemp; ++lpszTemp);
     75e:	f994 3000 	ldrsb.w	r3, [r4]
     762:	2b00      	cmp	r3, #0
     764:	f000 85fe 	beq.w	1364 <main+0x1364>
     768:	4623      	mov	r3, r4
     76a:	f913 2f01 	ldrsb.w	r2, [r3, #1]!
     76e:	2a00      	cmp	r2, #0
     770:	d1fb      	bne.n	76a <main+0x76a>
      return i8PutString(lpcScr, lbSizeOnly);
     772:	489a      	ldr	r0, [pc, #616]	; (9dc <main+0x9dc>)
     774:	499a      	ldr	r1, [pc, #616]	; (9e0 <main+0x9e0>)
      cbArrayT<tyCStrT>::mpu8Data = (uint8*)lszStr;
     776:	f8c0 401e 	str.w	r4, [r0, #30]
    return (lpszTemp - lpszSrc);
     77a:	1b1b      	subs	r3, r3, r4
      cbArrayExtT<tyCStrT>::muiLen = (CSTRT_UINT)cStrT_strlen(lszStr);
     77c:	b29b      	uxth	r3, r3
     77e:	2200      	movs	r2, #0
     780:	8443      	strh	r3, [r0, #34]	; 0x22
      cbArrayT<tyCStrT>::muiSize = cbArrayExtT<tyCStrT>::muiLen;
     782:	8383      	strh	r3, [r0, #28]
     784:	f7ff fffe 	bl	0 <main>	784: R_ARM_THM_CALL	cRFont_Res8b_Bpp1_1G::i8PutString(cScreen*, bool)
     788:	900c      	str	r0, [sp, #48]	; 0x30
  cRFont_Res8b_Bpp1_1G_Full.i8PutStringXY(0, lu16Y, lcStrOutput.ToString(), &mc16GScreen1);
  ILI9341_Show(&mc16GBm);
     78a:	4891      	ldr	r0, [pc, #580]	; (9d0 <main+0x9d0>)
     78c:	f7ff fffe 	bl	0 <ILI9341_Show>	78c: R_ARM_THM_CALL	ILI9341_Show

  asm("nop"); // for breakpoint
     790:	bf00      	nop
  asm("nop"); // for breakpoint
     792:	bf00      	nop
     794:	f7ff fffe 	bl	0 <u32GetTimer>	794: R_ARM_THM_CALL	u32GetTimer
     798:	4b8e      	ldr	r3, [pc, #568]	; (9d4 <main+0x9d4>)
     79a:	60d8      	str	r0, [r3, #12]
     79c:	f109 0310 	add.w	r3, r9, #16
     7a0:	9303      	str	r3, [sp, #12]
     7a2:	f107 0340 	add.w	r3, r7, #64	; 0x40
     7a6:	9302      	str	r3, [sp, #8]
     7a8:	f242 7310 	movw	r3, #10000	; 0x2710
     7ac:	9301      	str	r3, [sp, #4]
    arm_mat_init_f32(&mstMat1, 4, 4, null);
     7ae:	2204      	movs	r2, #4
     7b0:	4611      	mov	r1, r2
     7b2:	2300      	movs	r3, #0
     7b4:	a8a0      	add	r0, sp, #640	; 0x280
     7b6:	f7ff fffe 	bl	0 <arm_mat_init_f32>	7b6: R_ARM_THM_CALL	arm_mat_init_f32
    arm_mat_init_f32(&mstMat2, 4, 4, null);
     7ba:	2204      	movs	r2, #4
     7bc:	4611      	mov	r1, r2
     7be:	2300      	movs	r3, #0
     7c0:	a8a2      	add	r0, sp, #648	; 0x288
     7c2:	f7ff fffe 	bl	0 <arm_mat_init_f32>	7c2: R_ARM_THM_CALL	arm_mat_init_f32
    arm_mat_init_f32(&mstRet, 4, 4, (float*)m);
     7c6:	2204      	movs	r2, #4
     7c8:	4611      	mov	r1, r2
     7ca:	a8a4      	add	r0, sp, #656	; 0x290
     7cc:	ab90      	add	r3, sp, #576	; 0x240
     7ce:	f7ff fffe 	bl	0 <arm_mat_init_f32>	7ce: R_ARM_THM_CALL	arm_mat_init_f32
     7d2:	e9dd 1002 	ldrd	r1, r0, [sp, #8]
     7d6:	46ca      	mov	sl, r9
     7d8:	aa90      	add	r2, sp, #576	; 0x240
        lcRet.m[c][r] = mat1.m[r][0] * mat2.m[0][c] +
     7da:	ecba 4a01 	vldmia	sl!, {s8}
                        mat1.m[r][1] * mat2.m[1][c] +
     7de:	edda 4a03 	vldr	s9, [sl, #12]
                        mat1.m[r][2] * mat2.m[2][c] +
     7e2:	ed9a 5a07 	vldr	s10, [sl, #28]
                        mat1.m[r][3] * mat2.m[3][c];
     7e6:	edda 5a0b 	vldr	s11, [sl, #44]	; 0x2c
     7ea:	4613      	mov	r3, r2
     7ec:	463d      	mov	r5, r7
                        mat1.m[r][1] * mat2.m[1][c] +
     7ee:	edd5 7a01 	vldr	s15, [r5, #4]
        lcRet.m[c][r] = mat1.m[r][0] * mat2.m[0][c] +
     7f2:	ed95 6a00 	vldr	s12, [r5]
                        mat1.m[r][1] * mat2.m[1][c] +
     7f6:	edd5 6a02 	vldr	s13, [r5, #8]
                        mat1.m[r][2] * mat2.m[2][c] +
     7fa:	ed95 7a03 	vldr	s14, [r5, #12]
                        mat1.m[r][1] * mat2.m[1][c] +
     7fe:	ee64 7aa7 	vmul.f32	s15, s9, s15
     802:	3510      	adds	r5, #16
        lcRet.m[c][r] = mat1.m[r][0] * mat2.m[0][c] +
     804:	eee6 7a04 	vfma.f32	s15, s12, s8
      for (r = 0; r < 4; r++)
     808:	42a9      	cmp	r1, r5
                        mat1.m[r][1] * mat2.m[1][c] +
     80a:	eee6 7a85 	vfma.f32	s15, s13, s10
                        mat1.m[r][2] * mat2.m[2][c] +
     80e:	eee7 7a25 	vfma.f32	s15, s14, s11
        lcRet.m[c][r] = mat1.m[r][0] * mat2.m[0][c] +
     812:	ece3 7a01 	vstmia	r3!, {s15}
      for (r = 0; r < 4; r++)
     816:	d1ea      	bne.n	7ee <main+0x7ee>
    for (c = 0; c < 4; c++)
     818:	4550      	cmp	r0, sl
     81a:	f102 0210 	add.w	r2, r2, #16
     81e:	d1dc      	bne.n	7da <main+0x7da>
    *this = lcRet;
     820:	2258      	movs	r2, #88	; 0x58
     822:	a990      	add	r1, sp, #576	; 0x240
     824:	4658      	mov	r0, fp
     826:	f7ff fffe 	bl	0 <memcpy>	826: R_ARM_THM_CALL	memcpy
    arm_mat_init_f32(&mstMat1, 4, 4, null);
     82a:	2204      	movs	r2, #4
     82c:	4611      	mov	r1, r2
     82e:	2300      	movs	r3, #0
     830:	a8a0      	add	r0, sp, #640	; 0x280
     832:	f7ff fffe 	bl	0 <arm_mat_init_f32>	832: R_ARM_THM_CALL	arm_mat_init_f32
    arm_mat_init_f32(&mstMat2, 4, 4, null);
     836:	2204      	movs	r2, #4
     838:	4611      	mov	r1, r2
     83a:	2300      	movs	r3, #0
     83c:	a8a2      	add	r0, sp, #648	; 0x288
     83e:	f7ff fffe 	bl	0 <arm_mat_init_f32>	83e: R_ARM_THM_CALL	arm_mat_init_f32
    arm_mat_init_f32(&mstRet, 4, 4, (float*)m);
     842:	2204      	movs	r2, #4
     844:	4611      	mov	r1, r2
     846:	ab90      	add	r3, sp, #576	; 0x240
     848:	a8a4      	add	r0, sp, #656	; 0x290
     84a:	f7ff fffe 	bl	0 <arm_mat_init_f32>	84a: R_ARM_THM_CALL	arm_mat_init_f32
     84e:	464e      	mov	r6, r9
     850:	aa90      	add	r2, sp, #576	; 0x240
        lcRet.m[c][r] = mat1.m[r][0] * mat2.m[0][c] +
     852:	ecb6 4a01 	vldmia	r6!, {s8}
                        mat1.m[r][1] * mat2.m[1][c] +
     856:	edd6 4a03 	vldr	s9, [r6, #12]
                        mat1.m[r][2] * mat2.m[2][c] +
     85a:	ed96 5a07 	vldr	s10, [r6, #28]
                        mat1.m[r][3] * mat2.m[3][c];
     85e:	edd6 5a0b 	vldr	s11, [r6, #44]	; 0x2c
     862:	4613      	mov	r3, r2
     864:	463c      	mov	r4, r7
                        mat1.m[r][1] * mat2.m[1][c] +
     866:	edd4 7a01 	vldr	s15, [r4, #4]
        lcRet.m[c][r] = mat1.m[r][0] * mat2.m[0][c] +
     86a:	ed94 6a00 	vldr	s12, [r4]
                        mat1.m[r][1] * mat2.m[1][c] +
     86e:	edd4 6a02 	vldr	s13, [r4, #8]
                        mat1.m[r][2] * mat2.m[2][c] +
     872:	ed94 7a03 	vldr	s14, [r4, #12]
                        mat1.m[r][1] * mat2.m[1][c] +
     876:	ee64 7aa7 	vmul.f32	s15, s9, s15
     87a:	3410      	adds	r4, #16
        lcRet.m[c][r] = mat1.m[r][0] * mat2.m[0][c] +
     87c:	eee6 7a04 	vfma.f32	s15, s12, s8
      for (r = 0; r < 4; r++)
     880:	42a5      	cmp	r5, r4
                        mat1.m[r][1] * mat2.m[1][c] +
     882:	eee6 7a85 	vfma.f32	s15, s13, s10
                        mat1.m[r][2] * mat2.m[2][c] +
     886:	eee7 7a25 	vfma.f32	s15, s14, s11
        lcRet.m[c][r] = mat1.m[r][0] * mat2.m[0][c] +
     88a:	ece3 7a01 	vstmia	r3!, {s15}
      for (r = 0; r < 4; r++)
     88e:	d1ea      	bne.n	866 <main+0x866>
    for (c = 0; c < 4; c++)
     890:	45b2      	cmp	sl, r6
     892:	f102 0210 	add.w	r2, r2, #16
     896:	d1dc      	bne.n	852 <main+0x852>
    *this = lcRet;
     898:	2258      	movs	r2, #88	; 0x58
     89a:	a990      	add	r1, sp, #576	; 0x240
     89c:	4658      	mov	r0, fp
     89e:	f7ff fffe 	bl	0 <memcpy>	89e: R_ARM_THM_CALL	memcpy
    arm_mat_init_f32(&mstMat1, 4, 4, null);
     8a2:	2204      	movs	r2, #4
     8a4:	4611      	mov	r1, r2
     8a6:	2300      	movs	r3, #0
     8a8:	a8a0      	add	r0, sp, #640	; 0x280
     8aa:	f7ff fffe 	bl	0 <arm_mat_init_f32>	8aa: R_ARM_THM_CALL	arm_mat_init_f32
    arm_mat_init_f32(&mstMat2, 4, 4, null);
     8ae:	2204      	movs	r2, #4
     8b0:	4611      	mov	r1, r2
     8b2:	2300      	movs	r3, #0
     8b4:	a8a2      	add	r0, sp, #648	; 0x288
     8b6:	f7ff fffe 	bl	0 <arm_mat_init_f32>	8b6: R_ARM_THM_CALL	arm_mat_init_f32
    arm_mat_init_f32(&mstRet, 4, 4, (float*)m);
     8ba:	2204      	movs	r2, #4
     8bc:	4611      	mov	r1, r2
     8be:	a8a4      	add	r0, sp, #656	; 0x290
     8c0:	ab90      	add	r3, sp, #576	; 0x240
     8c2:	f7ff fffe 	bl	0 <arm_mat_init_f32>	8c2: R_ARM_THM_CALL	arm_mat_init_f32
     8c6:	a890      	add	r0, sp, #576	; 0x240
     8c8:	4649      	mov	r1, r9
        lcRet.m[c][r] = mat1.m[r][0] * mat2.m[0][c] +
     8ca:	ecb1 4a01 	vldmia	r1!, {s8}
                        mat1.m[r][1] * mat2.m[1][c] +
     8ce:	edd1 4a03 	vldr	s9, [r1, #12]
                        mat1.m[r][2] * mat2.m[2][c] +
     8d2:	ed91 5a07 	vldr	s10, [r1, #28]
                        mat1.m[r][3] * mat2.m[3][c];
     8d6:	edd1 5a0b 	vldr	s11, [r1, #44]	; 0x2c
     8da:	4602      	mov	r2, r0
     8dc:	463b      	mov	r3, r7
                        mat1.m[r][1] * mat2.m[1][c] +
     8de:	edd3 7a01 	vldr	s15, [r3, #4]
        lcRet.m[c][r] = mat1.m[r][0] * mat2.m[0][c] +
     8e2:	ed93 6a00 	vldr	s12, [r3]
                        mat1.m[r][1] * mat2.m[1][c] +
     8e6:	edd3 6a02 	vldr	s13, [r3, #8]
                        mat1.m[r][2] * mat2.m[2][c] +
     8ea:	ed93 7a03 	vldr	s14, [r3, #12]
                        mat1.m[r][1] * mat2.m[1][c] +
     8ee:	ee64 7aa7 	vmul.f32	s15, s9, s15
     8f2:	3310      	adds	r3, #16
        lcRet.m[c][r] = mat1.m[r][0] * mat2.m[0][c] +
     8f4:	eee6 7a04 	vfma.f32	s15, s12, s8
      for (r = 0; r < 4; r++)
     8f8:	429c      	cmp	r4, r3
                        mat1.m[r][1] * mat2.m[1][c] +
     8fa:	eee6 7a85 	vfma.f32	s15, s13, s10
                        mat1.m[r][2] * mat2.m[2][c] +
     8fe:	eee7 7a25 	vfma.f32	s15, s14, s11
        lcRet.m[c][r] = mat1.m[r][0] * mat2.m[0][c] +
     902:	ece2 7a01 	vstmia	r2!, {s15}
      for (r = 0; r < 4; r++)
     906:	d1ea      	bne.n	8de <main+0x8de>
    for (c = 0; c < 4; c++)
     908:	428e      	cmp	r6, r1
     90a:	f100 0010 	add.w	r0, r0, #16
     90e:	d1dc      	bne.n	8ca <main+0x8ca>
    *this = lcRet;
     910:	2258      	movs	r2, #88	; 0x58
     912:	a990      	add	r1, sp, #576	; 0x240
     914:	4658      	mov	r0, fp
     916:	f7ff fffe 	bl	0 <memcpy>	916: R_ARM_THM_CALL	memcpy
    arm_mat_init_f32(&mstMat1, 4, 4, null);
     91a:	2204      	movs	r2, #4
     91c:	4611      	mov	r1, r2
     91e:	2300      	movs	r3, #0
     920:	a8a0      	add	r0, sp, #640	; 0x280
     922:	f7ff fffe 	bl	0 <arm_mat_init_f32>	922: R_ARM_THM_CALL	arm_mat_init_f32
    arm_mat_init_f32(&mstMat2, 4, 4, null);
     926:	2204      	movs	r2, #4
     928:	4611      	mov	r1, r2
     92a:	2300      	movs	r3, #0
     92c:	a8a2      	add	r0, sp, #648	; 0x288
     92e:	f7ff fffe 	bl	0 <arm_mat_init_f32>	92e: R_ARM_THM_CALL	arm_mat_init_f32
    arm_mat_init_f32(&mstRet, 4, 4, (float*)m);
     932:	2204      	movs	r2, #4
     934:	4611      	mov	r1, r2
     936:	a8a4      	add	r0, sp, #656	; 0x290
     938:	ab90      	add	r3, sp, #576	; 0x240
     93a:	f7ff fffe 	bl	0 <arm_mat_init_f32>	93a: R_ARM_THM_CALL	arm_mat_init_f32
     93e:	a890      	add	r0, sp, #576	; 0x240
     940:	4649      	mov	r1, r9
        lcRet.m[c][r] = mat1.m[r][0] * mat2.m[0][c] +
     942:	ecb1 4a01 	vldmia	r1!, {s8}
                        mat1.m[r][1] * mat2.m[1][c] +
     946:	edd1 4a03 	vldr	s9, [r1, #12]
                        mat1.m[r][2] * mat2.m[2][c] +
     94a:	ed91 5a07 	vldr	s10, [r1, #28]
                        mat1.m[r][3] * mat2.m[3][c];
     94e:	edd1 5a0b 	vldr	s11, [r1, #44]	; 0x2c
     952:	4602      	mov	r2, r0
     954:	463b      	mov	r3, r7
                        mat1.m[r][1] * mat2.m[1][c] +
     956:	edd3 7a01 	vldr	s15, [r3, #4]
        lcRet.m[c][r] = mat1.m[r][0] * mat2.m[0][c] +
     95a:	ed93 6a00 	vldr	s12, [r3]
                        mat1.m[r][1] * mat2.m[1][c] +
     95e:	edd3 6a02 	vldr	s13, [r3, #8]
                        mat1.m[r][2] * mat2.m[2][c] +
     962:	ed93 7a03 	vldr	s14, [r3, #12]
                        mat1.m[r][1] * mat2.m[1][c] +
     966:	ee64 7aa7 	vmul.f32	s15, s9, s15
     96a:	3310      	adds	r3, #16
        lcRet.m[c][r] = mat1.m[r][0] * mat2.m[0][c] +
     96c:	eee6 7a04 	vfma.f32	s15, s12, s8
      for (r = 0; r < 4; r++)
     970:	429c      	cmp	r4, r3
                        mat1.m[r][1] * mat2.m[1][c] +
     972:	eee6 7a85 	vfma.f32	s15, s13, s10
                        mat1.m[r][2] * mat2.m[2][c] +
     976:	eee7 7a25 	vfma.f32	s15, s14, s11
        lcRet.m[c][r] = mat1.m[r][0] * mat2.m[0][c] +
     97a:	ece2 7a01 	vstmia	r2!, {s15}
      for (r = 0; r < 4; r++)
     97e:	d1ea      	bne.n	956 <main+0x956>
    for (c = 0; c < 4; c++)
     980:	428e      	cmp	r6, r1
     982:	f100 0010 	add.w	r0, r0, #16
     986:	d1dc      	bne.n	942 <main+0x942>
    *this = lcRet;
     988:	2258      	movs	r2, #88	; 0x58
     98a:	a990      	add	r1, sp, #576	; 0x240
     98c:	4658      	mov	r0, fp
     98e:	f7ff fffe 	bl	0 <memcpy>	98e: R_ARM_THM_CALL	memcpy
    arm_mat_init_f32(&mstMat1, 4, 4, null);
     992:	2204      	movs	r2, #4
     994:	4611      	mov	r1, r2
     996:	2300      	movs	r3, #0
     998:	a8a0      	add	r0, sp, #640	; 0x280
     99a:	f7ff fffe 	bl	0 <arm_mat_init_f32>	99a: R_ARM_THM_CALL	arm_mat_init_f32
    arm_mat_init_f32(&mstMat2, 4, 4, null);
     99e:	2204      	movs	r2, #4
     9a0:	4611      	mov	r1, r2
     9a2:	2300      	movs	r3, #0
     9a4:	a8a2      	add	r0, sp, #648	; 0x288
     9a6:	f7ff fffe 	bl	0 <arm_mat_init_f32>	9a6: R_ARM_THM_CALL	arm_mat_init_f32
    arm_mat_init_f32(&mstRet, 4, 4, (float*)m);
     9aa:	2204      	movs	r2, #4
     9ac:	4611      	mov	r1, r2
     9ae:	a8a4      	add	r0, sp, #656	; 0x290
     9b0:	ab90      	add	r3, sp, #576	; 0x240
     9b2:	f7ff fffe 	bl	0 <arm_mat_init_f32>	9b2: R_ARM_THM_CALL	arm_mat_init_f32
     9b6:	a890      	add	r0, sp, #576	; 0x240
     9b8:	4649      	mov	r1, r9
        lcRet.m[c][r] = mat1.m[r][0] * mat2.m[0][c] +
     9ba:	ecb1 4a01 	vldmia	r1!, {s8}
                        mat1.m[r][1] * mat2.m[1][c] +
     9be:	edd1 4a03 	vldr	s9, [r1, #12]
                        mat1.m[r][2] * mat2.m[2][c] +
     9c2:	ed91 5a07 	vldr	s10, [r1, #28]
                        mat1.m[r][3] * mat2.m[3][c];
     9c6:	edd1 5a0b 	vldr	s11, [r1, #44]	; 0x2c
     9ca:	4602      	mov	r2, r0
     9cc:	463b      	mov	r3, r7
     9ce:	e009      	b.n	9e4 <main+0x9e4>
	...
	9d0: R_ARM_ABS32	.bss.mc16GBm
	9d4: R_ARM_ABS32	.bss.mcDiffTimer
     9d8:	0000007c 	.word	0x0000007c	9d8: R_ARM_ABS32	.rodata.main.str1.4
	...
	9dc: R_ARM_ABS32	.bss.cRFont_Res8b_Bpp1_1G_Full
	9e0: R_ARM_ABS32	.bss.mc16GScreen1
                        mat1.m[r][1] * mat2.m[1][c] +
     9e4:	edd3 7a01 	vldr	s15, [r3, #4]
        lcRet.m[c][r] = mat1.m[r][0] * mat2.m[0][c] +
     9e8:	ed93 6a00 	vldr	s12, [r3]
                        mat1.m[r][1] * mat2.m[1][c] +
     9ec:	edd3 6a02 	vldr	s13, [r3, #8]
                        mat1.m[r][2] * mat2.m[2][c] +
     9f0:	ed93 7a03 	vldr	s14, [r3, #12]
                        mat1.m[r][1] * mat2.m[1][c] +
     9f4:	ee64 7aa7 	vmul.f32	s15, s9, s15
     9f8:	3310      	adds	r3, #16
        lcRet.m[c][r] = mat1.m[r][0] * mat2.m[0][c] +
     9fa:	eee6 7a04 	vfma.f32	s15, s12, s8
      for (r = 0; r < 4; r++)
     9fe:	429c      	cmp	r4, r3
                        mat1.m[r][1] * mat2.m[1][c] +
     a00:	eee6 7a85 	vfma.f32	s15, s13, s10
                        mat1.m[r][2] * mat2.m[2][c] +
     a04:	eee7 7a25 	vfma.f32	s15, s14, s11
        lcRet.m[c][r] = mat1.m[r][0] * mat2.m[0][c] +
     a08:	ece2 7a01 	vstmia	r2!, {s15}
      for (r = 0; r < 4; r++)
     a0c:	d1ea      	bne.n	9e4 <main+0x9e4>
    for (c = 0; c < 4; c++)
     a0e:	428e      	cmp	r6, r1
     a10:	f100 0010 	add.w	r0, r0, #16
     a14:	d1d1      	bne.n	9ba <main+0x9ba>
    *this = lcRet;
     a16:	2258      	movs	r2, #88	; 0x58
     a18:	a990      	add	r1, sp, #576	; 0x240
     a1a:	4658      	mov	r0, fp
     a1c:	f7ff fffe 	bl	0 <memcpy>	a1c: R_ARM_THM_CALL	memcpy
    arm_mat_init_f32(&mstMat1, 4, 4, null);
     a20:	2204      	movs	r2, #4
     a22:	4611      	mov	r1, r2
     a24:	2300      	movs	r3, #0
     a26:	a8a0      	add	r0, sp, #640	; 0x280
     a28:	f7ff fffe 	bl	0 <arm_mat_init_f32>	a28: R_ARM_THM_CALL	arm_mat_init_f32
    arm_mat_init_f32(&mstMat2, 4, 4, null);
     a2c:	2204      	movs	r2, #4
     a2e:	4611      	mov	r1, r2
     a30:	2300      	movs	r3, #0
     a32:	a8a2      	add	r0, sp, #648	; 0x288
     a34:	f7ff fffe 	bl	0 <arm_mat_init_f32>	a34: R_ARM_THM_CALL	arm_mat_init_f32
    arm_mat_init_f32(&mstRet, 4, 4, (float*)m);
     a38:	2204      	movs	r2, #4
     a3a:	4611      	mov	r1, r2
     a3c:	a8a4      	add	r0, sp, #656	; 0x290
     a3e:	ab90      	add	r3, sp, #576	; 0x240
     a40:	f7ff fffe 	bl	0 <arm_mat_init_f32>	a40: R_ARM_THM_CALL	arm_mat_init_f32
     a44:	a890      	add	r0, sp, #576	; 0x240
     a46:	4649      	mov	r1, r9
        lcRet.m[c][r] = mat1.m[r][0] * mat2.m[0][c] +
     a48:	ecb1 4a01 	vldmia	r1!, {s8}
                        mat1.m[r][1] * mat2.m[1][c] +
     a4c:	edd1 4a03 	vldr	s9, [r1, #12]
                        mat1.m[r][2] * mat2.m[2][c] +
     a50:	ed91 5a07 	vldr	s10, [r1, #28]
                        mat1.m[r][3] * mat2.m[3][c];
     a54:	edd1 5a0b 	vldr	s11, [r1, #44]	; 0x2c
     a58:	4602      	mov	r2, r0
     a5a:	463b      	mov	r3, r7
                        mat1.m[r][1] * mat2.m[1][c] +
     a5c:	edd3 7a01 	vldr	s15, [r3, #4]
        lcRet.m[c][r] = mat1.m[r][0] * mat2.m[0][c] +
     a60:	ed93 6a00 	vldr	s12, [r3]
                        mat1.m[r][1] * mat2.m[1][c] +
     a64:	edd3 6a02 	vldr	s13, [r3, #8]
                        mat1.m[r][2] * mat2.m[2][c] +
     a68:	ed93 7a03 	vldr	s14, [r3, #12]
                        mat1.m[r][1] * mat2.m[1][c] +
     a6c:	ee64 7aa7 	vmul.f32	s15, s9, s15
     a70:	3310      	adds	r3, #16
        lcRet.m[c][r] = mat1.m[r][0] * mat2.m[0][c] +
     a72:	eee6 7a04 	vfma.f32	s15, s12, s8
      for (r = 0; r < 4; r++)
     a76:	429c      	cmp	r4, r3
                        mat1.m[r][1] * mat2.m[1][c] +
     a78:	eee6 7a85 	vfma.f32	s15, s13, s10
                        mat1.m[r][2] * mat2.m[2][c] +
     a7c:	eee7 7a25 	vfma.f32	s15, s14, s11
        lcRet.m[c][r] = mat1.m[r][0] * mat2.m[0][c] +
     a80:	ece2 7a01 	vstmia	r2!, {s15}
      for (r = 0; r < 4; r++)
     a84:	d1ea      	bne.n	a5c <main+0xa5c>
    for (c = 0; c < 4; c++)
     a86:	428e      	cmp	r6, r1
     a88:	f100 0010 	add.w	r0, r0, #16
     a8c:	d1dc      	bne.n	a48 <main+0xa48>
    *this = lcRet;
     a8e:	2258      	movs	r2, #88	; 0x58
     a90:	a990      	add	r1, sp, #576	; 0x240
     a92:	4658      	mov	r0, fp
     a94:	f7ff fffe 	bl	0 <memcpy>	a94: R_ARM_THM_CALL	memcpy
    arm_mat_init_f32(&mstMat1, 4, 4, null);
     a98:	2204      	movs	r2, #4
     a9a:	4611      	mov	r1, r2
     a9c:	2300      	movs	r3, #0
     a9e:	a8a0      	add	r0, sp, #640	; 0x280
     aa0:	f7ff fffe 	bl	0 <arm_mat_init_f32>	aa0: R_ARM_THM_CALL	arm_mat_init_f32
    arm_mat_init_f32(&mstMat2, 4, 4, null);
     aa4:	2204      	movs	r2, #4
     aa6:	4611      	mov	r1, r2
     aa8:	2300      	movs	r3, #0
     aaa:	a8a2      	add	r0, sp, #648	; 0x288
     aac:	f7ff fffe 	bl	0 <arm_mat_init_f32>	aac: R_ARM_THM_CALL	arm_mat_init_f32
    arm_mat_init_f32(&mstRet, 4, 4, (float*)m);
     ab0:	2204      	movs	r2, #4
     ab2:	4611      	mov	r1, r2
     ab4:	a8a4      	add	r0, sp, #656	; 0x290
     ab6:	ab90      	add	r3, sp, #576	; 0x240
     ab8:	f7ff fffe 	bl	0 <arm_mat_init_f32>	ab8: R_ARM_THM_CALL	arm_mat_init_f32
     abc:	a890      	add	r0, sp, #576	; 0x240
     abe:	4649      	mov	r1, r9
        lcRet.m[c][r] = mat1.m[r][0] * mat2.m[0][c] +
     ac0:	ecb1 4a01 	vldmia	r1!, {s8}
                        mat1.m[r][1] * mat2.m[1][c] +
     ac4:	edd1 4a03 	vldr	s9, [r1, #12]
                        mat1.m[r][2] * mat2.m[2][c] +
     ac8:	ed91 5a07 	vldr	s10, [r1, #28]
                        mat1.m[r][3] * mat2.m[3][c];
     acc:	edd1 5a0b 	vldr	s11, [r1, #44]	; 0x2c
     ad0:	4602      	mov	r2, r0
     ad2:	463b      	mov	r3, r7
                        mat1.m[r][1] * mat2.m[1][c] +
     ad4:	edd3 7a01 	vldr	s15, [r3, #4]
        lcRet.m[c][r] = mat1.m[r][0] * mat2.m[0][c] +
     ad8:	ed93 6a00 	vldr	s12, [r3]
                        mat1.m[r][1] * mat2.m[1][c] +
     adc:	edd3 6a02 	vldr	s13, [r3, #8]
                        mat1.m[r][2] * mat2.m[2][c] +
     ae0:	ed93 7a03 	vldr	s14, [r3, #12]
                        mat1.m[r][1] * mat2.m[1][c] +
     ae4:	ee64 7aa7 	vmul.f32	s15, s9, s15
     ae8:	3310      	adds	r3, #16
        lcRet.m[c][r] = mat1.m[r][0] * mat2.m[0][c] +
     aea:	eee6 7a04 	vfma.f32	s15, s12, s8
      for (r = 0; r < 4; r++)
     aee:	429c      	cmp	r4, r3
                        mat1.m[r][1] * mat2.m[1][c] +
     af0:	eee6 7a85 	vfma.f32	s15, s13, s10
                        mat1.m[r][2] * mat2.m[2][c] +
     af4:	eee7 7a25 	vfma.f32	s15, s14, s11
        lcRet.m[c][r] = mat1.m[r][0] * mat2.m[0][c] +
     af8:	ece2 7a01 	vstmia	r2!, {s15}
      for (r = 0; r < 4; r++)
     afc:	d1ea      	bne.n	ad4 <main+0xad4>
    for (c = 0; c < 4; c++)
     afe:	428e      	cmp	r6, r1
     b00:	f100 0010 	add.w	r0, r0, #16
     b04:	d1dc      	bne.n	ac0 <main+0xac0>
    *this = lcRet;
     b06:	2258      	movs	r2, #88	; 0x58
     b08:	a990      	add	r1, sp, #576	; 0x240
     b0a:	4658      	mov	r0, fp
     b0c:	f7ff fffe 	bl	0 <memcpy>	b0c: R_ARM_THM_CALL	memcpy
    arm_mat_init_f32(&mstMat1, 4, 4, null);
     b10:	2204      	movs	r2, #4
     b12:	4611      	mov	r1, r2
     b14:	2300      	movs	r3, #0
     b16:	a8a0      	add	r0, sp, #640	; 0x280
     b18:	f7ff fffe 	bl	0 <arm_mat_init_f32>	b18: R_ARM_THM_CALL	arm_mat_init_f32
    arm_mat_init_f32(&mstMat2, 4, 4, null);
     b1c:	2204      	movs	r2, #4
     b1e:	4611      	mov	r1, r2
     b20:	2300      	movs	r3, #0
     b22:	a8a2      	add	r0, sp, #648	; 0x288
     b24:	f7ff fffe 	bl	0 <arm_mat_init_f32>	b24: R_ARM_THM_CALL	arm_mat_init_f32
    arm_mat_init_f32(&mstRet, 4, 4, (float*)m);
     b28:	2204      	movs	r2, #4
     b2a:	4611      	mov	r1, r2
     b2c:	a8a4      	add	r0, sp, #656	; 0x290
     b2e:	ab90      	add	r3, sp, #576	; 0x240
     b30:	f7ff fffe 	bl	0 <arm_mat_init_f32>	b30: R_ARM_THM_CALL	arm_mat_init_f32
     b34:	a890      	add	r0, sp, #576	; 0x240
     b36:	4649      	mov	r1, r9
        lcRet.m[c][r] = mat1.m[r][0] * mat2.m[0][c] +
     b38:	ecb1 4a01 	vldmia	r1!, {s8}
                        mat1.m[r][1] * mat2.m[1][c] +
     b3c:	edd1 4a03 	vldr	s9, [r1, #12]
                        mat1.m[r][2] * mat2.m[2][c] +
     b40:	ed91 5a07 	vldr	s10, [r1, #28]
                        mat1.m[r][3] * mat2.m[3][c];
     b44:	edd1 5a0b 	vldr	s11, [r1, #44]	; 0x2c
     b48:	4602      	mov	r2, r0
     b4a:	463b      	mov	r3, r7
                        mat1.m[r][1] * mat2.m[1][c] +
     b4c:	edd3 7a01 	vldr	s15, [r3, #4]
        lcRet.m[c][r] = mat1.m[r][0] * mat2.m[0][c] +
     b50:	ed93 6a00 	vldr	s12, [r3]
                        mat1.m[r][1] * mat2.m[1][c] +
     b54:	edd3 6a02 	vldr	s13, [r3, #8]
                        mat1.m[r][2] * mat2.m[2][c] +
     b58:	ed93 7a03 	vldr	s14, [r3, #12]
                        mat1.m[r][1] * mat2.m[1][c] +
     b5c:	ee64 7aa7 	vmul.f32	s15, s9, s15
     b60:	3310      	adds	r3, #16
        lcRet.m[c][r] = mat1.m[r][0] * mat2.m[0][c] +
     b62:	eee6 7a04 	vfma.f32	s15, s12, s8
      for (r = 0; r < 4; r++)
     b66:	429c      	cmp	r4, r3
                        mat1.m[r][1] * mat2.m[1][c] +
     b68:	eee6 7a85 	vfma.f32	s15, s13, s10
                        mat1.m[r][2] * mat2.m[2][c] +
     b6c:	eee7 7a25 	vfma.f32	s15, s14, s11
        lcRet.m[c][r] = mat1.m[r][0] * mat2.m[0][c] +
     b70:	ece2 7a01 	vstmia	r2!, {s15}
      for (r = 0; r < 4; r++)
     b74:	d1ea      	bne.n	b4c <main+0xb4c>
    for (c = 0; c < 4; c++)
     b76:	428e      	cmp	r6, r1
     b78:	f100 0010 	add.w	r0, r0, #16
     b7c:	d1dc      	bne.n	b38 <main+0xb38>
    *this = lcRet;
     b7e:	2258      	movs	r2, #88	; 0x58
     b80:	a990      	add	r1, sp, #576	; 0x240
     b82:	4658      	mov	r0, fp
     b84:	f7ff fffe 	bl	0 <memcpy>	b84: R_ARM_THM_CALL	memcpy
    arm_mat_init_f32(&mstMat1, 4, 4, null);
     b88:	2204      	movs	r2, #4
     b8a:	4611      	mov	r1, r2
     b8c:	2300      	movs	r3, #0
     b8e:	a8a0      	add	r0, sp, #640	; 0x280
     b90:	f7ff fffe 	bl	0 <arm_mat_init_f32>	b90: R_ARM_THM_CALL	arm_mat_init_f32
    arm_mat_init_f32(&mstMat2, 4, 4, null);
     b94:	2204      	movs	r2, #4
     b96:	4611      	mov	r1, r2
     b98:	2300      	movs	r3, #0
     b9a:	a8a2      	add	r0, sp, #648	; 0x288
     b9c:	f7ff fffe 	bl	0 <arm_mat_init_f32>	b9c: R_ARM_THM_CALL	arm_mat_init_f32
    arm_mat_init_f32(&mstRet, 4, 4, (float*)m);
     ba0:	2204      	movs	r2, #4
     ba2:	4611      	mov	r1, r2
     ba4:	a8a4      	add	r0, sp, #656	; 0x290
     ba6:	ab90      	add	r3, sp, #576	; 0x240
     ba8:	f7ff fffe 	bl	0 <arm_mat_init_f32>	ba8: R_ARM_THM_CALL	arm_mat_init_f32
     bac:	a890      	add	r0, sp, #576	; 0x240
     bae:	4649      	mov	r1, r9
        lcRet.m[c][r] = mat1.m[r][0] * mat2.m[0][c] +
     bb0:	ecb1 4a01 	vldmia	r1!, {s8}
                        mat1.m[r][1] * mat2.m[1][c] +
     bb4:	edd1 4a03 	vldr	s9, [r1, #12]
                        mat1.m[r][2] * mat2.m[2][c] +
     bb8:	ed91 5a07 	vldr	s10, [r1, #28]
                        mat1.m[r][3] * mat2.m[3][c];
     bbc:	edd1 5a0b 	vldr	s11, [r1, #44]	; 0x2c
     bc0:	4602      	mov	r2, r0
     bc2:	463b      	mov	r3, r7
                        mat1.m[r][1] * mat2.m[1][c] +
     bc4:	edd3 7a01 	vldr	s15, [r3, #4]
        lcRet.m[c][r] = mat1.m[r][0] * mat2.m[0][c] +
     bc8:	ed93 6a00 	vldr	s12, [r3]
                        mat1.m[r][1] * mat2.m[1][c] +
     bcc:	edd3 6a02 	vldr	s13, [r3, #8]
                        mat1.m[r][2] * mat2.m[2][c] +
     bd0:	ed93 7a03 	vldr	s14, [r3, #12]
                        mat1.m[r][1] * mat2.m[1][c] +
     bd4:	ee64 7aa7 	vmul.f32	s15, s9, s15
     bd8:	3310      	adds	r3, #16
        lcRet.m[c][r] = mat1.m[r][0] * mat2.m[0][c] +
     bda:	eee6 7a04 	vfma.f32	s15, s12, s8
      for (r = 0; r < 4; r++)
     bde:	42a3      	cmp	r3, r4
                        mat1.m[r][1] * mat2.m[1][c] +
     be0:	eee6 7a85 	vfma.f32	s15, s13, s10
                        mat1.m[r][2] * mat2.m[2][c] +
     be4:	eee7 7a25 	vfma.f32	s15, s14, s11
        lcRet.m[c][r] = mat1.m[r][0] * mat2.m[0][c] +
     be8:	ece2 7a01 	vstmia	r2!, {s15}
      for (r = 0; r < 4; r++)
     bec:	d1ea      	bne.n	bc4 <main+0xbc4>
    for (c = 0; c < 4; c++)
     bee:	428e      	cmp	r6, r1
     bf0:	f100 0010 	add.w	r0, r0, #16
     bf4:	d1dc      	bne.n	bb0 <main+0xbb0>
    *this = lcRet;
     bf6:	2258      	movs	r2, #88	; 0x58
     bf8:	a990      	add	r1, sp, #576	; 0x240
     bfa:	4658      	mov	r0, fp
     bfc:	f7ff fffe 	bl	0 <memcpy>	bfc: R_ARM_THM_CALL	memcpy
    arm_mat_init_f32(&mstMat1, 4, 4, null);
     c00:	2204      	movs	r2, #4
     c02:	4611      	mov	r1, r2
     c04:	2300      	movs	r3, #0
     c06:	a8a0      	add	r0, sp, #640	; 0x280
     c08:	f7ff fffe 	bl	0 <arm_mat_init_f32>	c08: R_ARM_THM_CALL	arm_mat_init_f32
    arm_mat_init_f32(&mstMat2, 4, 4, null);
     c0c:	2204      	movs	r2, #4
     c0e:	4611      	mov	r1, r2
     c10:	2300      	movs	r3, #0
     c12:	a8a2      	add	r0, sp, #648	; 0x288
     c14:	f7ff fffe 	bl	0 <arm_mat_init_f32>	c14: R_ARM_THM_CALL	arm_mat_init_f32
    arm_mat_init_f32(&mstRet, 4, 4, (float*)m);
     c18:	2204      	movs	r2, #4
     c1a:	4611      	mov	r1, r2
     c1c:	a8a4      	add	r0, sp, #656	; 0x290
     c1e:	ab90      	add	r3, sp, #576	; 0x240
     c20:	f7ff fffe 	bl	0 <arm_mat_init_f32>	c20: R_ARM_THM_CALL	arm_mat_init_f32
     c24:	a890      	add	r0, sp, #576	; 0x240
     c26:	4649      	mov	r1, r9
        lcRet.m[c][r] = mat1.m[r][0] * mat2.m[0][c] +
     c28:	ecb1 4a01 	vldmia	r1!, {s8}
                        mat1.m[r][1] * mat2.m[1][c] +
     c2c:	edd1 4a03 	vldr	s9, [r1, #12]
                        mat1.m[r][2] * mat2.m[2][c] +
     c30:	ed91 5a07 	vldr	s10, [r1, #28]
                        mat1.m[r][3] * mat2.m[3][c];
     c34:	edd1 5a0b 	vldr	s11, [r1, #44]	; 0x2c
     c38:	4602      	mov	r2, r0
     c3a:	463b      	mov	r3, r7
                        mat1.m[r][1] * mat2.m[1][c] +
     c3c:	edd3 7a01 	vldr	s15, [r3, #4]
        lcRet.m[c][r] = mat1.m[r][0] * mat2.m[0][c] +
     c40:	ed93 6a00 	vldr	s12, [r3]
                        mat1.m[r][1] * mat2.m[1][c] +
     c44:	edd3 6a02 	vldr	s13, [r3, #8]
                        mat1.m[r][2] * mat2.m[2][c] +
     c48:	ed93 7a03 	vldr	s14, [r3, #12]
                        mat1.m[r][1] * mat2.m[1][c] +
     c4c:	ee64 7aa7 	vmul.f32	s15, s9, s15
     c50:	3310      	adds	r3, #16
        lcRet.m[c][r] = mat1.m[r][0] * mat2.m[0][c] +
     c52:	eee6 7a04 	vfma.f32	s15, s12, s8
      for (r = 0; r < 4; r++)
     c56:	429c      	cmp	r4, r3
                        mat1.m[r][1] * mat2.m[1][c] +
     c58:	eee6 7a85 	vfma.f32	s15, s13, s10
                        mat1.m[r][2] * mat2.m[2][c] +
     c5c:	eee7 7a25 	vfma.f32	s15, s14, s11
        lcRet.m[c][r] = mat1.m[r][0] * mat2.m[0][c] +
     c60:	ece2 7a01 	vstmia	r2!, {s15}
      for (r = 0; r < 4; r++)
     c64:	d1ea      	bne.n	c3c <main+0xc3c>
    for (c = 0; c < 4; c++)
     c66:	428e      	cmp	r6, r1
     c68:	f100 0010 	add.w	r0, r0, #16
     c6c:	d1dc      	bne.n	c28 <main+0xc28>
    *this = lcRet;
     c6e:	2258      	movs	r2, #88	; 0x58
     c70:	a990      	add	r1, sp, #576	; 0x240
     c72:	4658      	mov	r0, fp
     c74:	f7ff fffe 	bl	0 <memcpy>	c74: R_ARM_THM_CALL	memcpy

  // ----- 4x4 Matrix multiplication -----
  lu16Y += 10;
  mcDiffTimer.start();
  #define MyTest lcMat3.Multiply(lcMat1, lcMat2);
  for (lu32TestLoop = 0; lu32TestLoop < TEST_REPETITIONS; lu32TestLoop++)
     c78:	9b01      	ldr	r3, [sp, #4]
     c7a:	3b01      	subs	r3, #1
     c7c:	9301      	str	r3, [sp, #4]
     c7e:	f47f ad96 	bne.w	7ae <main+0x7ae>
  {
    MyTest; MyTest; MyTest; MyTest; MyTest;
    MyTest; MyTest; MyTest; MyTest; MyTest;
  }
  #undef MyTest
  lcStrOutput.Setf("4x4 Matrix Mul Raw Test: %s us", mcDiffTimer.toString());
     c82:	488b      	ldr	r0, [pc, #556]	; (230 <main+0x230>)
     c84:	f7ff fffe 	bl	0 <main>	c84: R_ARM_THM_CALL	cDiffTimer::toString()
     c88:	498a      	ldr	r1, [pc, #552]	; (eb4 <main+0xeb4>)
     c8a:	4602      	mov	r2, r0
     c8c:	a810      	add	r0, sp, #64	; 0x40
     c8e:	f7ff fffe 	bl	0 <main>	c8e: R_ARM_THM_CALL	cStrBaseT<unsigned short>::Setf(char const*, ...)
      luiFreeByteCnt = cbArrayT<tyArrayExtIdxT>::muiSize - muiLen;
     c92:	f8bd 3046 	ldrh.w	r3, [sp, #70]	; 0x46
      if (luiFreeByteCnt)
     c96:	f8bd 2040 	ldrh.w	r2, [sp, #64]	; 0x40
     c9a:	429a      	cmp	r2, r3
     c9c:	d008      	beq.n	cb0 <main+0xcb0>
        cbArrayT<tyArrayExtIdxT>::mpu8Data[muiLen] = lui8Byte;
     c9e:	f8dd 2042 	ldr.w	r2, [sp, #66]	; 0x42
     ca2:	9901      	ldr	r1, [sp, #4]
     ca4:	54d1      	strb	r1, [r2, r3]
        muiLen++;
     ca6:	f8bd 3046 	ldrh.w	r3, [sp, #70]	; 0x46
     caa:	3301      	adds	r3, #1
     cac:	f8ad 3046 	strh.w	r3, [sp, #70]	; 0x46
      mstStartPos.x = lixDestX;
     cb0:	4a81      	ldr	r2, [pc, #516]	; (eb8 <main+0xeb8>)
      return (char8*)cbArrayT<tyCStrT>::mpu8Data;
     cb2:	f8dd 4042 	ldr.w	r4, [sp, #66]	; 0x42
     cb6:	f44f 03c8 	mov.w	r3, #6553600	; 0x640000
     cba:	6253      	str	r3, [r2, #36]	; 0x24
    for (lpszTemp = lpszSrc; *lpszTemp; ++lpszTemp);
     cbc:	f994 3000 	ldrsb.w	r3, [r4]
     cc0:	2b00      	cmp	r3, #0
     cc2:	f000 834d 	beq.w	1360 <main+0x1360>
     cc6:	4623      	mov	r3, r4
     cc8:	f913 2f01 	ldrsb.w	r2, [r3, #1]!
     ccc:	2a00      	cmp	r2, #0
     cce:	d1fb      	bne.n	cc8 <main+0xcc8>
      return i8PutString(lpcScr, lbSizeOnly);
     cd0:	4879      	ldr	r0, [pc, #484]	; (eb8 <main+0xeb8>)
     cd2:	497a      	ldr	r1, [pc, #488]	; (ebc <main+0xebc>)
      cbArrayT<tyCStrT>::mpu8Data = (uint8*)lszStr;
     cd4:	f8c0 401e 	str.w	r4, [r0, #30]
    return (lpszTemp - lpszSrc);
     cd8:	1b1b      	subs	r3, r3, r4
      cbArrayExtT<tyCStrT>::muiLen = (CSTRT_UINT)cStrT_strlen(lszStr);
     cda:	b29b      	uxth	r3, r3
     cdc:	2200      	movs	r2, #0
     cde:	8443      	strh	r3, [r0, #34]	; 0x22
      cbArrayT<tyCStrT>::muiSize = cbArrayExtT<tyCStrT>::muiLen;
     ce0:	8383      	strh	r3, [r0, #28]
     ce2:	f7ff fffe 	bl	0 <main>	ce2: R_ARM_THM_CALL	cRFont_Res8b_Bpp1_1G::i8PutString(cScreen*, bool)
     ce6:	900d      	str	r0, [sp, #52]	; 0x34
  cRFont_Res8b_Bpp1_1G_Full.i8PutStringXY(0, lu16Y, lcStrOutput.ToString(), &mc16GScreen1);
  ILI9341_Show(&mc16GBm);
     ce8:	4875      	ldr	r0, [pc, #468]	; (ec0 <main+0xec0>)
     cea:	f7ff fffe 	bl	0 <ILI9341_Show>	cea: R_ARM_THM_CALL	ILI9341_Show

  asm("nop"); // for breakpoint
     cee:	bf00      	nop
  asm("nop"); // for breakpoint
     cf0:	bf00      	nop
     cf2:	f7ff fffe 	bl	0 <u32GetTimer>	cf2: R_ARM_THM_CALL	u32GetTimer
     cf6:	4b6e      	ldr	r3, [pc, #440]	; (eb0 <main+0xeb0>)
     cf8:	f242 7410 	movw	r4, #10000	; 0x2710
     cfc:	60d8      	str	r0, [r3, #12]
    arm_mat_mult_f32(&mstMat1, &mstMat2, &mstRet);
     cfe:	aa8e      	add	r2, sp, #568	; 0x238
     d00:	a98c      	add	r1, sp, #560	; 0x230
     d02:	a88a      	add	r0, sp, #552	; 0x228
    mstMat1.pData = (float*)mat1.m;
     d04:	978b      	str	r7, [sp, #556]	; 0x22c
    mstMat2.pData = (float*)mat2.m;
     d06:	f8cd 9234 	str.w	r9, [sp, #564]	; 0x234
    mstRet.pData = (float*)m;
     d0a:	f8cd b23c 	str.w	fp, [sp, #572]	; 0x23c
    arm_mat_mult_f32(&mstMat1, &mstMat2, &mstRet);
     d0e:	f7ff fffe 	bl	0 <arm_mat_mult_f32>	d0e: R_ARM_THM_CALL	arm_mat_mult_f32
     d12:	aa8e      	add	r2, sp, #568	; 0x238
     d14:	a98c      	add	r1, sp, #560	; 0x230
     d16:	a88a      	add	r0, sp, #552	; 0x228
    mstMat1.pData = (float*)mat1.m;
     d18:	978b      	str	r7, [sp, #556]	; 0x22c
    mstMat2.pData = (float*)mat2.m;
     d1a:	f8cd 9234 	str.w	r9, [sp, #564]	; 0x234
    mstRet.pData = (float*)m;
     d1e:	f8cd b23c 	str.w	fp, [sp, #572]	; 0x23c
    arm_mat_mult_f32(&mstMat1, &mstMat2, &mstRet);
     d22:	f7ff fffe 	bl	0 <arm_mat_mult_f32>	d22: R_ARM_THM_CALL	arm_mat_mult_f32
     d26:	aa8e      	add	r2, sp, #568	; 0x238
     d28:	a98c      	add	r1, sp, #560	; 0x230
     d2a:	a88a      	add	r0, sp, #552	; 0x228
    mstMat1.pData = (float*)mat1.m;
     d2c:	978b      	str	r7, [sp, #556]	; 0x22c
    mstMat2.pData = (float*)mat2.m;
     d2e:	f8cd 9234 	str.w	r9, [sp, #564]	; 0x234
    mstRet.pData = (float*)m;
     d32:	f8cd b23c 	str.w	fp, [sp, #572]	; 0x23c
    arm_mat_mult_f32(&mstMat1, &mstMat2, &mstRet);
     d36:	f7ff fffe 	bl	0 <arm_mat_mult_f32>	d36: R_ARM_THM_CALL	arm_mat_mult_f32
     d3a:	aa8e      	add	r2, sp, #568	; 0x238
     d3c:	a98c      	add	r1, sp, #560	; 0x230
     d3e:	a88a      	add	r0, sp, #552	; 0x228
    mstMat1.pData = (float*)mat1.m;
     d40:	978b      	str	r7, [sp, #556]	; 0x22c
    mstMat2.pData = (float*)mat2.m;
     d42:	f8cd 9234 	str.w	r9, [sp, #564]	; 0x234
    mstRet.pData = (float*)m;
     d46:	f8cd b23c 	str.w	fp, [sp, #572]	; 0x23c
    arm_mat_mult_f32(&mstMat1, &mstMat2, &mstRet);
     d4a:	f7ff fffe 	bl	0 <arm_mat_mult_f32>	d4a: R_ARM_THM_CALL	arm_mat_mult_f32
     d4e:	aa8e      	add	r2, sp, #568	; 0x238
     d50:	a98c      	add	r1, sp, #560	; 0x230
     d52:	a88a      	add	r0, sp, #552	; 0x228
    mstMat1.pData = (float*)mat1.m;
     d54:	978b      	str	r7, [sp, #556]	; 0x22c
    mstMat2.pData = (float*)mat2.m;
     d56:	f8cd 9234 	str.w	r9, [sp, #564]	; 0x234
    mstRet.pData = (float*)m;
     d5a:	f8cd b23c 	str.w	fp, [sp, #572]	; 0x23c
    arm_mat_mult_f32(&mstMat1, &mstMat2, &mstRet);
     d5e:	f7ff fffe 	bl	0 <arm_mat_mult_f32>	d5e: R_ARM_THM_CALL	arm_mat_mult_f32
     d62:	aa8e      	add	r2, sp, #568	; 0x238
     d64:	a98c      	add	r1, sp, #560	; 0x230
     d66:	a88a      	add	r0, sp, #552	; 0x228
    mstMat1.pData = (float*)mat1.m;
     d68:	978b      	str	r7, [sp, #556]	; 0x22c
    mstMat2.pData = (float*)mat2.m;
     d6a:	f8cd 9234 	str.w	r9, [sp, #564]	; 0x234
    mstRet.pData = (float*)m;
     d6e:	f8cd b23c 	str.w	fp, [sp, #572]	; 0x23c
    arm_mat_mult_f32(&mstMat1, &mstMat2, &mstRet);
     d72:	f7ff fffe 	bl	0 <arm_mat_mult_f32>	d72: R_ARM_THM_CALL	arm_mat_mult_f32
     d76:	aa8e      	add	r2, sp, #568	; 0x238
     d78:	a98c      	add	r1, sp, #560	; 0x230
     d7a:	a88a      	add	r0, sp, #552	; 0x228
    mstMat1.pData = (float*)mat1.m;
     d7c:	978b      	str	r7, [sp, #556]	; 0x22c
    mstMat2.pData = (float*)mat2.m;
     d7e:	f8cd 9234 	str.w	r9, [sp, #564]	; 0x234
    mstRet.pData = (float*)m;
     d82:	f8cd b23c 	str.w	fp, [sp, #572]	; 0x23c
    arm_mat_mult_f32(&mstMat1, &mstMat2, &mstRet);
     d86:	f7ff fffe 	bl	0 <arm_mat_mult_f32>	d86: R_ARM_THM_CALL	arm_mat_mult_f32
     d8a:	aa8e      	add	r2, sp, #568	; 0x238
     d8c:	a98c      	add	r1, sp, #560	; 0x230
     d8e:	a88a      	add	r0, sp, #552	; 0x228
    mstMat1.pData = (float*)mat1.m;
     d90:	978b      	str	r7, [sp, #556]	; 0x22c
    mstMat2.pData = (float*)mat2.m;
     d92:	f8cd 9234 	str.w	r9, [sp, #564]	; 0x234
    mstRet.pData = (float*)m;
     d96:	f8cd b23c 	str.w	fp, [sp, #572]	; 0x23c
    arm_mat_mult_f32(&mstMat1, &mstMat2, &mstRet);
     d9a:	f7ff fffe 	bl	0 <arm_mat_mult_f32>	d9a: R_ARM_THM_CALL	arm_mat_mult_f32
     d9e:	aa8e      	add	r2, sp, #568	; 0x238
     da0:	a98c      	add	r1, sp, #560	; 0x230
     da2:	a88a      	add	r0, sp, #552	; 0x228
    mstMat1.pData = (float*)mat1.m;
     da4:	978b      	str	r7, [sp, #556]	; 0x22c
    mstMat2.pData = (float*)mat2.m;
     da6:	f8cd 9234 	str.w	r9, [sp, #564]	; 0x234
    mstRet.pData = (float*)m;
     daa:	f8cd b23c 	str.w	fp, [sp, #572]	; 0x23c
    arm_mat_mult_f32(&mstMat1, &mstMat2, &mstRet);
     dae:	f7ff fffe 	bl	0 <arm_mat_mult_f32>	dae: R_ARM_THM_CALL	arm_mat_mult_f32
     db2:	aa8e      	add	r2, sp, #568	; 0x238
     db4:	a98c      	add	r1, sp, #560	; 0x230
     db6:	a88a      	add	r0, sp, #552	; 0x228
    mstMat1.pData = (float*)mat1.m;
     db8:	978b      	str	r7, [sp, #556]	; 0x22c
    mstMat2.pData = (float*)mat2.m;
     dba:	f8cd 9234 	str.w	r9, [sp, #564]	; 0x234
    mstRet.pData = (float*)m;
     dbe:	f8cd b23c 	str.w	fp, [sp, #572]	; 0x23c
    arm_mat_mult_f32(&mstMat1, &mstMat2, &mstRet);
     dc2:	f7ff fffe 	bl	0 <arm_mat_mult_f32>	dc2: R_ARM_THM_CALL	arm_mat_mult_f32

  // ----- 4x4 Matrix multiplication using ARM Dsp lib -----
  mcDiffTimer.start();
  lu16Y += 10;
  #define MyTest lcMat3.MultiplyDsp(lcMat1, lcMat2);
  for (lu32TestLoop = 0; lu32TestLoop < TEST_REPETITIONS; lu32TestLoop++)
     dc6:	3c01      	subs	r4, #1
     dc8:	d199      	bne.n	cfe <main+0xcfe>
  {
    MyTest; MyTest; MyTest; MyTest; MyTest;
    MyTest; MyTest; MyTest; MyTest; MyTest;
  }
  #undef MyTest
  lcStrOutput.Setf("4x4 Matrix Mul DspLib Test: %s us", mcDiffTimer.toString());
     dca:	4839      	ldr	r0, [pc, #228]	; (eb0 <main+0xeb0>)
     dcc:	f7ff fffe 	bl	0 <main>	dcc: R_ARM_THM_CALL	cDiffTimer::toString()
     dd0:	493c      	ldr	r1, [pc, #240]	; (ec4 <main+0xec4>)
     dd2:	4602      	mov	r2, r0
     dd4:	a810      	add	r0, sp, #64	; 0x40
     dd6:	f7ff fffe 	bl	0 <main>	dd6: R_ARM_THM_CALL	cStrBaseT<unsigned short>::Setf(char const*, ...)
      luiFreeByteCnt = cbArrayT<tyArrayExtIdxT>::muiSize - muiLen;
     dda:	f8bd 3046 	ldrh.w	r3, [sp, #70]	; 0x46
      if (luiFreeByteCnt)
     dde:	f8bd 2040 	ldrh.w	r2, [sp, #64]	; 0x40
     de2:	429a      	cmp	r2, r3
     de4:	d007      	beq.n	df6 <main+0xdf6>
        cbArrayT<tyArrayExtIdxT>::mpu8Data[muiLen] = lui8Byte;
     de6:	f8dd 2042 	ldr.w	r2, [sp, #66]	; 0x42
     dea:	54d4      	strb	r4, [r2, r3]
        muiLen++;
     dec:	f8bd 3046 	ldrh.w	r3, [sp, #70]	; 0x46
     df0:	3301      	adds	r3, #1
     df2:	f8ad 3046 	strh.w	r3, [sp, #70]	; 0x46
      mstStartPos.x = lixDestX;
     df6:	4a30      	ldr	r2, [pc, #192]	; (eb8 <main+0xeb8>)
      return (char8*)cbArrayT<tyCStrT>::mpu8Data;
     df8:	f8dd 4042 	ldr.w	r4, [sp, #66]	; 0x42
     dfc:	f44f 03dc 	mov.w	r3, #7208960	; 0x6e0000
     e00:	6253      	str	r3, [r2, #36]	; 0x24
    for (lpszTemp = lpszSrc; *lpszTemp; ++lpszTemp);
     e02:	f994 3000 	ldrsb.w	r3, [r4]
     e06:	2b00      	cmp	r3, #0
     e08:	f000 82a8 	beq.w	135c <main+0x135c>
     e0c:	4623      	mov	r3, r4
     e0e:	f913 2f01 	ldrsb.w	r2, [r3, #1]!
     e12:	2a00      	cmp	r2, #0
     e14:	d1fb      	bne.n	e0e <main+0xe0e>
      return i8PutString(lpcScr, lbSizeOnly);
     e16:	4828      	ldr	r0, [pc, #160]	; (eb8 <main+0xeb8>)
     e18:	4928      	ldr	r1, [pc, #160]	; (ebc <main+0xebc>)
      cbArrayT<tyCStrT>::mpu8Data = (uint8*)lszStr;
     e1a:	f8c0 401e 	str.w	r4, [r0, #30]
    return (lpszTemp - lpszSrc);
     e1e:	1b1b      	subs	r3, r3, r4
      cbArrayExtT<tyCStrT>::muiLen = (CSTRT_UINT)cStrT_strlen(lszStr);
     e20:	b29b      	uxth	r3, r3
     e22:	2200      	movs	r2, #0
     e24:	8443      	strh	r3, [r0, #34]	; 0x22
      cbArrayT<tyCStrT>::muiSize = cbArrayExtT<tyCStrT>::muiLen;
     e26:	8383      	strh	r3, [r0, #28]
     e28:	f7ff fffe 	bl	0 <main>	e28: R_ARM_THM_CALL	cRFont_Res8b_Bpp1_1G::i8PutString(cScreen*, bool)
     e2c:	900e      	str	r0, [sp, #56]	; 0x38
  cRFont_Res8b_Bpp1_1G_Full.i8PutStringXY(0, lu16Y, lcStrOutput.ToString(), &mc16GScreen1);
  ILI9341_Show(&mc16GBm);
     e2e:	4824      	ldr	r0, [pc, #144]	; (ec0 <main+0xec0>)
     e30:	f7ff fffe 	bl	0 <ILI9341_Show>	e30: R_ARM_THM_CALL	ILI9341_Show

  asm("nop"); // for breakpoint
     e34:	bf00      	nop
  asm("nop"); // for breakpoint
     e36:	bf00      	nop

  // ----- 4x4 Matrix Vector multiplication -----
  lu16Y += 10;
  lcVec2 = lcVec1;
     e38:	ad12      	add	r5, sp, #72	; 0x48
     e3a:	cd0f      	ldmia	r5!, {r0, r1, r2, r3}
     e3c:	4644      	mov	r4, r8
     e3e:	c40f      	stmia	r4!, {r0, r1, r2, r3}
     e40:	cd0f      	ldmia	r5!, {r0, r1, r2, r3}
     e42:	c40f      	stmia	r4!, {r0, r1, r2, r3}
     e44:	cd0f      	ldmia	r5!, {r0, r1, r2, r3}
     e46:	c40f      	stmia	r4!, {r0, r1, r2, r3}
     e48:	e895 0003 	ldmia.w	r5, {r0, r1}
     e4c:	e884 0003 	stmia.w	r4, {r0, r1}
     e50:	f7ff fffe 	bl	0 <u32GetTimer>	e50: R_ARM_THM_CALL	u32GetTimer
     e54:	4b16      	ldr	r3, [pc, #88]	; (eb0 <main+0xeb0>)
    nret[0] = v.n[0] * m.m[0][0] + v.n[1] * m.m[0][1] + v.n[2] * m.m[0][2] + v.n[3] * m.m[0][3];
     e56:	edd9 8a00 	vldr	s17, [r9]
     e5a:	ed99 8a01 	vldr	s16, [r9, #4]
     e5e:	ed99 0a02 	vldr	s0, [r9, #8]
     e62:	edd9 0a03 	vldr	s1, [r9, #12]
    nret[1] = v.n[0] * m.m[1][0] + v.n[1] * m.m[1][1] + v.n[2] * m.m[1][2] + v.n[3] * m.m[1][3];
     e66:	ed99 1a04 	vldr	s2, [r9, #16]
     e6a:	edd9 1a05 	vldr	s3, [r9, #20]
     e6e:	ed99 2a06 	vldr	s4, [r9, #24]
     e72:	edd9 2a07 	vldr	s5, [r9, #28]
    nret[2] = v.n[0] * m.m[2][0] + v.n[1] * m.m[2][1] + v.n[2] * m.m[2][2] + v.n[3] * m.m[2][3];
     e76:	ed99 3a08 	vldr	s6, [r9, #32]
     e7a:	edd9 3a09 	vldr	s7, [r9, #36]	; 0x24
     e7e:	ed99 4a0a 	vldr	s8, [r9, #40]	; 0x28
     e82:	edd9 4a0b 	vldr	s9, [r9, #44]	; 0x2c
    nret[3] = v.n[0] * m.m[3][0] + v.n[1] * m.m[3][1] + v.n[2] * m.m[3][2] + v.n[3] * m.m[3][3];
     e86:	ed99 5a0c 	vldr	s10, [r9, #48]	; 0x30
     e8a:	edd9 5a0d 	vldr	s11, [r9, #52]	; 0x34
     e8e:	ed99 6a0e 	vldr	s12, [r9, #56]	; 0x38
     e92:	edd9 6a0f 	vldr	s13, [r9, #60]	; 0x3c
     e96:	edd8 aa00 	vldr	s21, [r8]
     e9a:	ed98 7a01 	vldr	s14, [r8, #4]
     e9e:	ed98 aa02 	vldr	s20, [r8, #8]
     ea2:	edd8 7a03 	vldr	s15, [r8, #12]
     ea6:	60d8      	str	r0, [r3, #12]
     ea8:	f242 7410 	movw	r4, #10000	; 0x2710
     eac:	e00c      	b.n	ec8 <main+0xec8>
     eae:	bf00      	nop
     eb0:	00000000 	.word	0x00000000	eb0: R_ARM_ABS32	.bss.mcDiffTimer
     eb4:	00000090 	.word	0x00000090	eb4: R_ARM_ABS32	.rodata.main.str1.4
	...
	eb8: R_ARM_ABS32	.bss.cRFont_Res8b_Bpp1_1G_Full
	ebc: R_ARM_ABS32	.bss.mc16GScreen1
	ec0: R_ARM_ABS32	.bss.mc16GBm
     ec4:	000000b0 	.word	0x000000b0	ec4: R_ARM_ABS32	.rodata.main.str1.4
    nret[1] = v.n[0] * m.m[1][0] + v.n[1] * m.m[1][1] + v.n[2] * m.m[1][2] + v.n[3] * m.m[1][3];
     ec8:	ee61 9a87 	vmul.f32	s19, s3, s14
    nret[0] = v.n[0] * m.m[0][0] + v.n[1] * m.m[0][1] + v.n[2] * m.m[0][2] + v.n[3] * m.m[0][3];
     ecc:	ee68 ba07 	vmul.f32	s23, s16, s14
    nret[1] = v.n[0] * m.m[1][0] + v.n[1] * m.m[1][1] + v.n[2] * m.m[1][2] + v.n[3] * m.m[1][3];
     ed0:	eee1 9a2a 	vfma.f32	s19, s2, s21
  mcDiffTimer.start();
  #define MyTest lcVec2.Multiply(lcMat2, lcVec2);
    for (lu32TestLoop = 0; lu32TestLoop < TEST_REPETITIONS; lu32TestLoop++)
     ed4:	3c01      	subs	r4, #1
    nret[0] = v.n[0] * m.m[0][0] + v.n[1] * m.m[0][1] + v.n[2] * m.m[0][2] + v.n[3] * m.m[0][3];
     ed6:	eee8 baaa 	vfma.f32	s23, s17, s21
    nret[2] = v.n[0] * m.m[2][0] + v.n[1] * m.m[2][1] + v.n[2] * m.m[2][2] + v.n[3] * m.m[2][3];
     eda:	ee23 ba87 	vmul.f32	s22, s7, s14
    nret[1] = v.n[0] * m.m[1][0] + v.n[1] * m.m[1][1] + v.n[2] * m.m[1][2] + v.n[3] * m.m[1][3];
     ede:	eee2 9a0a 	vfma.f32	s19, s4, s20
    nret[2] = v.n[0] * m.m[2][0] + v.n[1] * m.m[2][1] + v.n[2] * m.m[2][2] + v.n[3] * m.m[2][3];
     ee2:	eea3 ba2a 	vfma.f32	s22, s6, s21
    nret[0] = v.n[0] * m.m[0][0] + v.n[1] * m.m[0][1] + v.n[2] * m.m[0][2] + v.n[3] * m.m[0][3];
     ee6:	eee0 ba0a 	vfma.f32	s23, s0, s20
    nret[1] = v.n[0] * m.m[1][0] + v.n[1] * m.m[1][1] + v.n[2] * m.m[1][2] + v.n[3] * m.m[1][3];
     eea:	eee2 9aa7 	vfma.f32	s19, s5, s15
    nret[3] = v.n[0] * m.m[3][0] + v.n[1] * m.m[3][1] + v.n[2] * m.m[3][2] + v.n[3] * m.m[3][3];
     eee:	ee25 7a87 	vmul.f32	s14, s11, s14
    nret[2] = v.n[0] * m.m[2][0] + v.n[1] * m.m[2][1] + v.n[2] * m.m[2][2] + v.n[3] * m.m[2][3];
     ef2:	eea4 ba0a 	vfma.f32	s22, s8, s20
    nret[0] = v.n[0] * m.m[0][0] + v.n[1] * m.m[0][1] + v.n[2] * m.m[0][2] + v.n[3] * m.m[0][3];
     ef6:	eee0 baa7 	vfma.f32	s23, s1, s15
    nret[3] = v.n[0] * m.m[3][0] + v.n[1] * m.m[3][1] + v.n[2] * m.m[3][2] + v.n[3] * m.m[3][3];
     efa:	eea5 7a2a 	vfma.f32	s14, s10, s21
    nret[1] = v.n[0] * m.m[1][0] + v.n[1] * m.m[1][1] + v.n[2] * m.m[1][2] + v.n[3] * m.m[1][3];
     efe:	ee21 9aa9 	vmul.f32	s18, s3, s19
    nret[2] = v.n[0] * m.m[2][0] + v.n[1] * m.m[2][1] + v.n[2] * m.m[2][2] + v.n[3] * m.m[2][3];
     f02:	eef0 aa4b 	vmov.f32	s21, s22
     f06:	eee4 aaa7 	vfma.f32	s21, s9, s15
    nret[1] = v.n[0] * m.m[1][0] + v.n[1] * m.m[1][1] + v.n[2] * m.m[1][2] + v.n[3] * m.m[1][3];
     f0a:	eeab 9a81 	vfma.f32	s18, s23, s2
    nret[3] = v.n[0] * m.m[3][0] + v.n[1] * m.m[3][1] + v.n[2] * m.m[3][2] + v.n[3] * m.m[3][3];
     f0e:	eea6 7a0a 	vfma.f32	s14, s12, s20
    nret[0] = v.n[0] * m.m[0][0] + v.n[1] * m.m[0][1] + v.n[2] * m.m[0][2] + v.n[3] * m.m[0][3];
     f12:	ee28 ba29 	vmul.f32	s22, s16, s19
    nret[3] = v.n[0] * m.m[3][0] + v.n[1] * m.m[3][1] + v.n[2] * m.m[3][2] + v.n[3] * m.m[3][3];
     f16:	eea6 7aa7 	vfma.f32	s14, s13, s15
    nret[0] = v.n[0] * m.m[0][0] + v.n[1] * m.m[0][1] + v.n[2] * m.m[0][2] + v.n[3] * m.m[0][3];
     f1a:	eea8 baab 	vfma.f32	s22, s17, s23
    nret[1] = v.n[0] * m.m[1][0] + v.n[1] * m.m[1][1] + v.n[2] * m.m[1][2] + v.n[3] * m.m[1][3];
     f1e:	eea2 9a2a 	vfma.f32	s18, s4, s21
    nret[2] = v.n[0] * m.m[2][0] + v.n[1] * m.m[2][1] + v.n[2] * m.m[2][2] + v.n[3] * m.m[2][3];
     f22:	ee29 aaa3 	vmul.f32	s20, s19, s7
    nret[0] = v.n[0] * m.m[0][0] + v.n[1] * m.m[0][1] + v.n[2] * m.m[0][2] + v.n[3] * m.m[0][3];
     f26:	eea0 ba2a 	vfma.f32	s22, s0, s21
    nret[2] = v.n[0] * m.m[2][0] + v.n[1] * m.m[2][1] + v.n[2] * m.m[2][2] + v.n[3] * m.m[2][3];
     f2a:	eeab aa83 	vfma.f32	s20, s23, s6
    nret[1] = v.n[0] * m.m[1][0] + v.n[1] * m.m[1][1] + v.n[2] * m.m[1][2] + v.n[3] * m.m[1][3];
     f2e:	eea2 9a87 	vfma.f32	s18, s5, s14
    nret[3] = v.n[0] * m.m[3][0] + v.n[1] * m.m[3][1] + v.n[2] * m.m[3][2] + v.n[3] * m.m[3][3];
     f32:	ee69 7aa5 	vmul.f32	s15, s19, s11
    nret[0] = v.n[0] * m.m[0][0] + v.n[1] * m.m[0][1] + v.n[2] * m.m[0][2] + v.n[3] * m.m[0][3];
     f36:	eea0 ba87 	vfma.f32	s22, s1, s14
    nret[2] = v.n[0] * m.m[2][0] + v.n[1] * m.m[2][1] + v.n[2] * m.m[2][2] + v.n[3] * m.m[2][3];
     f3a:	eea4 aa2a 	vfma.f32	s20, s8, s21
    nret[3] = v.n[0] * m.m[3][0] + v.n[1] * m.m[3][1] + v.n[2] * m.m[3][2] + v.n[3] * m.m[3][3];
     f3e:	eeeb 7a85 	vfma.f32	s15, s23, s10
    nret[1] = v.n[0] * m.m[1][0] + v.n[1] * m.m[1][1] + v.n[2] * m.m[1][2] + v.n[3] * m.m[1][3];
     f42:	ee69 9a21 	vmul.f32	s19, s18, s3
    nret[2] = v.n[0] * m.m[2][0] + v.n[1] * m.m[2][1] + v.n[2] * m.m[2][2] + v.n[3] * m.m[2][3];
     f46:	eea4 aa87 	vfma.f32	s20, s9, s14
    nret[1] = v.n[0] * m.m[1][0] + v.n[1] * m.m[1][1] + v.n[2] * m.m[1][2] + v.n[3] * m.m[1][3];
     f4a:	eeeb 9a01 	vfma.f32	s19, s22, s2
    nret[3] = v.n[0] * m.m[3][0] + v.n[1] * m.m[3][1] + v.n[2] * m.m[3][2] + v.n[3] * m.m[3][3];
     f4e:	eeea 7a86 	vfma.f32	s15, s21, s12
    nret[0] = v.n[0] * m.m[0][0] + v.n[1] * m.m[0][1] + v.n[2] * m.m[0][2] + v.n[3] * m.m[0][3];
     f52:	ee69 ba08 	vmul.f32	s23, s18, s16
    nret[3] = v.n[0] * m.m[3][0] + v.n[1] * m.m[3][1] + v.n[2] * m.m[3][2] + v.n[3] * m.m[3][3];
     f56:	eee6 7a87 	vfma.f32	s15, s13, s14
    nret[0] = v.n[0] * m.m[0][0] + v.n[1] * m.m[0][1] + v.n[2] * m.m[0][2] + v.n[3] * m.m[0][3];
     f5a:	eeeb ba28 	vfma.f32	s23, s22, s17
    nret[1] = v.n[0] * m.m[1][0] + v.n[1] * m.m[1][1] + v.n[2] * m.m[1][2] + v.n[3] * m.m[1][3];
     f5e:	eeea 9a02 	vfma.f32	s19, s20, s4
    nret[2] = v.n[0] * m.m[2][0] + v.n[1] * m.m[2][1] + v.n[2] * m.m[2][2] + v.n[3] * m.m[2][3];
     f62:	ee69 aa23 	vmul.f32	s21, s18, s7
    nret[0] = v.n[0] * m.m[0][0] + v.n[1] * m.m[0][1] + v.n[2] * m.m[0][2] + v.n[3] * m.m[0][3];
     f66:	eeea ba00 	vfma.f32	s23, s20, s0
    nret[2] = v.n[0] * m.m[2][0] + v.n[1] * m.m[2][1] + v.n[2] * m.m[2][2] + v.n[3] * m.m[2][3];
     f6a:	eeeb aa03 	vfma.f32	s21, s22, s6
    nret[1] = v.n[0] * m.m[1][0] + v.n[1] * m.m[1][1] + v.n[2] * m.m[1][2] + v.n[3] * m.m[1][3];
     f6e:	eee7 9aa2 	vfma.f32	s19, s15, s5
    nret[3] = v.n[0] * m.m[3][0] + v.n[1] * m.m[3][1] + v.n[2] * m.m[3][2] + v.n[3] * m.m[3][3];
     f72:	ee29 7a25 	vmul.f32	s14, s18, s11
    nret[0] = v.n[0] * m.m[0][0] + v.n[1] * m.m[0][1] + v.n[2] * m.m[0][2] + v.n[3] * m.m[0][3];
     f76:	eee7 baa0 	vfma.f32	s23, s15, s1
    nret[2] = v.n[0] * m.m[2][0] + v.n[1] * m.m[2][1] + v.n[2] * m.m[2][2] + v.n[3] * m.m[2][3];
     f7a:	eeea aa04 	vfma.f32	s21, s20, s8
    nret[3] = v.n[0] * m.m[3][0] + v.n[1] * m.m[3][1] + v.n[2] * m.m[3][2] + v.n[3] * m.m[3][3];
     f7e:	eeab 7a05 	vfma.f32	s14, s22, s10
    nret[1] = v.n[0] * m.m[1][0] + v.n[1] * m.m[1][1] + v.n[2] * m.m[1][2] + v.n[3] * m.m[1][3];
     f82:	ee29 9aa1 	vmul.f32	s18, s19, s3
    nret[2] = v.n[0] * m.m[2][0] + v.n[1] * m.m[2][1] + v.n[2] * m.m[2][2] + v.n[3] * m.m[2][3];
     f86:	eee7 aaa4 	vfma.f32	s21, s15, s9
    nret[1] = v.n[0] * m.m[1][0] + v.n[1] * m.m[1][1] + v.n[2] * m.m[1][2] + v.n[3] * m.m[1][3];
     f8a:	eeab 9a81 	vfma.f32	s18, s23, s2
    nret[3] = v.n[0] * m.m[3][0] + v.n[1] * m.m[3][1] + v.n[2] * m.m[3][2] + v.n[3] * m.m[3][3];
     f8e:	eeaa 7a06 	vfma.f32	s14, s20, s12
    nret[0] = v.n[0] * m.m[0][0] + v.n[1] * m.m[0][1] + v.n[2] * m.m[0][2] + v.n[3] * m.m[0][3];
     f92:	ee29 ba88 	vmul.f32	s22, s19, s16
    nret[3] = v.n[0] * m.m[3][0] + v.n[1] * m.m[3][1] + v.n[2] * m.m[3][2] + v.n[3] * m.m[3][3];
     f96:	eea7 7aa6 	vfma.f32	s14, s15, s13
    nret[0] = v.n[0] * m.m[0][0] + v.n[1] * m.m[0][1] + v.n[2] * m.m[0][2] + v.n[3] * m.m[0][3];
     f9a:	eeab baa8 	vfma.f32	s22, s23, s17
    nret[1] = v.n[0] * m.m[1][0] + v.n[1] * m.m[1][1] + v.n[2] * m.m[1][2] + v.n[3] * m.m[1][3];
     f9e:	eeaa 9a82 	vfma.f32	s18, s21, s4
    nret[2] = v.n[0] * m.m[2][0] + v.n[1] * m.m[2][1] + v.n[2] * m.m[2][2] + v.n[3] * m.m[2][3];
     fa2:	ee29 aaa3 	vmul.f32	s20, s19, s7
    nret[0] = v.n[0] * m.m[0][0] + v.n[1] * m.m[0][1] + v.n[2] * m.m[0][2] + v.n[3] * m.m[0][3];
     fa6:	eeaa ba80 	vfma.f32	s22, s21, s0
    nret[2] = v.n[0] * m.m[2][0] + v.n[1] * m.m[2][1] + v.n[2] * m.m[2][2] + v.n[3] * m.m[2][3];
     faa:	eeab aa83 	vfma.f32	s20, s23, s6
    nret[1] = v.n[0] * m.m[1][0] + v.n[1] * m.m[1][1] + v.n[2] * m.m[1][2] + v.n[3] * m.m[1][3];
     fae:	eea7 9a22 	vfma.f32	s18, s14, s5
    nret[3] = v.n[0] * m.m[3][0] + v.n[1] * m.m[3][1] + v.n[2] * m.m[3][2] + v.n[3] * m.m[3][3];
     fb2:	ee69 7aa5 	vmul.f32	s15, s19, s11
    nret[0] = v.n[0] * m.m[0][0] + v.n[1] * m.m[0][1] + v.n[2] * m.m[0][2] + v.n[3] * m.m[0][3];
     fb6:	eea7 ba20 	vfma.f32	s22, s14, s1
    nret[2] = v.n[0] * m.m[2][0] + v.n[1] * m.m[2][1] + v.n[2] * m.m[2][2] + v.n[3] * m.m[2][3];
     fba:	eeaa aa84 	vfma.f32	s20, s21, s8
    nret[3] = v.n[0] * m.m[3][0] + v.n[1] * m.m[3][1] + v.n[2] * m.m[3][2] + v.n[3] * m.m[3][3];
     fbe:	eeeb 7a85 	vfma.f32	s15, s23, s10
    nret[1] = v.n[0] * m.m[1][0] + v.n[1] * m.m[1][1] + v.n[2] * m.m[1][2] + v.n[3] * m.m[1][3];
     fc2:	ee69 9a21 	vmul.f32	s19, s18, s3
    nret[2] = v.n[0] * m.m[2][0] + v.n[1] * m.m[2][1] + v.n[2] * m.m[2][2] + v.n[3] * m.m[2][3];
     fc6:	eea7 aa24 	vfma.f32	s20, s14, s9
    nret[1] = v.n[0] * m.m[1][0] + v.n[1] * m.m[1][1] + v.n[2] * m.m[1][2] + v.n[3] * m.m[1][3];
     fca:	eeeb 9a01 	vfma.f32	s19, s22, s2
    nret[3] = v.n[0] * m.m[3][0] + v.n[1] * m.m[3][1] + v.n[2] * m.m[3][2] + v.n[3] * m.m[3][3];
     fce:	eeea 7a86 	vfma.f32	s15, s21, s12
    nret[0] = v.n[0] * m.m[0][0] + v.n[1] * m.m[0][1] + v.n[2] * m.m[0][2] + v.n[3] * m.m[0][3];
     fd2:	ee69 ba08 	vmul.f32	s23, s18, s16
    nret[3] = v.n[0] * m.m[3][0] + v.n[1] * m.m[3][1] + v.n[2] * m.m[3][2] + v.n[3] * m.m[3][3];
     fd6:	eee7 7a26 	vfma.f32	s15, s14, s13
    nret[0] = v.n[0] * m.m[0][0] + v.n[1] * m.m[0][1] + v.n[2] * m.m[0][2] + v.n[3] * m.m[0][3];
     fda:	eeeb ba28 	vfma.f32	s23, s22, s17
    nret[1] = v.n[0] * m.m[1][0] + v.n[1] * m.m[1][1] + v.n[2] * m.m[1][2] + v.n[3] * m.m[1][3];
     fde:	eeea 9a02 	vfma.f32	s19, s20, s4
    nret[2] = v.n[0] * m.m[2][0] + v.n[1] * m.m[2][1] + v.n[2] * m.m[2][2] + v.n[3] * m.m[2][3];
     fe2:	ee69 aa23 	vmul.f32	s21, s18, s7
    nret[0] = v.n[0] * m.m[0][0] + v.n[1] * m.m[0][1] + v.n[2] * m.m[0][2] + v.n[3] * m.m[0][3];
     fe6:	eeea ba00 	vfma.f32	s23, s20, s0
    nret[2] = v.n[0] * m.m[2][0] + v.n[1] * m.m[2][1] + v.n[2] * m.m[2][2] + v.n[3] * m.m[2][3];
     fea:	eeeb aa03 	vfma.f32	s21, s22, s6
    nret[1] = v.n[0] * m.m[1][0] + v.n[1] * m.m[1][1] + v.n[2] * m.m[1][2] + v.n[3] * m.m[1][3];
     fee:	eee7 9aa2 	vfma.f32	s19, s15, s5
    nret[3] = v.n[0] * m.m[3][0] + v.n[1] * m.m[3][1] + v.n[2] * m.m[3][2] + v.n[3] * m.m[3][3];
     ff2:	ee29 7a25 	vmul.f32	s14, s18, s11
    nret[0] = v.n[0] * m.m[0][0] + v.n[1] * m.m[0][1] + v.n[2] * m.m[0][2] + v.n[3] * m.m[0][3];
     ff6:	eee7 baa0 	vfma.f32	s23, s15, s1
    nret[2] = v.n[0] * m.m[2][0] + v.n[1] * m.m[2][1] + v.n[2] * m.m[2][2] + v.n[3] * m.m[2][3];
     ffa:	eeea aa04 	vfma.f32	s21, s20, s8
    nret[3] = v.n[0] * m.m[3][0] + v.n[1] * m.m[3][1] + v.n[2] * m.m[3][2] + v.n[3] * m.m[3][3];
     ffe:	eeab 7a05 	vfma.f32	s14, s22, s10
    nret[1] = v.n[0] * m.m[1][0] + v.n[1] * m.m[1][1] + v.n[2] * m.m[1][2] + v.n[3] * m.m[1][3];
    1002:	ee29 9aa1 	vmul.f32	s18, s19, s3
    nret[2] = v.n[0] * m.m[2][0] + v.n[1] * m.m[2][1] + v.n[2] * m.m[2][2] + v.n[3] * m.m[2][3];
    1006:	eee7 aaa4 	vfma.f32	s21, s15, s9
    nret[1] = v.n[0] * m.m[1][0] + v.n[1] * m.m[1][1] + v.n[2] * m.m[1][2] + v.n[3] * m.m[1][3];
    100a:	eeab 9a81 	vfma.f32	s18, s23, s2
    nret[3] = v.n[0] * m.m[3][0] + v.n[1] * m.m[3][1] + v.n[2] * m.m[3][2] + v.n[3] * m.m[3][3];
    100e:	eeaa 7a06 	vfma.f32	s14, s20, s12
    nret[0] = v.n[0] * m.m[0][0] + v.n[1] * m.m[0][1] + v.n[2] * m.m[0][2] + v.n[3] * m.m[0][3];
    1012:	ee29 ba88 	vmul.f32	s22, s19, s16
    nret[3] = v.n[0] * m.m[3][0] + v.n[1] * m.m[3][1] + v.n[2] * m.m[3][2] + v.n[3] * m.m[3][3];
    1016:	eea7 7aa6 	vfma.f32	s14, s15, s13
    nret[0] = v.n[0] * m.m[0][0] + v.n[1] * m.m[0][1] + v.n[2] * m.m[0][2] + v.n[3] * m.m[0][3];
    101a:	eeab baa8 	vfma.f32	s22, s23, s17
    nret[1] = v.n[0] * m.m[1][0] + v.n[1] * m.m[1][1] + v.n[2] * m.m[1][2] + v.n[3] * m.m[1][3];
    101e:	eeaa 9a82 	vfma.f32	s18, s21, s4
    nret[2] = v.n[0] * m.m[2][0] + v.n[1] * m.m[2][1] + v.n[2] * m.m[2][2] + v.n[3] * m.m[2][3];
    1022:	ee29 aaa3 	vmul.f32	s20, s19, s7
    nret[0] = v.n[0] * m.m[0][0] + v.n[1] * m.m[0][1] + v.n[2] * m.m[0][2] + v.n[3] * m.m[0][3];
    1026:	eeaa ba80 	vfma.f32	s22, s21, s0
    nret[2] = v.n[0] * m.m[2][0] + v.n[1] * m.m[2][1] + v.n[2] * m.m[2][2] + v.n[3] * m.m[2][3];
    102a:	eeab aa83 	vfma.f32	s20, s23, s6
    nret[1] = v.n[0] * m.m[1][0] + v.n[1] * m.m[1][1] + v.n[2] * m.m[1][2] + v.n[3] * m.m[1][3];
    102e:	eea7 9a22 	vfma.f32	s18, s14, s5
    nret[3] = v.n[0] * m.m[3][0] + v.n[1] * m.m[3][1] + v.n[2] * m.m[3][2] + v.n[3] * m.m[3][3];
    1032:	ee69 7aa5 	vmul.f32	s15, s19, s11
    nret[0] = v.n[0] * m.m[0][0] + v.n[1] * m.m[0][1] + v.n[2] * m.m[0][2] + v.n[3] * m.m[0][3];
    1036:	eea7 ba20 	vfma.f32	s22, s14, s1
    nret[2] = v.n[0] * m.m[2][0] + v.n[1] * m.m[2][1] + v.n[2] * m.m[2][2] + v.n[3] * m.m[2][3];
    103a:	eeaa aa84 	vfma.f32	s20, s21, s8
    nret[3] = v.n[0] * m.m[3][0] + v.n[1] * m.m[3][1] + v.n[2] * m.m[3][2] + v.n[3] * m.m[3][3];
    103e:	eeeb 7a85 	vfma.f32	s15, s23, s10
    nret[1] = v.n[0] * m.m[1][0] + v.n[1] * m.m[1][1] + v.n[2] * m.m[1][2] + v.n[3] * m.m[1][3];
    1042:	ee69 9a21 	vmul.f32	s19, s18, s3
    nret[2] = v.n[0] * m.m[2][0] + v.n[1] * m.m[2][1] + v.n[2] * m.m[2][2] + v.n[3] * m.m[2][3];
    1046:	eea7 aa24 	vfma.f32	s20, s14, s9
    nret[1] = v.n[0] * m.m[1][0] + v.n[1] * m.m[1][1] + v.n[2] * m.m[1][2] + v.n[3] * m.m[1][3];
    104a:	eeeb 9a01 	vfma.f32	s19, s22, s2
    nret[3] = v.n[0] * m.m[3][0] + v.n[1] * m.m[3][1] + v.n[2] * m.m[3][2] + v.n[3] * m.m[3][3];
    104e:	eeea 7a86 	vfma.f32	s15, s21, s12
    nret[0] = v.n[0] * m.m[0][0] + v.n[1] * m.m[0][1] + v.n[2] * m.m[0][2] + v.n[3] * m.m[0][3];
    1052:	ee69 ba08 	vmul.f32	s23, s18, s16
    nret[3] = v.n[0] * m.m[3][0] + v.n[1] * m.m[3][1] + v.n[2] * m.m[3][2] + v.n[3] * m.m[3][3];
    1056:	eee7 7a26 	vfma.f32	s15, s14, s13
    nret[0] = v.n[0] * m.m[0][0] + v.n[1] * m.m[0][1] + v.n[2] * m.m[0][2] + v.n[3] * m.m[0][3];
    105a:	eeeb ba28 	vfma.f32	s23, s22, s17
    nret[1] = v.n[0] * m.m[1][0] + v.n[1] * m.m[1][1] + v.n[2] * m.m[1][2] + v.n[3] * m.m[1][3];
    105e:	eeea 9a02 	vfma.f32	s19, s20, s4
    nret[2] = v.n[0] * m.m[2][0] + v.n[1] * m.m[2][1] + v.n[2] * m.m[2][2] + v.n[3] * m.m[2][3];
    1062:	ee69 aa23 	vmul.f32	s21, s18, s7
    nret[0] = v.n[0] * m.m[0][0] + v.n[1] * m.m[0][1] + v.n[2] * m.m[0][2] + v.n[3] * m.m[0][3];
    1066:	eeea ba00 	vfma.f32	s23, s20, s0
    nret[2] = v.n[0] * m.m[2][0] + v.n[1] * m.m[2][1] + v.n[2] * m.m[2][2] + v.n[3] * m.m[2][3];
    106a:	eeeb aa03 	vfma.f32	s21, s22, s6
    nret[1] = v.n[0] * m.m[1][0] + v.n[1] * m.m[1][1] + v.n[2] * m.m[1][2] + v.n[3] * m.m[1][3];
    106e:	eee7 9aa2 	vfma.f32	s19, s15, s5
    nret[3] = v.n[0] * m.m[3][0] + v.n[1] * m.m[3][1] + v.n[2] * m.m[3][2] + v.n[3] * m.m[3][3];
    1072:	ee29 7a25 	vmul.f32	s14, s18, s11
    nret[0] = v.n[0] * m.m[0][0] + v.n[1] * m.m[0][1] + v.n[2] * m.m[0][2] + v.n[3] * m.m[0][3];
    1076:	eee7 baa0 	vfma.f32	s23, s15, s1
    nret[2] = v.n[0] * m.m[2][0] + v.n[1] * m.m[2][1] + v.n[2] * m.m[2][2] + v.n[3] * m.m[2][3];
    107a:	eeea aa04 	vfma.f32	s21, s20, s8
    nret[3] = v.n[0] * m.m[3][0] + v.n[1] * m.m[3][1] + v.n[2] * m.m[3][2] + v.n[3] * m.m[3][3];
    107e:	eeab 7a05 	vfma.f32	s14, s22, s10
    nret[1] = v.n[0] * m.m[1][0] + v.n[1] * m.m[1][1] + v.n[2] * m.m[1][2] + v.n[3] * m.m[1][3];
    1082:	ee29 9aa1 	vmul.f32	s18, s19, s3
    nret[2] = v.n[0] * m.m[2][0] + v.n[1] * m.m[2][1] + v.n[2] * m.m[2][2] + v.n[3] * m.m[2][3];
    1086:	eee7 aaa4 	vfma.f32	s21, s15, s9
    nret[1] = v.n[0] * m.m[1][0] + v.n[1] * m.m[1][1] + v.n[2] * m.m[1][2] + v.n[3] * m.m[1][3];
    108a:	eeab 9a81 	vfma.f32	s18, s23, s2
    nret[3] = v.n[0] * m.m[3][0] + v.n[1] * m.m[3][1] + v.n[2] * m.m[3][2] + v.n[3] * m.m[3][3];
    108e:	eeaa 7a06 	vfma.f32	s14, s20, s12
    nret[0] = v.n[0] * m.m[0][0] + v.n[1] * m.m[0][1] + v.n[2] * m.m[0][2] + v.n[3] * m.m[0][3];
    1092:	ee29 aa88 	vmul.f32	s20, s19, s16
    nret[3] = v.n[0] * m.m[3][0] + v.n[1] * m.m[3][1] + v.n[2] * m.m[3][2] + v.n[3] * m.m[3][3];
    1096:	eea7 7aa6 	vfma.f32	s14, s15, s13
    nret[0] = v.n[0] * m.m[0][0] + v.n[1] * m.m[0][1] + v.n[2] * m.m[0][2] + v.n[3] * m.m[0][3];
    109a:	eeab aaa8 	vfma.f32	s20, s23, s17
    nret[1] = v.n[0] * m.m[1][0] + v.n[1] * m.m[1][1] + v.n[2] * m.m[1][2] + v.n[3] * m.m[1][3];
    109e:	eeaa 9a82 	vfma.f32	s18, s21, s4
    nret[2] = v.n[0] * m.m[2][0] + v.n[1] * m.m[2][1] + v.n[2] * m.m[2][2] + v.n[3] * m.m[2][3];
    10a2:	ee29 baa3 	vmul.f32	s22, s19, s7
    nret[0] = v.n[0] * m.m[0][0] + v.n[1] * m.m[0][1] + v.n[2] * m.m[0][2] + v.n[3] * m.m[0][3];
    10a6:	eeaa aa80 	vfma.f32	s20, s21, s0
    nret[2] = v.n[0] * m.m[2][0] + v.n[1] * m.m[2][1] + v.n[2] * m.m[2][2] + v.n[3] * m.m[2][3];
    10aa:	eeab ba83 	vfma.f32	s22, s23, s6
    nret[1] = v.n[0] * m.m[1][0] + v.n[1] * m.m[1][1] + v.n[2] * m.m[1][2] + v.n[3] * m.m[1][3];
    10ae:	eea7 9a22 	vfma.f32	s18, s14, s5
    nret[3] = v.n[0] * m.m[3][0] + v.n[1] * m.m[3][1] + v.n[2] * m.m[3][2] + v.n[3] * m.m[3][3];
    10b2:	ee69 9aa5 	vmul.f32	s19, s19, s11
    nret[0] = v.n[0] * m.m[0][0] + v.n[1] * m.m[0][1] + v.n[2] * m.m[0][2] + v.n[3] * m.m[0][3];
    10b6:	eea7 aa20 	vfma.f32	s20, s14, s1
    nret[2] = v.n[0] * m.m[2][0] + v.n[1] * m.m[2][1] + v.n[2] * m.m[2][2] + v.n[3] * m.m[2][3];
    10ba:	eeaa ba84 	vfma.f32	s22, s21, s8
    nret[3] = v.n[0] * m.m[3][0] + v.n[1] * m.m[3][1] + v.n[2] * m.m[3][2] + v.n[3] * m.m[3][3];
    10be:	eeeb 9a85 	vfma.f32	s19, s23, s10
    nret[1] = v.n[0] * m.m[1][0] + v.n[1] * m.m[1][1] + v.n[2] * m.m[1][2] + v.n[3] * m.m[1][3];
    10c2:	ee69 7a21 	vmul.f32	s15, s18, s3
    nret[2] = v.n[0] * m.m[2][0] + v.n[1] * m.m[2][1] + v.n[2] * m.m[2][2] + v.n[3] * m.m[2][3];
    10c6:	eea7 ba24 	vfma.f32	s22, s14, s9
    nret[1] = v.n[0] * m.m[1][0] + v.n[1] * m.m[1][1] + v.n[2] * m.m[1][2] + v.n[3] * m.m[1][3];
    10ca:	eeea 7a01 	vfma.f32	s15, s20, s2
    nret[3] = v.n[0] * m.m[3][0] + v.n[1] * m.m[3][1] + v.n[2] * m.m[3][2] + v.n[3] * m.m[3][3];
    10ce:	eeea 9a86 	vfma.f32	s19, s21, s12
    nret[0] = v.n[0] * m.m[0][0] + v.n[1] * m.m[0][1] + v.n[2] * m.m[0][2] + v.n[3] * m.m[0][3];
    10d2:	ee29 ca08 	vmul.f32	s24, s18, s16
    nret[3] = v.n[0] * m.m[3][0] + v.n[1] * m.m[3][1] + v.n[2] * m.m[3][2] + v.n[3] * m.m[3][3];
    10d6:	eee7 9a26 	vfma.f32	s19, s14, s13
    nret[0] = v.n[0] * m.m[0][0] + v.n[1] * m.m[0][1] + v.n[2] * m.m[0][2] + v.n[3] * m.m[0][3];
    10da:	eeaa ca28 	vfma.f32	s24, s20, s17
    nret[2] = v.n[0] * m.m[2][0] + v.n[1] * m.m[2][1] + v.n[2] * m.m[2][2] + v.n[3] * m.m[2][3];
    10de:	ee69 ba23 	vmul.f32	s23, s18, s7
    nret[1] = v.n[0] * m.m[1][0] + v.n[1] * m.m[1][1] + v.n[2] * m.m[1][2] + v.n[3] * m.m[1][3];
    10e2:	eeeb 7a02 	vfma.f32	s15, s22, s4
    nret[2] = v.n[0] * m.m[2][0] + v.n[1] * m.m[2][1] + v.n[2] * m.m[2][2] + v.n[3] * m.m[2][3];
    10e6:	eeea ba03 	vfma.f32	s23, s20, s6
    nret[0] = v.n[0] * m.m[0][0] + v.n[1] * m.m[0][1] + v.n[2] * m.m[0][2] + v.n[3] * m.m[0][3];
    10ea:	eeab ca00 	vfma.f32	s24, s22, s0
    nret[1] = v.n[0] * m.m[1][0] + v.n[1] * m.m[1][1] + v.n[2] * m.m[1][2] + v.n[3] * m.m[1][3];
    10ee:	eee9 7aa2 	vfma.f32	s15, s19, s5
    nret[3] = v.n[0] * m.m[3][0] + v.n[1] * m.m[3][1] + v.n[2] * m.m[3][2] + v.n[3] * m.m[3][3];
    10f2:	ee29 9a25 	vmul.f32	s18, s18, s11
    nret[0] = v.n[0] * m.m[0][0] + v.n[1] * m.m[0][1] + v.n[2] * m.m[0][2] + v.n[3] * m.m[0][3];
    10f6:	eea9 caa0 	vfma.f32	s24, s19, s1
    nret[3] = v.n[0] * m.m[3][0] + v.n[1] * m.m[3][1] + v.n[2] * m.m[3][2] + v.n[3] * m.m[3][3];
    10fa:	eeaa 9a05 	vfma.f32	s18, s20, s10
    nret[2] = v.n[0] * m.m[2][0] + v.n[1] * m.m[2][1] + v.n[2] * m.m[2][2] + v.n[3] * m.m[2][3];
    10fe:	eeeb ba04 	vfma.f32	s23, s22, s8
    nret[0] = v.n[0] * m.m[0][0] + v.n[1] * m.m[0][1] + v.n[2] * m.m[0][2] + v.n[3] * m.m[0][3];
    1102:	ee67 aa88 	vmul.f32	s21, s15, s16
    nret[1] = v.n[0] * m.m[1][0] + v.n[1] * m.m[1][1] + v.n[2] * m.m[1][2] + v.n[3] * m.m[1][3];
    1106:	ee27 7aa1 	vmul.f32	s14, s15, s3
    nret[2] = v.n[0] * m.m[2][0] + v.n[1] * m.m[2][1] + v.n[2] * m.m[2][2] + v.n[3] * m.m[2][3];
    110a:	ee27 aaa3 	vmul.f32	s20, s15, s7
    nret[3] = v.n[0] * m.m[3][0] + v.n[1] * m.m[3][1] + v.n[2] * m.m[3][2] + v.n[3] * m.m[3][3];
    110e:	ee67 7aa5 	vmul.f32	s15, s15, s11
    nret[2] = v.n[0] * m.m[2][0] + v.n[1] * m.m[2][1] + v.n[2] * m.m[2][2] + v.n[3] * m.m[2][3];
    1112:	eee9 baa4 	vfma.f32	s23, s19, s9
    nret[0] = v.n[0] * m.m[0][0] + v.n[1] * m.m[0][1] + v.n[2] * m.m[0][2] + v.n[3] * m.m[0][3];
    1116:	eeec aa28 	vfma.f32	s21, s24, s17
    nret[3] = v.n[0] * m.m[3][0] + v.n[1] * m.m[3][1] + v.n[2] * m.m[3][2] + v.n[3] * m.m[3][3];
    111a:	eeab 9a06 	vfma.f32	s18, s22, s12
    nret[1] = v.n[0] * m.m[1][0] + v.n[1] * m.m[1][1] + v.n[2] * m.m[1][2] + v.n[3] * m.m[1][3];
    111e:	eeac 7a01 	vfma.f32	s14, s24, s2
    nret[2] = v.n[0] * m.m[2][0] + v.n[1] * m.m[2][1] + v.n[2] * m.m[2][2] + v.n[3] * m.m[2][3];
    1122:	eeac aa03 	vfma.f32	s20, s24, s6
    nret[3] = v.n[0] * m.m[3][0] + v.n[1] * m.m[3][1] + v.n[2] * m.m[3][2] + v.n[3] * m.m[3][3];
    1126:	eeec 7a05 	vfma.f32	s15, s24, s10
    112a:	eea9 9aa6 	vfma.f32	s18, s19, s13
    nret[0] = v.n[0] * m.m[0][0] + v.n[1] * m.m[0][1] + v.n[2] * m.m[0][2] + v.n[3] * m.m[0][3];
    112e:	eeeb aa80 	vfma.f32	s21, s23, s0
    nret[1] = v.n[0] * m.m[1][0] + v.n[1] * m.m[1][1] + v.n[2] * m.m[1][2] + v.n[3] * m.m[1][3];
    1132:	eeab 7a82 	vfma.f32	s14, s23, s4
    nret[2] = v.n[0] * m.m[2][0] + v.n[1] * m.m[2][1] + v.n[2] * m.m[2][2] + v.n[3] * m.m[2][3];
    1136:	eeab aa84 	vfma.f32	s20, s23, s8
    nret[3] = v.n[0] * m.m[3][0] + v.n[1] * m.m[3][1] + v.n[2] * m.m[3][2] + v.n[3] * m.m[3][3];
    113a:	eeeb 7a86 	vfma.f32	s15, s23, s12
    nret[0] = v.n[0] * m.m[0][0] + v.n[1] * m.m[0][1] + v.n[2] * m.m[0][2] + v.n[3] * m.m[0][3];
    113e:	eee9 aa20 	vfma.f32	s21, s18, s1
    nret[1] = v.n[0] * m.m[1][0] + v.n[1] * m.m[1][1] + v.n[2] * m.m[1][2] + v.n[3] * m.m[1][3];
    1142:	eea9 7a22 	vfma.f32	s14, s18, s5
    nret[2] = v.n[0] * m.m[2][0] + v.n[1] * m.m[2][1] + v.n[2] * m.m[2][2] + v.n[3] * m.m[2][3];
    1146:	eea9 aa24 	vfma.f32	s20, s18, s9
    nret[3] = v.n[0] * m.m[3][0] + v.n[1] * m.m[3][1] + v.n[2] * m.m[3][2] + v.n[3] * m.m[3][3];
    114a:	eee9 7a26 	vfma.f32	s15, s18, s13
    for (lu32TestLoop = 0; lu32TestLoop < TEST_REPETITIONS; lu32TestLoop++)
    114e:	f47f aebb 	bne.w	ec8 <main+0xec8>
  {
    MyTest; MyTest; MyTest; MyTest; MyTest;
    MyTest; MyTest; MyTest; MyTest; MyTest;
  }
  #undef MyTest
  lcStrOutput.Setf("4x4 Matrix Vec Mul Raw Test: %s us", mcDiffTimer.toString());
    1152:	488f      	ldr	r0, [pc, #572]	; (1390 <main+0x1390>)
    1154:	ed88 7a01 	vstr	s14, [r8, #4]
    1158:	edc8 7a03 	vstr	s15, [r8, #12]
    115c:	ed88 7a09 	vstr	s14, [r8, #36]	; 0x24
    1160:	edc8 7a0b 	vstr	s15, [r8, #44]	; 0x2c
    1164:	edc8 aa00 	vstr	s21, [r8]
    1168:	ed88 aa02 	vstr	s20, [r8, #8]
    116c:	edc8 aa08 	vstr	s21, [r8, #32]
    1170:	ed88 aa0a 	vstr	s20, [r8, #40]	; 0x28
    1174:	f7ff fffe 	bl	0 <main>	1174: R_ARM_THM_CALL	cDiffTimer::toString()
    1178:	4986      	ldr	r1, [pc, #536]	; (1394 <main+0x1394>)
    117a:	4602      	mov	r2, r0
    117c:	a810      	add	r0, sp, #64	; 0x40
    117e:	f7ff fffe 	bl	0 <main>	117e: R_ARM_THM_CALL	cStrBaseT<unsigned short>::Setf(char const*, ...)
      luiFreeByteCnt = cbArrayT<tyArrayExtIdxT>::muiSize - muiLen;
    1182:	f8bd 3046 	ldrh.w	r3, [sp, #70]	; 0x46
      if (luiFreeByteCnt)
    1186:	f8bd 2040 	ldrh.w	r2, [sp, #64]	; 0x40
    118a:	429a      	cmp	r2, r3
    118c:	d007      	beq.n	119e <main+0x119e>
        cbArrayT<tyArrayExtIdxT>::mpu8Data[muiLen] = lui8Byte;
    118e:	f8dd 2042 	ldr.w	r2, [sp, #66]	; 0x42
    1192:	54d4      	strb	r4, [r2, r3]
        muiLen++;
    1194:	f8bd 3046 	ldrh.w	r3, [sp, #70]	; 0x46
    1198:	3301      	adds	r3, #1
    119a:	f8ad 3046 	strh.w	r3, [sp, #70]	; 0x46
      mstStartPos.x = lixDestX;
    119e:	4a7e      	ldr	r2, [pc, #504]	; (1398 <main+0x1398>)
      return (char8*)cbArrayT<tyCStrT>::mpu8Data;
    11a0:	f8dd 4042 	ldr.w	r4, [sp, #66]	; 0x42
    11a4:	f44f 03f0 	mov.w	r3, #7864320	; 0x780000
    11a8:	6253      	str	r3, [r2, #36]	; 0x24
    for (lpszTemp = lpszSrc; *lpszTemp; ++lpszTemp);
    11aa:	f994 3000 	ldrsb.w	r3, [r4]
    11ae:	2b00      	cmp	r3, #0
    11b0:	f000 80d2 	beq.w	1358 <main+0x1358>
    11b4:	4623      	mov	r3, r4
    11b6:	f913 2f01 	ldrsb.w	r2, [r3, #1]!
    11ba:	2a00      	cmp	r2, #0
    11bc:	d1fb      	bne.n	11b6 <main+0x11b6>
      return i8PutString(lpcScr, lbSizeOnly);
    11be:	4876      	ldr	r0, [pc, #472]	; (1398 <main+0x1398>)
    11c0:	4976      	ldr	r1, [pc, #472]	; (139c <main+0x139c>)
      cbArrayT<tyCStrT>::mpu8Data = (uint8*)lszStr;
    11c2:	f8c0 401e 	str.w	r4, [r0, #30]
    return (lpszTemp - lpszSrc);
    11c6:	1b1b      	subs	r3, r3, r4
      cbArrayExtT<tyCStrT>::muiLen = (CSTRT_UINT)cStrT_strlen(lszStr);
    11c8:	b29b      	uxth	r3, r3
    11ca:	2200      	movs	r2, #0
    11cc:	8443      	strh	r3, [r0, #34]	; 0x22
      cbArrayT<tyCStrT>::muiSize = cbArrayExtT<tyCStrT>::muiLen;
    11ce:	8383      	strh	r3, [r0, #28]
    11d0:	f7ff fffe 	bl	0 <main>	11d0: R_ARM_THM_CALL	cRFont_Res8b_Bpp1_1G::i8PutString(cScreen*, bool)
    11d4:	900f      	str	r0, [sp, #60]	; 0x3c
  cRFont_Res8b_Bpp1_1G_Full.i8PutStringXY(0, lu16Y, lcStrOutput.ToString(), &mc16GScreen1);
  ILI9341_Show(&mc16GBm);
    11d6:	4872      	ldr	r0, [pc, #456]	; (13a0 <main+0x13a0>)
    11d8:	f7ff fffe 	bl	0 <ILI9341_Show>	11d8: R_ARM_THM_CALL	ILI9341_Show

  asm("nop"); // for breakpoint
    11dc:	bf00      	nop
  asm("nop"); // for breakpoint
    11de:	bf00      	nop

  // ----- 4x4 Matrix Vector multiplication using ARM Dsp lib -----
  lu16Y += 10;
  lcVec2 = lcVec1;
    11e0:	ac12      	add	r4, sp, #72	; 0x48
    11e2:	cc0f      	ldmia	r4!, {r0, r1, r2, r3}
    11e4:	4645      	mov	r5, r8
    11e6:	c50f      	stmia	r5!, {r0, r1, r2, r3}
    11e8:	cc0f      	ldmia	r4!, {r0, r1, r2, r3}
    11ea:	c50f      	stmia	r5!, {r0, r1, r2, r3}
    11ec:	cc0f      	ldmia	r4!, {r0, r1, r2, r3}
    11ee:	c50f      	stmia	r5!, {r0, r1, r2, r3}
    11f0:	e894 0003 	ldmia.w	r4, {r0, r1}
    11f4:	e885 0003 	stmia.w	r5, {r0, r1}
    11f8:	f7ff fffe 	bl	0 <u32GetTimer>	11f8: R_ARM_THM_CALL	u32GetTimer
    11fc:	4b64      	ldr	r3, [pc, #400]	; (1390 <main+0x1390>)
    11fe:	ac28      	add	r4, sp, #160	; 0xa0
    1200:	60d8      	str	r0, [r3, #12]
    1202:	f242 7510 	movw	r5, #10000	; 0x2710
    arm_mat_mult_f32(&mstMat, &mstVec, &mstRetVec);
    1206:	aa2c      	add	r2, sp, #176	; 0xb0
    1208:	a926      	add	r1, sp, #152	; 0x98
    120a:	a824      	add	r0, sp, #144	; 0x90
    mstMat.pData    = (float*)mat.m;
    120c:	f8c8 9014 	str.w	r9, [r8, #20]
    mstVec.pData    = (float*)v.n;
    1210:	f8c8 801c 	str.w	r8, [r8, #28]
    mstRetVec.pData = (float*)v.nret;
    1214:	f8c8 4034 	str.w	r4, [r8, #52]	; 0x34
    arm_mat_mult_f32(&mstMat, &mstVec, &mstRetVec);
    1218:	f7ff fffe 	bl	0 <arm_mat_mult_f32>	1218: R_ARM_THM_CALL	arm_mat_mult_f32
    121c:	aa2c      	add	r2, sp, #176	; 0xb0
    121e:	a926      	add	r1, sp, #152	; 0x98
    1220:	a824      	add	r0, sp, #144	; 0x90
    mstMat.pData    = (float*)mat.m;
    1222:	f8c8 9014 	str.w	r9, [r8, #20]
    mstVec.pData    = (float*)v.n;
    1226:	f8c8 801c 	str.w	r8, [r8, #28]
    mstRetVec.pData = (float*)v.nret;
    122a:	f8c8 4034 	str.w	r4, [r8, #52]	; 0x34
    arm_mat_mult_f32(&mstMat, &mstVec, &mstRetVec);
    122e:	f7ff fffe 	bl	0 <arm_mat_mult_f32>	122e: R_ARM_THM_CALL	arm_mat_mult_f32
    1232:	aa2c      	add	r2, sp, #176	; 0xb0
    1234:	a926      	add	r1, sp, #152	; 0x98
    1236:	a824      	add	r0, sp, #144	; 0x90
    mstMat.pData    = (float*)mat.m;
    1238:	f8c8 9014 	str.w	r9, [r8, #20]
    mstVec.pData    = (float*)v.n;
    123c:	f8c8 801c 	str.w	r8, [r8, #28]
    mstRetVec.pData = (float*)v.nret;
    1240:	f8c8 4034 	str.w	r4, [r8, #52]	; 0x34
    arm_mat_mult_f32(&mstMat, &mstVec, &mstRetVec);
    1244:	f7ff fffe 	bl	0 <arm_mat_mult_f32>	1244: R_ARM_THM_CALL	arm_mat_mult_f32
    1248:	aa2c      	add	r2, sp, #176	; 0xb0
    124a:	a926      	add	r1, sp, #152	; 0x98
    124c:	a824      	add	r0, sp, #144	; 0x90
    mstMat.pData    = (float*)mat.m;
    124e:	f8c8 9014 	str.w	r9, [r8, #20]
    mstVec.pData    = (float*)v.n;
    1252:	f8c8 801c 	str.w	r8, [r8, #28]
    mstRetVec.pData = (float*)v.nret;
    1256:	f8c8 4034 	str.w	r4, [r8, #52]	; 0x34
    arm_mat_mult_f32(&mstMat, &mstVec, &mstRetVec);
    125a:	f7ff fffe 	bl	0 <arm_mat_mult_f32>	125a: R_ARM_THM_CALL	arm_mat_mult_f32
    125e:	aa2c      	add	r2, sp, #176	; 0xb0
    1260:	a926      	add	r1, sp, #152	; 0x98
    1262:	a824      	add	r0, sp, #144	; 0x90
    mstMat.pData    = (float*)mat.m;
    1264:	f8c8 9014 	str.w	r9, [r8, #20]
    mstVec.pData    = (float*)v.n;
    1268:	f8c8 801c 	str.w	r8, [r8, #28]
    mstRetVec.pData = (float*)v.nret;
    126c:	f8c8 4034 	str.w	r4, [r8, #52]	; 0x34
    arm_mat_mult_f32(&mstMat, &mstVec, &mstRetVec);
    1270:	f7ff fffe 	bl	0 <arm_mat_mult_f32>	1270: R_ARM_THM_CALL	arm_mat_mult_f32
    1274:	aa2c      	add	r2, sp, #176	; 0xb0
    1276:	a926      	add	r1, sp, #152	; 0x98
    1278:	a824      	add	r0, sp, #144	; 0x90
    mstMat.pData    = (float*)mat.m;
    127a:	f8c8 9014 	str.w	r9, [r8, #20]
    mstVec.pData    = (float*)v.n;
    127e:	f8c8 801c 	str.w	r8, [r8, #28]
    mstRetVec.pData = (float*)v.nret;
    1282:	f8c8 4034 	str.w	r4, [r8, #52]	; 0x34
    arm_mat_mult_f32(&mstMat, &mstVec, &mstRetVec);
    1286:	f7ff fffe 	bl	0 <arm_mat_mult_f32>	1286: R_ARM_THM_CALL	arm_mat_mult_f32
    128a:	aa2c      	add	r2, sp, #176	; 0xb0
    128c:	a926      	add	r1, sp, #152	; 0x98
    128e:	a824      	add	r0, sp, #144	; 0x90
    mstMat.pData    = (float*)mat.m;
    1290:	f8c8 9014 	str.w	r9, [r8, #20]
    mstVec.pData    = (float*)v.n;
    1294:	f8c8 801c 	str.w	r8, [r8, #28]
    mstRetVec.pData = (float*)v.nret;
    1298:	f8c8 4034 	str.w	r4, [r8, #52]	; 0x34
    arm_mat_mult_f32(&mstMat, &mstVec, &mstRetVec);
    129c:	f7ff fffe 	bl	0 <arm_mat_mult_f32>	129c: R_ARM_THM_CALL	arm_mat_mult_f32
    12a0:	aa2c      	add	r2, sp, #176	; 0xb0
    12a2:	a926      	add	r1, sp, #152	; 0x98
    12a4:	a824      	add	r0, sp, #144	; 0x90
    mstMat.pData    = (float*)mat.m;
    12a6:	f8c8 9014 	str.w	r9, [r8, #20]
    mstVec.pData    = (float*)v.n;
    12aa:	f8c8 801c 	str.w	r8, [r8, #28]
    mstRetVec.pData = (float*)v.nret;
    12ae:	f8c8 4034 	str.w	r4, [r8, #52]	; 0x34
    arm_mat_mult_f32(&mstMat, &mstVec, &mstRetVec);
    12b2:	f7ff fffe 	bl	0 <arm_mat_mult_f32>	12b2: R_ARM_THM_CALL	arm_mat_mult_f32
    12b6:	aa2c      	add	r2, sp, #176	; 0xb0
    12b8:	a926      	add	r1, sp, #152	; 0x98
    12ba:	a824      	add	r0, sp, #144	; 0x90
    mstMat.pData    = (float*)mat.m;
    12bc:	f8c8 9014 	str.w	r9, [r8, #20]
    mstVec.pData    = (float*)v.n;
    12c0:	f8c8 801c 	str.w	r8, [r8, #28]
    mstRetVec.pData = (float*)v.nret;
    12c4:	f8c8 4034 	str.w	r4, [r8, #52]	; 0x34
    arm_mat_mult_f32(&mstMat, &mstVec, &mstRetVec);
    12c8:	f7ff fffe 	bl	0 <arm_mat_mult_f32>	12c8: R_ARM_THM_CALL	arm_mat_mult_f32
    12cc:	aa2c      	add	r2, sp, #176	; 0xb0
    12ce:	a926      	add	r1, sp, #152	; 0x98
    12d0:	a824      	add	r0, sp, #144	; 0x90
    mstMat.pData    = (float*)mat.m;
    12d2:	f8c8 9014 	str.w	r9, [r8, #20]
    mstVec.pData    = (float*)v.n;
    12d6:	f8c8 801c 	str.w	r8, [r8, #28]
    mstRetVec.pData = (float*)v.nret;
    12da:	f8c8 4034 	str.w	r4, [r8, #52]	; 0x34
    arm_mat_mult_f32(&mstMat, &mstVec, &mstRetVec);
    12de:	f7ff fffe 	bl	0 <arm_mat_mult_f32>	12de: R_ARM_THM_CALL	arm_mat_mult_f32
  mcDiffTimer.start();
  #define MyTest lcVec2.MultiplyDsp(lcMat2, lcVec2);
  for (lu32TestLoop = 0; lu32TestLoop < TEST_REPETITIONS; lu32TestLoop++)
    12e2:	3d01      	subs	r5, #1
    12e4:	d18f      	bne.n	1206 <main+0x1206>
  {
    MyTest; MyTest; MyTest; MyTest; MyTest;
    MyTest; MyTest; MyTest; MyTest; MyTest;
  }
  #undef MyTest
  lcStrOutput.Setf("4x4 Matrix Vec Mul DspLib Test: %s us", mcDiffTimer.toString());
    12e6:	482a      	ldr	r0, [pc, #168]	; (1390 <main+0x1390>)
    12e8:	f7ff fffe 	bl	0 <main>	12e8: R_ARM_THM_CALL	cDiffTimer::toString()
    12ec:	492d      	ldr	r1, [pc, #180]	; (13a4 <main+0x13a4>)
    12ee:	4602      	mov	r2, r0
    12f0:	a810      	add	r0, sp, #64	; 0x40
    12f2:	f7ff fffe 	bl	0 <main>	12f2: R_ARM_THM_CALL	cStrBaseT<unsigned short>::Setf(char const*, ...)
      luiFreeByteCnt = cbArrayT<tyArrayExtIdxT>::muiSize - muiLen;
    12f6:	f8bd 3046 	ldrh.w	r3, [sp, #70]	; 0x46
      if (luiFreeByteCnt)
    12fa:	f8bd 2040 	ldrh.w	r2, [sp, #64]	; 0x40
    12fe:	429a      	cmp	r2, r3
    1300:	d007      	beq.n	1312 <main+0x1312>
        cbArrayT<tyArrayExtIdxT>::mpu8Data[muiLen] = lui8Byte;
    1302:	f8dd 2042 	ldr.w	r2, [sp, #66]	; 0x42
    1306:	54d5      	strb	r5, [r2, r3]
        muiLen++;
    1308:	f8bd 3046 	ldrh.w	r3, [sp, #70]	; 0x46
    130c:	3301      	adds	r3, #1
    130e:	f8ad 3046 	strh.w	r3, [sp, #70]	; 0x46
      mstStartPos.x = lixDestX;
    1312:	4a21      	ldr	r2, [pc, #132]	; (1398 <main+0x1398>)
      return (char8*)cbArrayT<tyCStrT>::mpu8Data;
    1314:	f8dd 4042 	ldr.w	r4, [sp, #66]	; 0x42
    1318:	f44f 0302 	mov.w	r3, #8519680	; 0x820000
    131c:	6253      	str	r3, [r2, #36]	; 0x24
    for (lpszTemp = lpszSrc; *lpszTemp; ++lpszTemp);
    131e:	f994 3000 	ldrsb.w	r3, [r4]
    1322:	b1bb      	cbz	r3, 1354 <main+0x1354>
    1324:	4623      	mov	r3, r4
    1326:	f913 2f01 	ldrsb.w	r2, [r3, #1]!
    132a:	2a00      	cmp	r2, #0
    132c:	d1fb      	bne.n	1326 <main+0x1326>
      return i8PutString(lpcScr, lbSizeOnly);
    132e:	481a      	ldr	r0, [pc, #104]	; (1398 <main+0x1398>)
    1330:	491a      	ldr	r1, [pc, #104]	; (139c <main+0x139c>)
      cbArrayT<tyCStrT>::mpu8Data = (uint8*)lszStr;
    1332:	f8c0 401e 	str.w	r4, [r0, #30]
    return (lpszTemp - lpszSrc);
    1336:	1b1b      	subs	r3, r3, r4
      cbArrayExtT<tyCStrT>::muiLen = (CSTRT_UINT)cStrT_strlen(lszStr);
    1338:	b29b      	uxth	r3, r3
    133a:	2200      	movs	r2, #0
    133c:	8443      	strh	r3, [r0, #34]	; 0x22
      cbArrayT<tyCStrT>::muiSize = cbArrayExtT<tyCStrT>::muiLen;
    133e:	8383      	strh	r3, [r0, #28]
    1340:	f7ff fffe 	bl	0 <main>	1340: R_ARM_THM_CALL	cRFont_Res8b_Bpp1_1G::i8PutString(cScreen*, bool)
    1344:	9090      	str	r0, [sp, #576]	; 0x240
  cRFont_Res8b_Bpp1_1G_Full.i8PutStringXY(0, lu16Y, lcStrOutput.ToString(), &mc16GScreen1);


  ILI9341_Show(&mc16GBm);
    1346:	4816      	ldr	r0, [pc, #88]	; (13a0 <main+0x13a0>)
    1348:	f7ff fffe 	bl	0 <ILI9341_Show>	1348: R_ARM_THM_CALL	ILI9341_Show

  while (1)
  {
    CycCall_vIdle();
    134c:	f7ff fffe 	bl	0 <CycCall_vIdle>	134c: R_ARM_THM_CALL	CycCall_vIdle
    __asm("wfi");
    1350:	bf30      	wfi
    1352:	e7fb      	b.n	134c <main+0x134c>
    for (lpszTemp = lpszSrc; *lpszTemp; ++lpszTemp);
    1354:	4623      	mov	r3, r4
    1356:	e7ea      	b.n	132e <main+0x132e>
    1358:	4623      	mov	r3, r4
    135a:	e730      	b.n	11be <main+0x11be>
    135c:	4623      	mov	r3, r4
    135e:	e55a      	b.n	e16 <main+0xe16>
    1360:	4623      	mov	r3, r4
    1362:	e4b5      	b.n	cd0 <main+0xcd0>
    1364:	4623      	mov	r3, r4
    1366:	f7ff ba04 	b.w	772 <main+0x772>
    136a:	4633      	mov	r3, r6
    136c:	f7ff b95c 	b.w	628 <main+0x628>
    1370:	4623      	mov	r3, r4
    1372:	f7ff b8c9 	b.w	508 <main+0x508>
    1376:	4663      	mov	r3, ip
    1378:	f7ff b850 	b.w	41c <main+0x41c>
    137c:	4633      	mov	r3, r6
    137e:	f7fe bfb8 	b.w	2f2 <main+0x2f2>
    1382:	4633      	mov	r3, r6
    1384:	f7fe bf6c 	b.w	260 <main+0x260>
    1388:	4633      	mov	r3, r6
    138a:	f7fe bf1f 	b.w	1cc <main+0x1cc>
    138e:	bf00      	nop
    1390:	00000000 	.word	0x00000000	1390: R_ARM_ABS32	.bss.mcDiffTimer
    1394:	000000d4 	.word	0x000000d4	1394: R_ARM_ABS32	.rodata.main.str1.4
	...
	1398: R_ARM_ABS32	.bss.cRFont_Res8b_Bpp1_1G_Full
	139c: R_ARM_ABS32	.bss.mc16GScreen1
	13a0: R_ARM_ABS32	.bss.mc16GBm
    13a4:	000000f8 	.word	0x000000f8	13a4: R_ARM_ABS32	.rodata.main.str1.4

Disassembly of section .text.startup._GLOBAL__sub_I_TimingDelay:

00000000 <_GLOBAL__sub_I_TimingDelay>:
  }
}
   0:	e92d 41f0 	stmdb	sp!, {r4, r5, r6, r7, r8, lr}
      case GPIOF_BASE: RCC_AHB1PeriphClockCmd(RCC_AHB1Periph_GPIOF, ENABLE);break;
   4:	2101      	movs	r1, #1
   6:	b082      	sub	sp, #8
   8:	2020      	movs	r0, #32
   a:	f7ff fffe 	bl	0 <RCC_AHB1PeriphClockCmd>	a: R_ARM_THM_CALL	RCC_AHB1PeriphClockCmd
    this->Port()->BSRRH = PinBitMask();
   e:	4835      	ldr	r0, [pc, #212]	; (e4 <_GLOBAL__sub_I_TimingDelay+0xe4>)
  10:	f44f 7400 	mov.w	r4, #512	; 0x200
  14:	8344      	strh	r4, [r0, #26]
    GPIO_InitStructure.GPIO_OType = lenOType;
  16:	2300      	movs	r3, #0
    GPIO_InitStructure.GPIO_Mode = lenMode;
  18:	2201      	movs	r2, #1
    GPIO_Init((GPIO_TypeDef*)this->Port(), &GPIO_InitStructure);
  1a:	4669      	mov	r1, sp
    GPIO_InitStructure.GPIO_OType = lenOType;
  1c:	f88d 3006 	strb.w	r3, [sp, #6]
    GPIO_InitStructure.GPIO_PuPd = lenPuPd;
  20:	f88d 3007 	strb.w	r3, [sp, #7]
    GPIO_InitStructure.GPIO_Mode = lenMode;
  24:	f88d 2004 	strb.w	r2, [sp, #4]
    GPIO_InitStructure.GPIO_Speed = lenSpeed;
  28:	f88d 2005 	strb.w	r2, [sp, #5]
    GPIO_InitStructure.GPIO_Pin = (1 << mui16Pin);
  2c:	9400      	str	r4, [sp, #0]
    GPIO_Init((GPIO_TypeDef*)this->Port(), &GPIO_InitStructure);
  2e:	f7ff fffe 	bl	0 <GPIO_Init>	2e: R_ARM_THM_CALL	GPIO_Init
  32:	482d      	ldr	r0, [pc, #180]	; (b8 <RCC_GetClocksFreq+0xb8>)
  34:	f7ff fffe 	bl	0 <RCC_GetClocksFreq>	34: R_ARM_THM_CALL	RCC_GetClocksFreq
    if (mu8Init == 0)
  38:	4b2c      	ldr	r3, [pc, #176]	; (ec <_GLOBAL__sub_I_TimingDelay+0xec>)
  3a:	781b      	ldrb	r3, [r3, #0]
  3c:	b90b      	cbnz	r3, 42 <_GLOBAL__sub_I_TimingDelay+0x42>
      InitTimer();
  3e:	f7ff fffe 	bl	0 <InitTimer>	3e: R_ARM_THM_CALL	InitTimer
    mu32LastTimerValue = u32GetTimer();
  42:	f7ff fffe 	bl	0 <u32GetTimer>	42: R_ARM_THM_CALL	u32GetTimer
      menMode  = lenMode;
  46:	4c2a      	ldr	r4, [pc, #168]	; (f0 <_GLOBAL__sub_I_TimingDelay+0xf0>)
      :cSpriteEngine_Res8b_Bpp1_1G_Base(), cSpriteEngine(lenMode)
  48:	f8df c0e4 	ldr.w	ip, [pc, #228]	; 130 <_GLOBAL__sub_I_TimingDelay+0x130>
  4c:	4929      	ldr	r1, [pc, #164]	; (f4 <_GLOBAL__sub_I_TimingDelay+0xf4>)
    cRFont()
      : mcText()
    {
      mstStartPos.x = 0;
      mstStartPos.y = 0;
      mui32Col      = (uint32)-1;
  4e:	4b2a      	ldr	r3, [pc, #168]	; (f8 <_GLOBAL__sub_I_TimingDelay+0xf8>)
  50:	60c8      	str	r0, [r1, #12]
  52:	4625      	mov	r5, r4
  54:	f10c 0134 	add.w	r1, ip, #52	; 0x34
  58:	f845 1f04 	str.w	r1, [r5, #4]!
  5c:	f8c4 c000 	str.w	ip, [r4]
  60:	2002      	movs	r0, #2
      mui32Col = 0xFFFFFF;
  62:	f06f 4c7f 	mvn.w	ip, #4278190080	; 0xff000000
    mbVisible = True;
  66:	4a25      	ldr	r2, [pc, #148]	; (fc <_GLOBAL__sub_I_TimingDelay+0xfc>)
  68:	f8c4 c030 	str.w	ip, [r4, #48]	; 0x30
      :cRFont()
  6c:	4f24      	ldr	r7, [pc, #144]	; (100 <_GLOBAL__sub_I_TimingDelay+0x100>)
      menMode  = lenMode;
  6e:	7220      	strb	r0, [r4, #8]
  70:	f04f 38ff 	mov.w	r8, #4294967295
    miGfxRefPosx1 = 0;
  74:	2400      	movs	r4, #0
      mpcSpriteEng = lpcSpriteEng;
  76:	635d      	str	r5, [r3, #52]	; 0x34
  78:	e9c3 8406 	strd	r8, r4, [r3, #24]
      muiLen  = 0;
  7c:	e9c3 4408 	strd	r4, r4, [r3, #32]
      mpui8Data   = BM_INVALID;
  80:	e9c3 440a 	strd	r4, r4, [r3, #40]	; 0x28
      miGfxHeight = 0;
  84:	f883 4030 	strb.w	r4, [r3, #48]	; 0x30
      :cRFont()
  88:	601f      	str	r7, [r3, #0]
      i8InitFromRes8B(lpui8RFontRes8B, lpaui8CharData);
  8a:	4618      	mov	r0, r3
    mbVisible = True;
  8c:	2301      	movs	r3, #1
  8e:	7413      	strb	r3, [r2, #16]
    miGfxClipPosy1 = 0;
  90:	4b1c      	ldr	r3, [pc, #112]	; (104 <_GLOBAL__sub_I_TimingDelay+0x104>)
      mpui8Data   = lpui8Data;
  92:	491d      	ldr	r1, [pc, #116]	; (108 <_GLOBAL__sub_I_TimingDelay+0x108>)
  94:	60d3      	str	r3, [r2, #12]
      : cScreen(lcBm) {};
  96:	4b1d      	ldr	r3, [pc, #116]	; (10c <_GLOBAL__sub_I_TimingDelay+0x10c>)
  98:	6013      	str	r3, [r2, #0]
  9a:	4b1d      	ldr	r3, [pc, #116]	; (110 <_GLOBAL__sub_I_TimingDelay+0x110>)
  9c:	600b      	str	r3, [r1, #0]
      miGfxWidth  = liGfxWidth;
  9e:	4b1d      	ldr	r3, [pc, #116]	; (114 <_GLOBAL__sub_I_TimingDelay+0x114>)
      mpui8Data   = BM_INVALID;
  a0:	4e1d      	ldr	r6, [pc, #116]	; (118 <_GLOBAL__sub_I_TimingDelay+0x118>)
      miGfxWidth  = liGfxWidth;
  a2:	604b      	str	r3, [r1, #4]
      miGfxHeight = liGfxHeight;
  a4:	2303      	movs	r3, #3
    miGfxRefPosy1 = 0;
  a6:	e9c2 4401 	strd	r4, r4, [r2, #4]
  public:
    cBitmap *mpcBm;

    cScreen(cBitmap* lcBm)
    {
      mpcBm = lcBm;
  aa:	6151      	str	r1, [r2, #20]
  ac:	720b      	strb	r3, [r1, #8]
  ae:	4a1b      	ldr	r2, [pc, #108]	; (11c <_GLOBAL__sub_I_TimingDelay+0x11c>)
  b0:	491b      	ldr	r1, [pc, #108]	; (120 <_GLOBAL__sub_I_TimingDelay+0x120>)
      miGfxHeight = 0;
  b2:	7234      	strb	r4, [r6, #8]
      mpui8Data   = BM_INVALID;
  b4:	e9c6 4400 	strd	r4, r4, [r6]
  b8:	f7ff fffe 	bl	0 <_GLOBAL__sub_I_TimingDelay>	b8: R_ARM_THM_CALL	cRFont_Res8b_Bpp1_1G::i8InitFromRes8B(unsigned char const*, unsigned char const*)
  bc:	4b19      	ldr	r3, [pc, #100]	; (124 <_GLOBAL__sub_I_TimingDelay+0x124>)
  be:	4a1a      	ldr	r2, [pc, #104]	; (128 <_GLOBAL__sub_I_TimingDelay+0x128>)
  c0:	491a      	ldr	r1, [pc, #104]	; (12c <_GLOBAL__sub_I_TimingDelay+0x12c>)
      miGfxHeight = 0;
  c2:	f883 4030 	strb.w	r4, [r3, #48]	; 0x30
  c6:	4618      	mov	r0, r3
  c8:	e9c3 8406 	strd	r8, r4, [r3, #24]
  cc:	e9c3 4408 	strd	r4, r4, [r3, #32]
      mpui8Data   = BM_INVALID;
  d0:	e9c3 440a 	strd	r4, r4, [r3, #40]	; 0x28
      mpcSpriteEng = lpcSpriteEng;
  d4:	635d      	str	r5, [r3, #52]	; 0x34
      :cRFont()
  d6:	601f      	str	r7, [r3, #0]
      i8InitFromRes8B(lpui8RFontRes8B, lpaui8CharData);
  d8:	f7ff fffe 	bl	0 <_GLOBAL__sub_I_TimingDelay>	d8: R_ARM_THM_CALL	cRFont_Res8b_Bpp1_1G::i8InitFromRes8B(unsigned char const*, unsigned char const*)
  dc:	b002      	add	sp, #8
  de:	e8bd 81f0 	ldmia.w	sp!, {r4, r5, r6, r7, r8, pc}
  e2:	bf00      	nop
  e4:	40021400 	.word	0x40021400
	...
	e8: R_ARM_ABS32	cClockInfo::mstClocks
	ec: R_ARM_ABS32	cDiffTimer::mu8Init
	f0: R_ARM_ABS32	.bss.mc16GSpriteEng
	f4: R_ARM_ABS32	.bss.mcDiffTimer
	f8: R_ARM_ABS32	.bss.cRFont_Res8b_Bpp1_1G_5x5Ucase
	fc: R_ARM_ABS32	.bss.mc16GScreen1
 100:	00000008 	.word	0x00000008	100: R_ARM_ABS32	vtable for cRFont_Res8b_Bpp1_1G
 104:	00ef013f 	.word	0x00ef013f
 108:	00000000 	.word	0x00000000	108: R_ARM_ABS32	.bss.mc16GBm
 10c:	00000008 	.word	0x00000008	10c: R_ARM_ABS32	vtable for cScreen_Bpp16_5R6G5B
 110:	00000000 	.word	0x00000000	110: R_ARM_ABS32	mDisplayMemory
 114:	00f00140 	.word	0x00f00140
	...
	118: R_ARM_ABS32	.bss.mc16GSprite
	11c: R_ARM_ABS32	.rodata._ZL43SPRTMST_FontData_RFont01_05x05U_1BPP_1G_Bmp
	120: R_ARM_ABS32	.rodata._ZL42SPRTMST_FontLut_RFont01_05x05U_1BPP_1G_Bmp
	124: R_ARM_ABS32	.bss.cRFont_Res8b_Bpp1_1G_Full
	128: R_ARM_ABS32	.rodata._ZL42SPRTMST_FontData_RFont01_06x08_1BPP_1G_Bmp
	12c: R_ARM_ABS32	.rodata._ZL41SPRTMST_FontLut_RFont01_06x08_1BPP_1G_Bmp
 130:	00000008 	.word	0x00000008	130: R_ARM_ABS32	vtable for cRes8b_Bpp1_1G_SpriteEngine_Bpp16_5R6G5B

Disassembly of section .text.exit._GLOBAL__sub_D_TimingDelay:

00000000 <_GLOBAL__sub_D_TimingDelay>:
   0:	b510      	push	{r4, lr}
class cRFont_Res8b_Bpp1_1G : public cRFont
   2:	4b18      	ldr	r3, [pc, #96]	; (64 <_GLOBAL__sub_D_TimingDelay+0x64>)
   4:	4c18      	ldr	r4, [pc, #96]	; (68 <_GLOBAL__sub_D_TimingDelay+0x68>)

    void vDelete()
    {
      if (bDyn())
   6:	f993 2030 	ldrsb.w	r2, [r3, #48]	; 0x30
   a:	601c      	str	r4, [r3, #0]
   c:	2a00      	cmp	r2, #0
   e:	db23      	blt.n	58 <_GLOBAL__sub_D_TimingDelay+0x58>
  10:	4b16      	ldr	r3, [pc, #88]	; (6c <_GLOBAL__sub_D_TimingDelay+0x6c>)
  12:	f993 2030 	ldrsb.w	r2, [r3, #48]	; 0x30
  16:	601c      	str	r4, [r3, #0]
  18:	2a00      	cmp	r2, #0
  1a:	db17      	blt.n	4c <_GLOBAL__sub_D_TimingDelay+0x4c>
  1c:	4b14      	ldr	r3, [pc, #80]	; (70 <_GLOBAL__sub_D_TimingDelay+0x70>)
  1e:	f993 2008 	ldrsb.w	r2, [r3, #8]
  22:	2a00      	cmp	r2, #0
  24:	db0c      	blt.n	40 <_GLOBAL__sub_D_TimingDelay+0x40>
  26:	4b13      	ldr	r3, [pc, #76]	; (74 <_GLOBAL__sub_D_TimingDelay+0x74>)
  28:	f993 2008 	ldrsb.w	r2, [r3, #8]
  2c:	2a00      	cmp	r2, #0
  2e:	db00      	blt.n	32 <_GLOBAL__sub_D_TimingDelay+0x32>
  30:	bd10      	pop	{r4, pc}
      {
        if (mpui8Data != BM_INVALID)
  32:	6818      	ldr	r0, [r3, #0]
  34:	2800      	cmp	r0, #0
  36:	d0fb      	beq.n	30 <_GLOBAL__sub_D_TimingDelay+0x30>
  38:	e8bd 4010 	ldmia.w	sp!, {r4, lr}
        {
          delete [] mpui8Data;
  3c:	f7ff bffe 	b.w	0 <operator delete[](void*)>	3c: R_ARM_THM_JUMP24	operator delete[](void*)
        if (mpui8Data != BM_INVALID)
  40:	6818      	ldr	r0, [r3, #0]
  42:	2800      	cmp	r0, #0
  44:	d0ef      	beq.n	26 <_GLOBAL__sub_D_TimingDelay+0x26>
          delete [] mpui8Data;
  46:	f7ff fffe 	bl	0 <operator delete[](void*)>	46: R_ARM_THM_CALL	operator delete[](void*)
  4a:	e7ec      	b.n	26 <_GLOBAL__sub_D_TimingDelay+0x26>
        if (mpui8Data != BM_INVALID)
  4c:	6a98      	ldr	r0, [r3, #40]	; 0x28
  4e:	2800      	cmp	r0, #0
  50:	d0e4      	beq.n	1c <_GLOBAL__sub_D_TimingDelay+0x1c>
          delete [] mpui8Data;
  52:	f7ff fffe 	bl	0 <operator delete[](void*)>	52: R_ARM_THM_CALL	operator delete[](void*)
  56:	e7e1      	b.n	1c <_GLOBAL__sub_D_TimingDelay+0x1c>
        if (mpui8Data != BM_INVALID)
  58:	6a98      	ldr	r0, [r3, #40]	; 0x28
  5a:	2800      	cmp	r0, #0
  5c:	d0d8      	beq.n	10 <_GLOBAL__sub_D_TimingDelay+0x10>
          delete [] mpui8Data;
  5e:	f7ff fffe 	bl	0 <operator delete[](void*)>	5e: R_ARM_THM_CALL	operator delete[](void*)
  62:	e7d5      	b.n	ffffffae <mDisplayMemory+0xffffd89e>
  64:	00000000 	.word	0x00000000	64: R_ARM_ABS32	.bss.cRFont_Res8b_Bpp1_1G_Full
  68:	00000008 	.word	0x00000008	68: R_ARM_ABS32	vtable for cRFont_Res8b_Bpp1_1G
	...
	6c: R_ARM_ABS32	.bss.cRFont_Res8b_Bpp1_1G_5x5Ucase
	70: R_ARM_ABS32	.bss.mc16GSprite
	74: R_ARM_ABS32	.bss.mc16GBm
